ARM GAS  C:\Users\samue\AppData\Local\Temp\ccF9zurf.s 			page 1


   1              		.cpu cortex-m4
   2              		.arch armv7e-m
   3              		.fpu fpv4-sp-d16
   4              		.eabi_attribute 27, 1
   5              		.eabi_attribute 28, 1
   6              		.eabi_attribute 20, 1
   7              		.eabi_attribute 21, 1
   8              		.eabi_attribute 23, 3
   9              		.eabi_attribute 24, 1
  10              		.eabi_attribute 25, 1
  11              		.eabi_attribute 26, 1
  12              		.eabi_attribute 30, 1
  13              		.eabi_attribute 34, 1
  14              		.eabi_attribute 18, 4
  15              		.file	"ccsbcs.c"
  16              		.text
  17              	.Ltext0:
  18              		.cfi_sections	.debug_frame
  19              		.section	.text.ff_convert,"ax",%progbits
  20              		.align	1
  21              		.global	ff_convert
  22              		.syntax unified
  23              		.thumb
  24              		.thumb_func
  26              	ff_convert:
  27              	.LVL0:
  28              	.LFB130:
  29              		.file 1 "Middlewares/Third_Party/FatFs/src/option/ccsbcs.c"
   1:Middlewares/Third_Party/FatFs/src/option/ccsbcs.c **** /*------------------------------------------------------------------------*/
   2:Middlewares/Third_Party/FatFs/src/option/ccsbcs.c **** /* Unicode - Local code bidirectional converter  (C)ChaN, 2015            */
   3:Middlewares/Third_Party/FatFs/src/option/ccsbcs.c **** /* (SBCS code pages)                                                      */
   4:Middlewares/Third_Party/FatFs/src/option/ccsbcs.c **** /*------------------------------------------------------------------------*/
   5:Middlewares/Third_Party/FatFs/src/option/ccsbcs.c **** /*  437   U.S.
   6:Middlewares/Third_Party/FatFs/src/option/ccsbcs.c **** /   720   Arabic
   7:Middlewares/Third_Party/FatFs/src/option/ccsbcs.c **** /   737   Greek
   8:Middlewares/Third_Party/FatFs/src/option/ccsbcs.c **** /   771   KBL
   9:Middlewares/Third_Party/FatFs/src/option/ccsbcs.c **** /   775   Baltic
  10:Middlewares/Third_Party/FatFs/src/option/ccsbcs.c **** /   850   Latin 1
  11:Middlewares/Third_Party/FatFs/src/option/ccsbcs.c **** /   852   Latin 2
  12:Middlewares/Third_Party/FatFs/src/option/ccsbcs.c **** /   855   Cyrillic
  13:Middlewares/Third_Party/FatFs/src/option/ccsbcs.c **** /   857   Turkish
  14:Middlewares/Third_Party/FatFs/src/option/ccsbcs.c **** /   860   Portuguese
  15:Middlewares/Third_Party/FatFs/src/option/ccsbcs.c **** /   861   Icelandic
  16:Middlewares/Third_Party/FatFs/src/option/ccsbcs.c **** /   862   Hebrew
  17:Middlewares/Third_Party/FatFs/src/option/ccsbcs.c **** /   863   Canadian French
  18:Middlewares/Third_Party/FatFs/src/option/ccsbcs.c **** /   864   Arabic
  19:Middlewares/Third_Party/FatFs/src/option/ccsbcs.c **** /   865   Nordic
  20:Middlewares/Third_Party/FatFs/src/option/ccsbcs.c **** /   866   Russian
  21:Middlewares/Third_Party/FatFs/src/option/ccsbcs.c **** /   869   Greek 2
  22:Middlewares/Third_Party/FatFs/src/option/ccsbcs.c **** */
  23:Middlewares/Third_Party/FatFs/src/option/ccsbcs.c **** 
  24:Middlewares/Third_Party/FatFs/src/option/ccsbcs.c **** #include "../ff.h"
  25:Middlewares/Third_Party/FatFs/src/option/ccsbcs.c **** 
  26:Middlewares/Third_Party/FatFs/src/option/ccsbcs.c **** 
  27:Middlewares/Third_Party/FatFs/src/option/ccsbcs.c **** #if _CODE_PAGE == 437
  28:Middlewares/Third_Party/FatFs/src/option/ccsbcs.c **** #define _TBLDEF 1
  29:Middlewares/Third_Party/FatFs/src/option/ccsbcs.c **** static
ARM GAS  C:\Users\samue\AppData\Local\Temp\ccF9zurf.s 			page 2


  30:Middlewares/Third_Party/FatFs/src/option/ccsbcs.c **** const WCHAR Tbl[] = {	/*  CP437(0x80-0xFF) to Unicode conversion table */
  31:Middlewares/Third_Party/FatFs/src/option/ccsbcs.c **** 	0x00C7, 0x00FC, 0x00E9, 0x00E2, 0x00E4, 0x00E0, 0x00E5, 0x00E7, 0x00EA, 0x00EB, 0x00E8, 0x00EF, 0x
  32:Middlewares/Third_Party/FatFs/src/option/ccsbcs.c **** 	0x00C9, 0x00E6, 0x00C6, 0x00F4, 0x00F6, 0x00F2, 0x00FB, 0x00F9, 0x00FF, 0x00D6, 0x00DC, 0x00A2, 0x
  33:Middlewares/Third_Party/FatFs/src/option/ccsbcs.c **** 	0x00E1, 0x00ED, 0x00F3, 0x00FA, 0x00F1, 0x00D1, 0x00AA, 0x00BA, 0x00BF, 0x2310, 0x00AC, 0x00BD, 0x
  34:Middlewares/Third_Party/FatFs/src/option/ccsbcs.c **** 	0x2591, 0x2592, 0x2593, 0x2502, 0x2524, 0x2561, 0x2562, 0x2556, 0x2555, 0x2563, 0x2551, 0x2557, 0x
  35:Middlewares/Third_Party/FatFs/src/option/ccsbcs.c **** 	0x2514, 0x2534, 0x252C, 0x251C, 0x2500, 0x253C, 0x255E, 0x255F, 0x255A, 0x2554, 0x2569, 0x2566, 0x
  36:Middlewares/Third_Party/FatFs/src/option/ccsbcs.c **** 	0x2568, 0x2564, 0x2565, 0x2559, 0x2558, 0x2552, 0x2553, 0x256B, 0x256A, 0x2518, 0x250C, 0x2588, 0x
  37:Middlewares/Third_Party/FatFs/src/option/ccsbcs.c **** 	0x03B1, 0x00DF, 0x0393, 0x03C0, 0x03A3, 0x03C3, 0x00B5, 0x03C4, 0x03A6, 0x0398, 0x03A9, 0x03B4, 0x
  38:Middlewares/Third_Party/FatFs/src/option/ccsbcs.c **** 	0x2261, 0x00B1, 0x2265, 0x2264, 0x2320, 0x2321, 0x00F7, 0x2248, 0x00B0, 0x2219, 0x00B7, 0x221A, 0x
  39:Middlewares/Third_Party/FatFs/src/option/ccsbcs.c **** };
  40:Middlewares/Third_Party/FatFs/src/option/ccsbcs.c **** 
  41:Middlewares/Third_Party/FatFs/src/option/ccsbcs.c **** #elif _CODE_PAGE == 720
  42:Middlewares/Third_Party/FatFs/src/option/ccsbcs.c **** #define _TBLDEF 1
  43:Middlewares/Third_Party/FatFs/src/option/ccsbcs.c **** static
  44:Middlewares/Third_Party/FatFs/src/option/ccsbcs.c **** const WCHAR Tbl[] = {	/*  CP720(0x80-0xFF) to Unicode conversion table */
  45:Middlewares/Third_Party/FatFs/src/option/ccsbcs.c **** 	0x0000, 0x0000, 0x00E9, 0x00E2, 0x0000, 0x00E0, 0x0000, 0x00E7, 0x00EA, 0x00EB, 0x00E8, 0x00EF, 0x
  46:Middlewares/Third_Party/FatFs/src/option/ccsbcs.c **** 	0x0000, 0x0651, 0x0652, 0x00F4, 0x00A4, 0x0640, 0x00FB, 0x00F9, 0x0621, 0x0622, 0x0623, 0x0624, 0x
  47:Middlewares/Third_Party/FatFs/src/option/ccsbcs.c **** 	0x0628, 0x0629, 0x062A, 0x062B, 0x062C, 0x062D, 0x062E, 0x062F, 0x0630, 0x0631, 0x0632, 0x0633, 0x
  48:Middlewares/Third_Party/FatFs/src/option/ccsbcs.c **** 	0x2591, 0x2592, 0x2593, 0x2502, 0x2524, 0x2561, 0x2562, 0x2556, 0x2555, 0x2563, 0x2551, 0x2557, 0x
  49:Middlewares/Third_Party/FatFs/src/option/ccsbcs.c **** 	0x2514, 0x2534, 0x252C, 0x251C, 0x2500, 0x253C, 0x255E, 0x255F, 0x255A, 0x2554, 0x2569, 0x2566, 0x
  50:Middlewares/Third_Party/FatFs/src/option/ccsbcs.c **** 	0x2568, 0x2564, 0x2565, 0x2559, 0x2558, 0x2552, 0x2553, 0x256B, 0x256A, 0x2518, 0x250C, 0x2588, 0x
  51:Middlewares/Third_Party/FatFs/src/option/ccsbcs.c **** 	0x0636, 0x0637, 0x0638, 0x0639, 0x063A, 0x0641, 0x00B5, 0x0642, 0x0643, 0x0644, 0x0645, 0x0646, 0x
  52:Middlewares/Third_Party/FatFs/src/option/ccsbcs.c **** 	0x2261, 0x064B, 0x064C, 0x064D, 0x064E, 0x064F, 0x0650, 0x2248, 0x00B0, 0x2219, 0x00B7, 0x221A, 0x
  53:Middlewares/Third_Party/FatFs/src/option/ccsbcs.c **** };
  54:Middlewares/Third_Party/FatFs/src/option/ccsbcs.c **** 
  55:Middlewares/Third_Party/FatFs/src/option/ccsbcs.c **** #elif _CODE_PAGE == 737
  56:Middlewares/Third_Party/FatFs/src/option/ccsbcs.c **** #define _TBLDEF 1
  57:Middlewares/Third_Party/FatFs/src/option/ccsbcs.c **** static
  58:Middlewares/Third_Party/FatFs/src/option/ccsbcs.c **** const WCHAR Tbl[] = {	/*  CP737(0x80-0xFF) to Unicode conversion table */
  59:Middlewares/Third_Party/FatFs/src/option/ccsbcs.c **** 	0x0391, 0x0392, 0x0393, 0x0394, 0x0395, 0x0396, 0x0397, 0x0398, 0x0399, 0x039A, 0x039B, 0x039C, 0x
  60:Middlewares/Third_Party/FatFs/src/option/ccsbcs.c **** 	0x03A1, 0x03A3, 0x03A4, 0x03A5, 0x03A6, 0x03A7, 0x03A8, 0x03A9, 0x03B1, 0x03B2, 0x03B3, 0x03B4, 0x
  61:Middlewares/Third_Party/FatFs/src/option/ccsbcs.c **** 	0x03B9, 0x03BA, 0x03BB, 0x03BC, 0x03BD, 0x03BE, 0x03BF, 0x03C0, 0x03C1, 0x03C3, 0x03C2, 0x03C4, 0x
  62:Middlewares/Third_Party/FatFs/src/option/ccsbcs.c **** 	0x2591, 0x2592, 0x2593, 0x2502, 0x2524, 0x2561, 0x2562, 0x2556, 0x2555, 0x2563, 0x2551, 0x2557, 0x
  63:Middlewares/Third_Party/FatFs/src/option/ccsbcs.c **** 	0x2514, 0x2534, 0x252C, 0x251C, 0x2500, 0x253C, 0x255E, 0x255F, 0x255A, 0x2554, 0x2569, 0x2566, 0x
  64:Middlewares/Third_Party/FatFs/src/option/ccsbcs.c **** 	0x2568, 0x2564, 0x2565, 0x2559, 0x2558, 0x2552, 0x2553, 0x256B, 0x256A, 0x2518, 0x250C, 0x2588, 0x
  65:Middlewares/Third_Party/FatFs/src/option/ccsbcs.c **** 	0x03C9, 0x03AC, 0x03AD, 0x03AE, 0x03CA, 0x03AF, 0x03CC, 0x03CD, 0x03CB, 0x03CE, 0x0386, 0x0388, 0x
  66:Middlewares/Third_Party/FatFs/src/option/ccsbcs.c **** 	0x038F, 0x00B1, 0x2265, 0x2264, 0x03AA, 0x03AB, 0x00F7, 0x2248, 0x00B0, 0x2219, 0x00B7, 0x221A, 0x
  67:Middlewares/Third_Party/FatFs/src/option/ccsbcs.c **** };
  68:Middlewares/Third_Party/FatFs/src/option/ccsbcs.c **** 
  69:Middlewares/Third_Party/FatFs/src/option/ccsbcs.c **** #elif _CODE_PAGE == 771
  70:Middlewares/Third_Party/FatFs/src/option/ccsbcs.c **** #define _TBLDEF 1
  71:Middlewares/Third_Party/FatFs/src/option/ccsbcs.c **** static
  72:Middlewares/Third_Party/FatFs/src/option/ccsbcs.c **** const WCHAR Tbl[] = {	/*  CP771(0x80-0xFF) to Unicode conversion table */
  73:Middlewares/Third_Party/FatFs/src/option/ccsbcs.c **** 	0x0410, 0x0411, 0x0412, 0x0413, 0x0414, 0x0415, 0x0416, 0x0417, 0x0418, 0x0419, 0x041A, 0x041B, 0x
  74:Middlewares/Third_Party/FatFs/src/option/ccsbcs.c **** 	0x0420, 0x0421, 0x0422, 0x0423, 0x0424, 0x0425, 0x0426, 0x0427, 0x0428, 0x0429, 0x042A, 0x042B, 0x
  75:Middlewares/Third_Party/FatFs/src/option/ccsbcs.c **** 	0x0430, 0x0431, 0x0432, 0x0433, 0x0434, 0x0435, 0x0436, 0x0437, 0x0438, 0x0439, 0x043A, 0x043B, 0x
  76:Middlewares/Third_Party/FatFs/src/option/ccsbcs.c **** 	0x2591, 0x2592, 0x2593, 0x2502, 0x2524, 0x2561, 0x2562, 0x2556, 0x2555, 0x2563, 0x2551, 0x2557, 0x
  77:Middlewares/Third_Party/FatFs/src/option/ccsbcs.c **** 	0x2514, 0x2534, 0x252C, 0x251C, 0x2500, 0x253C, 0x255E, 0x255F, 0x255A, 0x2554, 0x2569, 0x2566, 0x
  78:Middlewares/Third_Party/FatFs/src/option/ccsbcs.c **** 	0x2568, 0x2564, 0x2565, 0x2559, 0x2558, 0x2552, 0x2553, 0x256B, 0x256A, 0x2518, 0x250C, 0x2588, 0x
  79:Middlewares/Third_Party/FatFs/src/option/ccsbcs.c **** 	0x0440, 0x0441, 0x0442, 0x0443, 0x0444, 0x0445, 0x0446, 0x0447, 0x0448, 0x0449, 0x044A, 0x044B, 0x
  80:Middlewares/Third_Party/FatFs/src/option/ccsbcs.c **** 	0x0118, 0x0119, 0x0116, 0x0117, 0x012E, 0x012F, 0x0160, 0x0161, 0x0172, 0x0173, 0x016A, 0x016B, 0x
  81:Middlewares/Third_Party/FatFs/src/option/ccsbcs.c **** };
  82:Middlewares/Third_Party/FatFs/src/option/ccsbcs.c **** 
  83:Middlewares/Third_Party/FatFs/src/option/ccsbcs.c **** #elif _CODE_PAGE == 775
  84:Middlewares/Third_Party/FatFs/src/option/ccsbcs.c **** #define _TBLDEF 1
  85:Middlewares/Third_Party/FatFs/src/option/ccsbcs.c **** static
  86:Middlewares/Third_Party/FatFs/src/option/ccsbcs.c **** const WCHAR Tbl[] = {	/*  CP775(0x80-0xFF) to Unicode conversion table */
ARM GAS  C:\Users\samue\AppData\Local\Temp\ccF9zurf.s 			page 3


  87:Middlewares/Third_Party/FatFs/src/option/ccsbcs.c **** 	0x0106, 0x00FC, 0x00E9, 0x0101, 0x00E4, 0x0123, 0x00E5, 0x0107, 0x0142, 0x0113, 0x0156, 0x0157, 0x
  88:Middlewares/Third_Party/FatFs/src/option/ccsbcs.c **** 	0x00C9, 0x00E6, 0x00C6, 0x014D, 0x00F6, 0x0122, 0x00A2, 0x015A, 0x015B, 0x00D6, 0x00DC, 0x00F8, 0x
  89:Middlewares/Third_Party/FatFs/src/option/ccsbcs.c **** 	0x0100, 0x012A, 0x00F3, 0x017B, 0x017C, 0x017A, 0x201D, 0x00A6, 0x00A9, 0x00AE, 0x00AC, 0x00BD, 0x
  90:Middlewares/Third_Party/FatFs/src/option/ccsbcs.c **** 	0x2591, 0x2592, 0x2593, 0x2502, 0x2524, 0x0104, 0x010C, 0x0118, 0x0116, 0x2563, 0x2551, 0x2557, 0x
  91:Middlewares/Third_Party/FatFs/src/option/ccsbcs.c **** 	0x2514, 0x2534, 0x252C, 0x251C, 0x2500, 0x253C, 0x0172, 0x016A, 0x255A, 0x2554, 0x2569, 0x2566, 0x
  92:Middlewares/Third_Party/FatFs/src/option/ccsbcs.c **** 	0x0105, 0x010D, 0x0119, 0x0117, 0x012F, 0x0161, 0x0173, 0x016B, 0x017E, 0x2518, 0x250C, 0x2588, 0x
  93:Middlewares/Third_Party/FatFs/src/option/ccsbcs.c **** 	0x00D3, 0x00DF, 0x014C, 0x0143, 0x00F5, 0x00D5, 0x00B5, 0x0144, 0x0136, 0x0137, 0x013B, 0x013C, 0x
  94:Middlewares/Third_Party/FatFs/src/option/ccsbcs.c **** 	0x00AD, 0x00B1, 0x201C, 0x00BE, 0x00B6, 0x00A7, 0x00F7, 0x201E, 0x00B0, 0x2219, 0x00B7, 0x00B9, 0x
  95:Middlewares/Third_Party/FatFs/src/option/ccsbcs.c **** };
  96:Middlewares/Third_Party/FatFs/src/option/ccsbcs.c **** 
  97:Middlewares/Third_Party/FatFs/src/option/ccsbcs.c **** #elif _CODE_PAGE == 850
  98:Middlewares/Third_Party/FatFs/src/option/ccsbcs.c **** #define _TBLDEF 1
  99:Middlewares/Third_Party/FatFs/src/option/ccsbcs.c **** static
 100:Middlewares/Third_Party/FatFs/src/option/ccsbcs.c **** const WCHAR Tbl[] = {	/*  CP850(0x80-0xFF) to Unicode conversion table */
 101:Middlewares/Third_Party/FatFs/src/option/ccsbcs.c **** 	0x00C7, 0x00FC, 0x00E9, 0x00E2, 0x00E4, 0x00E0, 0x00E5, 0x00E7, 0x00EA, 0x00EB, 0x00E8, 0x00EF, 0x
 102:Middlewares/Third_Party/FatFs/src/option/ccsbcs.c **** 	0x00C9, 0x00E6, 0x00C6, 0x00F4, 0x00F6, 0x00F2, 0x00FB, 0x00F9, 0x00FF, 0x00D6, 0x00DC, 0x00F8, 0x
 103:Middlewares/Third_Party/FatFs/src/option/ccsbcs.c **** 	0x00E1, 0x00ED, 0x00F3, 0x00FA, 0x00F1, 0x00D1, 0x00AA, 0x00BA, 0x00BF, 0x00AE, 0x00AC, 0x00BD, 0x
 104:Middlewares/Third_Party/FatFs/src/option/ccsbcs.c **** 	0x2591, 0x2592, 0x2593, 0x2502, 0x2524, 0x00C1, 0x00C2, 0x00C0, 0x00A9, 0x2563, 0x2551, 0x2557, 0x
 105:Middlewares/Third_Party/FatFs/src/option/ccsbcs.c **** 	0x2514, 0x2534, 0x252C, 0x251C, 0x2500, 0x253C, 0x00E3, 0x00C3, 0x255A, 0x2554, 0x2569, 0x2566, 0x
 106:Middlewares/Third_Party/FatFs/src/option/ccsbcs.c **** 	0x00F0, 0x00D0, 0x00CA, 0x00CB, 0x00C8, 0x0131, 0x00CD, 0x00CE, 0x00CF, 0x2518, 0x250C, 0x2588, 0x
 107:Middlewares/Third_Party/FatFs/src/option/ccsbcs.c **** 	0x00D3, 0x00DF, 0x00D4, 0x00D2, 0x00F5, 0x00D5, 0x00B5, 0x00FE, 0x00DE, 0x00DA, 0x00DB, 0x00D9, 0x
 108:Middlewares/Third_Party/FatFs/src/option/ccsbcs.c **** 	0x00AD, 0x00B1, 0x2017, 0x00BE, 0x00B6, 0x00A7, 0x00F7, 0x00B8, 0x00B0, 0x00A8, 0x00B7, 0x00B9, 0x
 109:Middlewares/Third_Party/FatFs/src/option/ccsbcs.c **** };
 110:Middlewares/Third_Party/FatFs/src/option/ccsbcs.c **** 
 111:Middlewares/Third_Party/FatFs/src/option/ccsbcs.c **** #elif _CODE_PAGE == 852
 112:Middlewares/Third_Party/FatFs/src/option/ccsbcs.c **** #define _TBLDEF 1
 113:Middlewares/Third_Party/FatFs/src/option/ccsbcs.c **** static
 114:Middlewares/Third_Party/FatFs/src/option/ccsbcs.c **** const WCHAR Tbl[] = {	/*  CP852(0x80-0xFF) to Unicode conversion table */
 115:Middlewares/Third_Party/FatFs/src/option/ccsbcs.c **** 	0x00C7, 0x00FC, 0x00E9, 0x00E2, 0x00E4, 0x016F, 0x0107, 0x00E7, 0x0142, 0x00EB, 0x0150, 0x0151, 0x
 116:Middlewares/Third_Party/FatFs/src/option/ccsbcs.c **** 	0x00C9, 0x0139, 0x013A, 0x00F4, 0x00F6, 0x013D, 0x013E, 0x015A, 0x015B, 0x00D6, 0x00DC, 0x0164, 0x
 117:Middlewares/Third_Party/FatFs/src/option/ccsbcs.c **** 	0x00E1, 0x00ED, 0x00F3, 0x00FA, 0x0104, 0x0105, 0x017D, 0x017E, 0x0118, 0x0119, 0x00AC, 0x017A, 0x
 118:Middlewares/Third_Party/FatFs/src/option/ccsbcs.c **** 	0x2591, 0x2592, 0x2593, 0x2502, 0x2524, 0x00C1, 0x00C2, 0x011A, 0x015E, 0x2563, 0x2551, 0x2557, 0x
 119:Middlewares/Third_Party/FatFs/src/option/ccsbcs.c **** 	0x2514, 0x2534, 0x252C, 0x251C, 0x2500, 0x253C, 0x0102, 0x0103, 0x255A, 0x2554, 0x2569, 0x2566, 0x
 120:Middlewares/Third_Party/FatFs/src/option/ccsbcs.c **** 	0x0111, 0x0110, 0x010E, 0x00CB, 0x010F, 0x0147, 0x00CD, 0x00CE, 0x011B, 0x2518, 0x250C, 0x2588, 0x
 121:Middlewares/Third_Party/FatFs/src/option/ccsbcs.c **** 	0x00D3, 0x00DF, 0x00D4, 0x0143, 0x0144, 0x0148, 0x0160, 0x0161, 0x0154, 0x00DA, 0x0155, 0x0170, 0x
 122:Middlewares/Third_Party/FatFs/src/option/ccsbcs.c **** 	0x00AD, 0x02DD, 0x02DB, 0x02C7, 0x02D8, 0x00A7, 0x00F7, 0x00B8, 0x00B0, 0x00A8, 0x02D9, 0x0171, 0x
 123:Middlewares/Third_Party/FatFs/src/option/ccsbcs.c **** };
 124:Middlewares/Third_Party/FatFs/src/option/ccsbcs.c **** 
 125:Middlewares/Third_Party/FatFs/src/option/ccsbcs.c **** #elif _CODE_PAGE == 855
 126:Middlewares/Third_Party/FatFs/src/option/ccsbcs.c **** #define _TBLDEF 1
 127:Middlewares/Third_Party/FatFs/src/option/ccsbcs.c **** static
 128:Middlewares/Third_Party/FatFs/src/option/ccsbcs.c **** const WCHAR Tbl[] = {	/*  CP855(0x80-0xFF) to Unicode conversion table */
 129:Middlewares/Third_Party/FatFs/src/option/ccsbcs.c **** 	0x0452, 0x0402, 0x0453, 0x0403, 0x0451, 0x0401, 0x0454, 0x0404, 0x0455, 0x0405, 0x0456, 0x0406, 0x
 130:Middlewares/Third_Party/FatFs/src/option/ccsbcs.c **** 	0x0459, 0x0409, 0x045A, 0x040A, 0x045B, 0x040B, 0x045C, 0x040C, 0x045E, 0x040E, 0x045F, 0x040F, 0x
 131:Middlewares/Third_Party/FatFs/src/option/ccsbcs.c **** 	0x0430, 0x0410, 0x0431, 0x0411, 0x0446, 0x0426, 0x0434, 0x0414, 0x0435, 0x0415, 0x0444, 0x0424, 0x
 132:Middlewares/Third_Party/FatFs/src/option/ccsbcs.c **** 	0x2591, 0x2592, 0x2593, 0x2502, 0x2524, 0x0445, 0x0425, 0x0438, 0x0418, 0x2563, 0x2551, 0x2557, 0x
 133:Middlewares/Third_Party/FatFs/src/option/ccsbcs.c **** 	0x2514, 0x2534, 0x252C, 0x251C, 0x2500, 0x253C, 0x043A, 0x041A, 0x255A, 0x2554, 0x2569, 0x2566, 0x
 134:Middlewares/Third_Party/FatFs/src/option/ccsbcs.c **** 	0x043B, 0x041B, 0x043C, 0x041C, 0x043D, 0x041D, 0x043E, 0x041E, 0x043F, 0x2518, 0x250C, 0x2588, 0x
 135:Middlewares/Third_Party/FatFs/src/option/ccsbcs.c **** 	0x042F, 0x0440, 0x0420, 0x0441, 0x0421, 0x0442, 0x0422, 0x0443, 0x0423, 0x0436, 0x0416, 0x0432, 0x
 136:Middlewares/Third_Party/FatFs/src/option/ccsbcs.c **** 	0x00AD, 0x044B, 0x042B, 0x0437, 0x0417, 0x0448, 0x0428, 0x044D, 0x042D, 0x0449, 0x0429, 0x0447, 0x
 137:Middlewares/Third_Party/FatFs/src/option/ccsbcs.c **** };
 138:Middlewares/Third_Party/FatFs/src/option/ccsbcs.c **** 
 139:Middlewares/Third_Party/FatFs/src/option/ccsbcs.c **** #elif _CODE_PAGE == 857
 140:Middlewares/Third_Party/FatFs/src/option/ccsbcs.c **** #define _TBLDEF 1
 141:Middlewares/Third_Party/FatFs/src/option/ccsbcs.c **** static
 142:Middlewares/Third_Party/FatFs/src/option/ccsbcs.c **** const WCHAR Tbl[] = {	/*  CP857(0x80-0xFF) to Unicode conversion table */
 143:Middlewares/Third_Party/FatFs/src/option/ccsbcs.c **** 	0x00C7, 0x00FC, 0x00E9, 0x00E2, 0x00E4, 0x00E0, 0x00E5, 0x00E7, 0x00EA, 0x00EB, 0x00E8, 0x00EF, 0x
ARM GAS  C:\Users\samue\AppData\Local\Temp\ccF9zurf.s 			page 4


 144:Middlewares/Third_Party/FatFs/src/option/ccsbcs.c **** 	0x00C9, 0x00E6, 0x00C6, 0x00F4, 0x00F6, 0x00F2, 0x00FB, 0x00F9, 0x0130, 0x00D6, 0x00DC, 0x00F8, 0x
 145:Middlewares/Third_Party/FatFs/src/option/ccsbcs.c **** 	0x00E1, 0x00ED, 0x00F3, 0x00FA, 0x00F1, 0x00D1, 0x011E, 0x011F, 0x00BF, 0x00AE, 0x00AC, 0x00BD, 0x
 146:Middlewares/Third_Party/FatFs/src/option/ccsbcs.c **** 	0x2591, 0x2592, 0x2593, 0x2502, 0x2524, 0x00C1, 0x00C2, 0x00C0, 0x00A9, 0x2563, 0x2551, 0x2557, 0x
 147:Middlewares/Third_Party/FatFs/src/option/ccsbcs.c **** 	0x2514, 0x2534, 0x252C, 0x251C, 0x2500, 0x253C, 0x00E3, 0x00C3, 0x255A, 0x2554, 0x2569, 0x2566, 0x
 148:Middlewares/Third_Party/FatFs/src/option/ccsbcs.c **** 	0x00BA, 0x00AA, 0x00CA, 0x00CB, 0x00C8, 0x0000, 0x00CD, 0x00CE, 0x00CF, 0x2518, 0x250C, 0x2588, 0x
 149:Middlewares/Third_Party/FatFs/src/option/ccsbcs.c **** 	0x00D3, 0x00DF, 0x00D4, 0x00D2, 0x00F5, 0x00D5, 0x00B5, 0x0000, 0x00D7, 0x00DA, 0x00DB, 0x00D9, 0x
 150:Middlewares/Third_Party/FatFs/src/option/ccsbcs.c **** 	0x00AD, 0x00B1, 0x0000, 0x00BE, 0x00B6, 0x00A7, 0x00F7, 0x00B8, 0x00B0, 0x00A8, 0x00B7, 0x00B9, 0x
 151:Middlewares/Third_Party/FatFs/src/option/ccsbcs.c **** };
 152:Middlewares/Third_Party/FatFs/src/option/ccsbcs.c **** 
 153:Middlewares/Third_Party/FatFs/src/option/ccsbcs.c **** #elif _CODE_PAGE == 860
 154:Middlewares/Third_Party/FatFs/src/option/ccsbcs.c **** #define _TBLDEF 1
 155:Middlewares/Third_Party/FatFs/src/option/ccsbcs.c **** static
 156:Middlewares/Third_Party/FatFs/src/option/ccsbcs.c **** const WCHAR Tbl[] = {	/*  CP860(0x80-0xFF) to Unicode conversion table */
 157:Middlewares/Third_Party/FatFs/src/option/ccsbcs.c **** 	0x00C7, 0x00FC, 0x00E9, 0x00E2, 0x00E3, 0x00E0, 0x00C1, 0x00E7, 0x00EA, 0x00CA, 0x00E8, 0x00CD, 0x
 158:Middlewares/Third_Party/FatFs/src/option/ccsbcs.c **** 	0x00C9, 0x00C0, 0x00C8, 0x00F4, 0x00F5, 0x00F2, 0x00DA, 0x00F9, 0x00CC, 0x00D5, 0x00DC, 0x00A2, 0x
 159:Middlewares/Third_Party/FatFs/src/option/ccsbcs.c **** 	0x00E1, 0x00ED, 0x00F3, 0x00FA, 0x00F1, 0x00D1, 0x00AA, 0x00BA, 0x00BF, 0x00D2, 0x00AC, 0x00BD, 0x
 160:Middlewares/Third_Party/FatFs/src/option/ccsbcs.c **** 	0x2591, 0x2592, 0x2593, 0x2502, 0x2524, 0x2561, 0x2562, 0x2556, 0x2555, 0x2563, 0x2551, 0x2557, 0x
 161:Middlewares/Third_Party/FatFs/src/option/ccsbcs.c **** 	0x2514, 0x2534, 0x252C, 0x251C, 0x2500, 0x253C, 0x255E, 0x255F, 0x255A, 0x2554, 0x2569, 0x2566, 0x
 162:Middlewares/Third_Party/FatFs/src/option/ccsbcs.c **** 	0x2568, 0x2564, 0x2565, 0x2559, 0x2558, 0x2552, 0x2553, 0x256B, 0x256A, 0x2518, 0x250C, 0x2588, 0x
 163:Middlewares/Third_Party/FatFs/src/option/ccsbcs.c **** 	0x03B1, 0x00DF, 0x0393, 0x03C0, 0x03A3, 0x03C3, 0x00B5, 0x03C4, 0x03A6, 0x0398, 0x03A9, 0x03B4, 0x
 164:Middlewares/Third_Party/FatFs/src/option/ccsbcs.c **** 	0x2261, 0x00B1, 0x2265, 0x2264, 0x2320, 0x2321, 0x00F7, 0x2248, 0x00B0, 0x2219, 0x00B7, 0x221A, 0x
 165:Middlewares/Third_Party/FatFs/src/option/ccsbcs.c **** };
 166:Middlewares/Third_Party/FatFs/src/option/ccsbcs.c **** 
 167:Middlewares/Third_Party/FatFs/src/option/ccsbcs.c **** #elif _CODE_PAGE == 861
 168:Middlewares/Third_Party/FatFs/src/option/ccsbcs.c **** #define _TBLDEF 1
 169:Middlewares/Third_Party/FatFs/src/option/ccsbcs.c **** static
 170:Middlewares/Third_Party/FatFs/src/option/ccsbcs.c **** const WCHAR Tbl[] = {	/*  CP861(0x80-0xFF) to Unicode conversion table */
 171:Middlewares/Third_Party/FatFs/src/option/ccsbcs.c **** 	0x00C7, 0x00FC, 0x00E9, 0x00E2, 0x00E4, 0x00E0, 0x00E6, 0x00E7, 0x00EA, 0x00EB, 0x00E8, 0x00D0, 0x
 172:Middlewares/Third_Party/FatFs/src/option/ccsbcs.c **** 	0x00C9, 0x00E6, 0x00C6, 0x00F4, 0x00F6, 0x00FE, 0x00FB, 0x00DD, 0x00FD, 0x00D6, 0x00DC, 0x00F8, 0x
 173:Middlewares/Third_Party/FatFs/src/option/ccsbcs.c **** 	0x00E1, 0x00ED, 0x00F3, 0x00FA, 0x00C1, 0x00CD, 0x00D3, 0x00DA, 0x00BF, 0x2310, 0x00AC, 0x00BD, 0x
 174:Middlewares/Third_Party/FatFs/src/option/ccsbcs.c **** 	0x2591, 0x2592, 0x2593, 0x2502, 0x2524, 0x2561, 0x2562, 0x2556, 0x2555, 0x2563, 0x2551, 0x2557, 0x
 175:Middlewares/Third_Party/FatFs/src/option/ccsbcs.c **** 	0x2514, 0x2534, 0x252C, 0x251C, 0x2500, 0x253C, 0x255E, 0x255F, 0x255A, 0x2554, 0x2569, 0x2566, 0x
 176:Middlewares/Third_Party/FatFs/src/option/ccsbcs.c **** 	0x2568, 0x2564, 0x2565, 0x2559, 0x2558, 0x2552, 0x2553, 0x256B, 0x256A, 0x2518, 0x250C, 0x2588, 0x
 177:Middlewares/Third_Party/FatFs/src/option/ccsbcs.c **** 	0x03B1, 0x00DF, 0x0393, 0x03C0, 0x03A3, 0x03C3, 0x00B5, 0x03C4, 0x03A6, 0x0398, 0x03A9, 0x03B4, 0x
 178:Middlewares/Third_Party/FatFs/src/option/ccsbcs.c **** 	0x2261, 0x00B1, 0x2265, 0x2264, 0x2320, 0x2321, 0x00F7, 0x2248, 0x00B0, 0x2219, 0x00B7, 0x221A, 0x
 179:Middlewares/Third_Party/FatFs/src/option/ccsbcs.c **** };
 180:Middlewares/Third_Party/FatFs/src/option/ccsbcs.c **** 
 181:Middlewares/Third_Party/FatFs/src/option/ccsbcs.c **** #elif _CODE_PAGE == 862
 182:Middlewares/Third_Party/FatFs/src/option/ccsbcs.c **** #define _TBLDEF 1
 183:Middlewares/Third_Party/FatFs/src/option/ccsbcs.c **** static
 184:Middlewares/Third_Party/FatFs/src/option/ccsbcs.c **** const WCHAR Tbl[] = {	/*  CP862(0x80-0xFF) to Unicode conversion table */
 185:Middlewares/Third_Party/FatFs/src/option/ccsbcs.c **** 	0x05D0, 0x05D1, 0x05D2, 0x05D3, 0x05D4, 0x05D5, 0x05D6, 0x05D7, 0x05D8, 0x05D9, 0x05DA, 0x05DB, 0x
 186:Middlewares/Third_Party/FatFs/src/option/ccsbcs.c **** 	0x05E0, 0x05E1, 0x05E2, 0x05E3, 0x05E4, 0x05E5, 0x05E6, 0x05E7, 0x05E8, 0x05E9, 0x05EA, 0x00A2, 0x
 187:Middlewares/Third_Party/FatFs/src/option/ccsbcs.c **** 	0x00E1, 0x00ED, 0x00F3, 0x00FA, 0x00F1, 0x00D1, 0x00AA, 0x00BA, 0x00BF, 0x2310, 0x00AC, 0x00BD, 0x
 188:Middlewares/Third_Party/FatFs/src/option/ccsbcs.c **** 	0x2591, 0x2592, 0x2593, 0x2502, 0x2524, 0x2561, 0x2562, 0x2556, 0x2555, 0x2563, 0x2551, 0x2557, 0x
 189:Middlewares/Third_Party/FatFs/src/option/ccsbcs.c **** 	0x2514, 0x2534, 0x252C, 0x251C, 0x2500, 0x253C, 0x255E, 0x255F, 0x255A, 0x2554, 0x2569, 0x2566, 0x
 190:Middlewares/Third_Party/FatFs/src/option/ccsbcs.c **** 	0x2568, 0x2564, 0x2565, 0x2559, 0x2558, 0x2552, 0x2553, 0x256B, 0x256A, 0x2518, 0x250C, 0x2588, 0x
 191:Middlewares/Third_Party/FatFs/src/option/ccsbcs.c **** 	0x03B1, 0x00DF, 0x0393, 0x03C0, 0x03A3, 0x03C3, 0x00B5, 0x03C4, 0x03A6, 0x0398, 0x03A9, 0x03B4, 0x
 192:Middlewares/Third_Party/FatFs/src/option/ccsbcs.c **** 	0x2261, 0x00B1, 0x2265, 0x2264, 0x2320, 0x2321, 0x00F7, 0x2248, 0x00B0, 0x2219, 0x00B7, 0x221A, 0x
 193:Middlewares/Third_Party/FatFs/src/option/ccsbcs.c **** };
 194:Middlewares/Third_Party/FatFs/src/option/ccsbcs.c **** 
 195:Middlewares/Third_Party/FatFs/src/option/ccsbcs.c **** #elif _CODE_PAGE == 863
 196:Middlewares/Third_Party/FatFs/src/option/ccsbcs.c **** #define _TBLDEF 1
 197:Middlewares/Third_Party/FatFs/src/option/ccsbcs.c **** static
 198:Middlewares/Third_Party/FatFs/src/option/ccsbcs.c **** const WCHAR Tbl[] = {	/*  CP863(0x80-0xFF) to Unicode conversion table */
 199:Middlewares/Third_Party/FatFs/src/option/ccsbcs.c **** 	0x00C7, 0x00FC, 0x00E9, 0x00E2, 0x00C2, 0x00E0, 0x00B6, 0x00E7, 0x00EA, 0x00EB, 0x00E8, 0x00EF, 0x
 200:Middlewares/Third_Party/FatFs/src/option/ccsbcs.c **** 	0x00C9, 0x00C8, 0x00CA, 0x00F4, 0x00CB, 0x00CF, 0x00FB, 0x00F9, 0x00A4, 0x00D4, 0x00DC, 0x00A2, 0x
ARM GAS  C:\Users\samue\AppData\Local\Temp\ccF9zurf.s 			page 5


 201:Middlewares/Third_Party/FatFs/src/option/ccsbcs.c **** 	0x00A6, 0x00B4, 0x00F3, 0x00FA, 0x00A8, 0x00BB, 0x00B3, 0x00AF, 0x00CE, 0x3210, 0x00AC, 0x00BD, 0x
 202:Middlewares/Third_Party/FatFs/src/option/ccsbcs.c **** 	0x2591, 0x2592, 0x2593, 0x2502, 0x2524, 0x2561, 0x2562, 0x2556, 0x2555, 0x2563, 0x2551, 0x2557, 0x
 203:Middlewares/Third_Party/FatFs/src/option/ccsbcs.c **** 	0x2514, 0x2534, 0x252C, 0x251C, 0x2500, 0x253C, 0x255E, 0x255F, 0x255A, 0x2554, 0x2569, 0x2566, 0x
 204:Middlewares/Third_Party/FatFs/src/option/ccsbcs.c **** 	0x2568, 0x2564, 0x2565, 0x2559, 0x2558, 0x2552, 0x2553, 0x256B, 0x256A, 0x2518, 0x250C, 0x2588, 0x
 205:Middlewares/Third_Party/FatFs/src/option/ccsbcs.c **** 	0x03B1, 0x00DF, 0x0393, 0x03C0, 0x03A3, 0x03C3, 0x00B5, 0x03C4, 0x03A6, 0x0398, 0x03A9, 0x03B4, 0x
 206:Middlewares/Third_Party/FatFs/src/option/ccsbcs.c **** 	0x2261, 0x00B1, 0x2265, 0x2264, 0x2320, 0x2321, 0x00F7, 0x2248, 0x00B0, 0x2219, 0x00B7, 0x221A, 0x
 207:Middlewares/Third_Party/FatFs/src/option/ccsbcs.c **** };
 208:Middlewares/Third_Party/FatFs/src/option/ccsbcs.c **** 
 209:Middlewares/Third_Party/FatFs/src/option/ccsbcs.c **** #elif _CODE_PAGE == 864
 210:Middlewares/Third_Party/FatFs/src/option/ccsbcs.c **** #define _TBLDEF 1
 211:Middlewares/Third_Party/FatFs/src/option/ccsbcs.c **** static
 212:Middlewares/Third_Party/FatFs/src/option/ccsbcs.c **** const WCHAR Tbl[] = {	/*  CP864(0x80-0xFF) to Unicode conversion table */
 213:Middlewares/Third_Party/FatFs/src/option/ccsbcs.c **** 	0x00B0, 0x00B7, 0x2219, 0x221A, 0x2592, 0x2500, 0x2502, 0x253C, 0x2524, 0x252C, 0x251C, 0x2534, 0x
 214:Middlewares/Third_Party/FatFs/src/option/ccsbcs.c **** 	0x03B2, 0x221E, 0x03C6, 0x00B1, 0x00BD, 0x00BC, 0x2248, 0x00AB, 0x00BB, 0xFEF7, 0xFEF8, 0x0000, 0x
 215:Middlewares/Third_Party/FatFs/src/option/ccsbcs.c **** 	0x00A0, 0x00AD, 0xFE82, 0x00A3, 0x00A4, 0xFE84, 0x0000, 0x20AC, 0xFE8E, 0xFE8F, 0xFE95, 0xFE99, 0x
 216:Middlewares/Third_Party/FatFs/src/option/ccsbcs.c **** 	0x0660, 0x0661, 0x0662, 0x0663, 0x0664, 0x0665, 0x0666, 0x0667, 0x0668, 0x0669, 0xFED1, 0x061B, 0x
 217:Middlewares/Third_Party/FatFs/src/option/ccsbcs.c **** 	0x00A2, 0xFE80, 0xFE81, 0xFE83, 0xFE85, 0xFECA, 0xFE8B, 0xFE8D, 0xFE91, 0xFE93, 0xFE97, 0xFE9B, 0x
 218:Middlewares/Third_Party/FatFs/src/option/ccsbcs.c **** 	0xFEAB, 0xFEAD, 0xFEAF, 0xFEB3, 0xFEB7, 0xFEBB, 0xFEBF, 0xFEC1, 0xFEC5, 0xFECB, 0xFECF, 0x00A6, 0x
 219:Middlewares/Third_Party/FatFs/src/option/ccsbcs.c **** 	0x0640, 0xFED3, 0xFED7, 0xFEDB, 0xFEDF, 0xFEE3, 0xFEE7, 0xFEEB, 0xFEED, 0xFEEF, 0xFEF3, 0xFEBD, 0x
 220:Middlewares/Third_Party/FatFs/src/option/ccsbcs.c **** 	0xFE7D, 0x0651, 0xFEE5, 0xFEE9, 0xFEEC, 0xFEF0, 0xFEF2, 0xFED0, 0xFED5, 0xFEF5, 0xFEF6, 0xFEDD, 0x
 221:Middlewares/Third_Party/FatFs/src/option/ccsbcs.c **** };
 222:Middlewares/Third_Party/FatFs/src/option/ccsbcs.c **** 
 223:Middlewares/Third_Party/FatFs/src/option/ccsbcs.c **** #elif _CODE_PAGE == 865
 224:Middlewares/Third_Party/FatFs/src/option/ccsbcs.c **** #define _TBLDEF 1
 225:Middlewares/Third_Party/FatFs/src/option/ccsbcs.c **** static
 226:Middlewares/Third_Party/FatFs/src/option/ccsbcs.c **** const WCHAR Tbl[] = {	/*  CP865(0x80-0xFF) to Unicode conversion table */
 227:Middlewares/Third_Party/FatFs/src/option/ccsbcs.c **** 	0x00C7, 0x00FC, 0x00E9, 0x00E2, 0x00E4, 0x00E0, 0x00E5, 0x00E7, 0x00EA, 0x00EB, 0x00E8, 0x00EF, 0x
 228:Middlewares/Third_Party/FatFs/src/option/ccsbcs.c **** 	0x00C5, 0x00E6, 0x00C6, 0x00F4, 0x00F6, 0x00F2, 0x00FB, 0x00F9, 0x00FF, 0x00D6, 0x00DC, 0x00F8, 0x
 229:Middlewares/Third_Party/FatFs/src/option/ccsbcs.c **** 	0x00E1, 0x00ED, 0x00F3, 0x00FA, 0x00F1, 0x00D1, 0x00AA, 0x00BA, 0x00BF, 0x2310, 0x00AC, 0x00BD, 0x
 230:Middlewares/Third_Party/FatFs/src/option/ccsbcs.c **** 	0x2591, 0x2592, 0x2593, 0x2502, 0x2524, 0x2561, 0x2562, 0x2556, 0x2555, 0x2563, 0x2551, 0x2557, 0x
 231:Middlewares/Third_Party/FatFs/src/option/ccsbcs.c **** 	0x2514, 0x2534, 0x252C, 0x251C, 0x2500, 0x253C, 0x255E, 0x255F, 0x255A, 0x2554, 0x2569, 0x2566, 0x
 232:Middlewares/Third_Party/FatFs/src/option/ccsbcs.c **** 	0x2568, 0x2564, 0x2565, 0x2559, 0x2558, 0x2552, 0x2553, 0x256B, 0x256A, 0x2518, 0x250C, 0x2588, 0x
 233:Middlewares/Third_Party/FatFs/src/option/ccsbcs.c **** 	0x03B1, 0x00DF, 0x0393, 0x03C0, 0x03A3, 0x03C3, 0x00B5, 0x03C4, 0x03A6, 0x0398, 0x03A9, 0x03B4, 0x
 234:Middlewares/Third_Party/FatFs/src/option/ccsbcs.c **** 	0x2261, 0x00B1, 0x2265, 0x2264, 0x2320, 0x2321, 0x00F7, 0x2248, 0x00B0, 0x2219, 0x00B7, 0x221A, 0x
 235:Middlewares/Third_Party/FatFs/src/option/ccsbcs.c **** };
 236:Middlewares/Third_Party/FatFs/src/option/ccsbcs.c **** 
 237:Middlewares/Third_Party/FatFs/src/option/ccsbcs.c **** #elif _CODE_PAGE == 866
 238:Middlewares/Third_Party/FatFs/src/option/ccsbcs.c **** #define _TBLDEF 1
 239:Middlewares/Third_Party/FatFs/src/option/ccsbcs.c **** static
 240:Middlewares/Third_Party/FatFs/src/option/ccsbcs.c **** const WCHAR Tbl[] = {	/*  CP866(0x80-0xFF) to Unicode conversion table */
 241:Middlewares/Third_Party/FatFs/src/option/ccsbcs.c **** 	0x0410, 0x0411, 0x0412, 0x0413, 0x0414, 0x0415, 0x0416, 0x0417, 0x0418, 0x0419, 0x041A, 0x041B, 0x
 242:Middlewares/Third_Party/FatFs/src/option/ccsbcs.c **** 	0x0420, 0x0421, 0x0422, 0x0423, 0x0424, 0x0425, 0x0426, 0x0427, 0x0428, 0x0429, 0x042A, 0x042B, 0x
 243:Middlewares/Third_Party/FatFs/src/option/ccsbcs.c **** 	0x0430, 0x0431, 0x0432, 0x0433, 0x0434, 0x0435, 0x0436, 0x0437, 0x0438, 0x0439, 0x043A, 0x043B, 0x
 244:Middlewares/Third_Party/FatFs/src/option/ccsbcs.c **** 	0x2591, 0x2592, 0x2593, 0x2502, 0x2524, 0x2561, 0x2562, 0x2556, 0x2555, 0x2563, 0x2551, 0x2557, 0x
 245:Middlewares/Third_Party/FatFs/src/option/ccsbcs.c **** 	0x2514, 0x2534, 0x252C, 0x251C, 0x2500, 0x253C, 0x255E, 0x255F, 0x255A, 0x2554, 0x2569, 0x2566, 0x
 246:Middlewares/Third_Party/FatFs/src/option/ccsbcs.c **** 	0x2568, 0x2564, 0x2565, 0x2559, 0x2558, 0x2552, 0x2553, 0x256B, 0x256A, 0x2518, 0x250C, 0x2588, 0x
 247:Middlewares/Third_Party/FatFs/src/option/ccsbcs.c **** 	0x0440, 0x0441, 0x0442, 0x0443, 0x0444, 0x0445, 0x0446, 0x0447, 0x0448, 0x0449, 0x044A, 0x044B, 0x
 248:Middlewares/Third_Party/FatFs/src/option/ccsbcs.c **** 	0x0401, 0x0451, 0x0404, 0x0454, 0x0407, 0x0457, 0x040E, 0x045E, 0x00B0, 0x2219, 0x00B7, 0x221A, 0x
 249:Middlewares/Third_Party/FatFs/src/option/ccsbcs.c **** };
 250:Middlewares/Third_Party/FatFs/src/option/ccsbcs.c **** 
 251:Middlewares/Third_Party/FatFs/src/option/ccsbcs.c **** #elif _CODE_PAGE == 869
 252:Middlewares/Third_Party/FatFs/src/option/ccsbcs.c **** #define _TBLDEF 1
 253:Middlewares/Third_Party/FatFs/src/option/ccsbcs.c **** static
 254:Middlewares/Third_Party/FatFs/src/option/ccsbcs.c **** const WCHAR Tbl[] = {	/*  CP869(0x80-0xFF) to Unicode conversion table */
 255:Middlewares/Third_Party/FatFs/src/option/ccsbcs.c **** 	0x00B7, 0x00B7, 0x00B7, 0x00B7, 0x00B7, 0x00B7, 0x0386, 0x00B7, 0x00B7, 0x00AC, 0x00A6, 0x2018, 0x
 256:Middlewares/Third_Party/FatFs/src/option/ccsbcs.c **** 	0x038A, 0x03AA, 0x038C, 0x00B7, 0x00B7, 0x038E, 0x03AB, 0x00A9, 0x038F, 0x00B2, 0x00B3, 0x03AC, 0x
 257:Middlewares/Third_Party/FatFs/src/option/ccsbcs.c **** 	0x03CA, 0x0390, 0x03CC, 0x03CD, 0x0391, 0x0392, 0x0393, 0x0394, 0x0395, 0x0396, 0x0397, 0x00BD, 0x
ARM GAS  C:\Users\samue\AppData\Local\Temp\ccF9zurf.s 			page 6


 258:Middlewares/Third_Party/FatFs/src/option/ccsbcs.c **** 	0x2591, 0x2592, 0x2593, 0x2502, 0x2524, 0x039A, 0x039B, 0x039C, 0x039D, 0x2563, 0x2551, 0x2557, 0x
 259:Middlewares/Third_Party/FatFs/src/option/ccsbcs.c **** 	0x2514, 0x2534, 0x252C, 0x251C, 0x2500, 0x253C, 0x0A30, 0x03A1, 0x255A, 0x2554, 0x2569, 0x2566, 0x
 260:Middlewares/Third_Party/FatFs/src/option/ccsbcs.c **** 	0x03A4, 0x03A5, 0x03A6, 0x03A7, 0x03A8, 0x03A9, 0x03B1, 0x03B2, 0x03B3, 0x2518, 0x250C, 0x2588, 0x
 261:Middlewares/Third_Party/FatFs/src/option/ccsbcs.c **** 	0x03B6, 0x03B7, 0x03B8, 0x03B9, 0x03BA, 0x03BB, 0x03BC, 0x03BD, 0x03BE, 0x03BF, 0x03C0, 0x03C1, 0x
 262:Middlewares/Third_Party/FatFs/src/option/ccsbcs.c **** 	0x00AD, 0x00B1, 0x03C5, 0x03C6, 0x03C7, 0x00A7, 0x03C8, 0x0385, 0x00B0, 0x00A8, 0x03C9, 0x03CB, 0x
 263:Middlewares/Third_Party/FatFs/src/option/ccsbcs.c **** };
 264:Middlewares/Third_Party/FatFs/src/option/ccsbcs.c **** 
 265:Middlewares/Third_Party/FatFs/src/option/ccsbcs.c **** #endif
 266:Middlewares/Third_Party/FatFs/src/option/ccsbcs.c **** 
 267:Middlewares/Third_Party/FatFs/src/option/ccsbcs.c **** 
 268:Middlewares/Third_Party/FatFs/src/option/ccsbcs.c **** #if !_TBLDEF || !_USE_LFN
 269:Middlewares/Third_Party/FatFs/src/option/ccsbcs.c **** #error This file is not needed at current configuration. Remove from the project.
 270:Middlewares/Third_Party/FatFs/src/option/ccsbcs.c **** #endif
 271:Middlewares/Third_Party/FatFs/src/option/ccsbcs.c **** 
 272:Middlewares/Third_Party/FatFs/src/option/ccsbcs.c **** 
 273:Middlewares/Third_Party/FatFs/src/option/ccsbcs.c **** 
 274:Middlewares/Third_Party/FatFs/src/option/ccsbcs.c **** 
 275:Middlewares/Third_Party/FatFs/src/option/ccsbcs.c **** WCHAR ff_convert (	/* Converted character, Returns zero on error */
 276:Middlewares/Third_Party/FatFs/src/option/ccsbcs.c **** 	WCHAR	chr,	/* Character code to be converted */
 277:Middlewares/Third_Party/FatFs/src/option/ccsbcs.c **** 	UINT	dir		/* 0: Unicode to OEM code, 1: OEM code to Unicode */
 278:Middlewares/Third_Party/FatFs/src/option/ccsbcs.c **** )
 279:Middlewares/Third_Party/FatFs/src/option/ccsbcs.c **** {
  30              		.loc 1 279 1 view -0
  31              		.cfi_startproc
  32              		@ args = 0, pretend = 0, frame = 0
  33              		@ frame_needed = 0, uses_anonymous_args = 0
  34              		@ link register save eliminated.
 280:Middlewares/Third_Party/FatFs/src/option/ccsbcs.c **** 	WCHAR c;
  35              		.loc 1 280 2 view .LVU1
 281:Middlewares/Third_Party/FatFs/src/option/ccsbcs.c **** 
 282:Middlewares/Third_Party/FatFs/src/option/ccsbcs.c **** 
 283:Middlewares/Third_Party/FatFs/src/option/ccsbcs.c **** 	if (chr < 0x80) {	/* ASCII */
  36              		.loc 1 283 2 view .LVU2
  37              		.loc 1 283 5 is_stmt 0 view .LVU3
  38 0000 7F28     		cmp	r0, #127
  39 0002 17D9     		bls	.L2
 284:Middlewares/Third_Party/FatFs/src/option/ccsbcs.c **** 		c = chr;
 285:Middlewares/Third_Party/FatFs/src/option/ccsbcs.c **** 
 286:Middlewares/Third_Party/FatFs/src/option/ccsbcs.c **** 	} else {
 287:Middlewares/Third_Party/FatFs/src/option/ccsbcs.c **** 		if (dir) {		/* OEM code to Unicode */
  40              		.loc 1 287 3 is_stmt 1 view .LVU4
  41              		.loc 1 287 6 is_stmt 0 view .LVU5
  42 0004 31B1     		cbz	r1, .L6
 288:Middlewares/Third_Party/FatFs/src/option/ccsbcs.c **** 			c = (chr >= 0x100) ? 0 : Tbl[chr - 0x80];
  43              		.loc 1 288 4 is_stmt 1 view .LVU6
  44              		.loc 1 288 6 is_stmt 0 view .LVU7
  45 0006 FF28     		cmp	r0, #255
  46 0008 13D8     		bhi	.L7
  47              		.loc 1 288 37 discriminator 1 view .LVU8
  48 000a 8038     		subs	r0, r0, #128
  49              	.LVL1:
  50              		.loc 1 288 6 discriminator 1 view .LVU9
  51 000c 0A4B     		ldr	r3, .L8
  52 000e 33F81000 		ldrh	r0, [r3, r0, lsl #1]
  53 0012 7047     		bx	lr
  54              	.LVL2:
  55              	.L6:
ARM GAS  C:\Users\samue\AppData\Local\Temp\ccF9zurf.s 			page 7


 289:Middlewares/Third_Party/FatFs/src/option/ccsbcs.c **** 
 290:Middlewares/Third_Party/FatFs/src/option/ccsbcs.c **** 		} else {		/* Unicode to OEM code */
 291:Middlewares/Third_Party/FatFs/src/option/ccsbcs.c **** 			for (c = 0; c < 0x80; c++) {
  56              		.loc 1 291 11 view .LVU10
  57 0014 0023     		movs	r3, #0
  58              	.L3:
  59              	.LVL3:
  60              		.loc 1 291 16 is_stmt 1 discriminator 1 view .LVU11
  61              		.loc 1 291 4 is_stmt 0 discriminator 1 view .LVU12
  62 0016 7F2B     		cmp	r3, #127
  63 0018 07D8     		bhi	.L4
 292:Middlewares/Third_Party/FatFs/src/option/ccsbcs.c **** 				if (chr == Tbl[c]) break;
  64              		.loc 1 292 5 is_stmt 1 view .LVU13
  65              		.loc 1 292 19 is_stmt 0 view .LVU14
  66 001a 074A     		ldr	r2, .L8
  67 001c 32F81320 		ldrh	r2, [r2, r3, lsl #1]
  68              		.loc 1 292 8 view .LVU15
  69 0020 8242     		cmp	r2, r0
  70 0022 02D0     		beq	.L4
 291:Middlewares/Third_Party/FatFs/src/option/ccsbcs.c **** 				if (chr == Tbl[c]) break;
  71              		.loc 1 291 26 is_stmt 1 discriminator 2 view .LVU16
 291:Middlewares/Third_Party/FatFs/src/option/ccsbcs.c **** 				if (chr == Tbl[c]) break;
  72              		.loc 1 291 27 is_stmt 0 discriminator 2 view .LVU17
  73 0024 0133     		adds	r3, r3, #1
  74              	.LVL4:
 291:Middlewares/Third_Party/FatFs/src/option/ccsbcs.c **** 				if (chr == Tbl[c]) break;
  75              		.loc 1 291 27 discriminator 2 view .LVU18
  76 0026 9BB2     		uxth	r3, r3
  77              	.LVL5:
 291:Middlewares/Third_Party/FatFs/src/option/ccsbcs.c **** 				if (chr == Tbl[c]) break;
  78              		.loc 1 291 27 discriminator 2 view .LVU19
  79 0028 F5E7     		b	.L3
  80              	.L4:
 293:Middlewares/Third_Party/FatFs/src/option/ccsbcs.c **** 			}
 294:Middlewares/Third_Party/FatFs/src/option/ccsbcs.c **** 			c = (c + 0x80) & 0xFF;
  81              		.loc 1 294 4 is_stmt 1 view .LVU20
  82              		.loc 1 294 11 is_stmt 0 view .LVU21
  83 002a 03F18000 		add	r0, r3, #128
  84              	.LVL6:
  85              		.loc 1 294 6 view .LVU22
  86 002e C0B2     		uxtb	r0, r0
  87              	.LVL7:
  88              		.loc 1 294 6 view .LVU23
  89 0030 7047     		bx	lr
  90              	.LVL8:
  91              	.L7:
 288:Middlewares/Third_Party/FatFs/src/option/ccsbcs.c **** 
  92              		.loc 1 288 6 view .LVU24
  93 0032 0020     		movs	r0, #0
  94              	.LVL9:
  95              	.L2:
 295:Middlewares/Third_Party/FatFs/src/option/ccsbcs.c **** 		}
 296:Middlewares/Third_Party/FatFs/src/option/ccsbcs.c **** 	}
 297:Middlewares/Third_Party/FatFs/src/option/ccsbcs.c **** 
 298:Middlewares/Third_Party/FatFs/src/option/ccsbcs.c **** 	return c;
  96              		.loc 1 298 2 is_stmt 1 view .LVU25
 299:Middlewares/Third_Party/FatFs/src/option/ccsbcs.c **** }
ARM GAS  C:\Users\samue\AppData\Local\Temp\ccF9zurf.s 			page 8


  97              		.loc 1 299 1 is_stmt 0 view .LVU26
  98 0034 7047     		bx	lr
  99              	.L9:
 100 0036 00BF     		.align	2
 101              	.L8:
 102 0038 00000000 		.word	.LANCHOR0
 103              		.cfi_endproc
 104              	.LFE130:
 106              		.section	.text.ff_wtoupper,"ax",%progbits
 107              		.align	1
 108              		.global	ff_wtoupper
 109              		.syntax unified
 110              		.thumb
 111              		.thumb_func
 113              	ff_wtoupper:
 114              	.LVL10:
 115              	.LFB131:
 300:Middlewares/Third_Party/FatFs/src/option/ccsbcs.c **** 
 301:Middlewares/Third_Party/FatFs/src/option/ccsbcs.c **** 
 302:Middlewares/Third_Party/FatFs/src/option/ccsbcs.c **** 
 303:Middlewares/Third_Party/FatFs/src/option/ccsbcs.c **** WCHAR ff_wtoupper (	/* Returns upper converted character */
 304:Middlewares/Third_Party/FatFs/src/option/ccsbcs.c **** 	WCHAR chr		/* Unicode character to be upper converted (BMP only) */
 305:Middlewares/Third_Party/FatFs/src/option/ccsbcs.c **** )
 306:Middlewares/Third_Party/FatFs/src/option/ccsbcs.c **** {
 116              		.loc 1 306 1 is_stmt 1 view -0
 117              		.cfi_startproc
 118              		@ args = 0, pretend = 0, frame = 0
 119              		@ frame_needed = 0, uses_anonymous_args = 0
 307:Middlewares/Third_Party/FatFs/src/option/ccsbcs.c **** 	/* Compressed upper conversion table */
 308:Middlewares/Third_Party/FatFs/src/option/ccsbcs.c **** 	static const WCHAR cvt1[] = {	/* U+0000 - U+0FFF */
 120              		.loc 1 308 2 view .LVU28
 309:Middlewares/Third_Party/FatFs/src/option/ccsbcs.c **** 		/* Basic Latin */
 310:Middlewares/Third_Party/FatFs/src/option/ccsbcs.c **** 		0x0061,0x031A,
 311:Middlewares/Third_Party/FatFs/src/option/ccsbcs.c **** 		/* Latin-1 Supplement */
 312:Middlewares/Third_Party/FatFs/src/option/ccsbcs.c **** 		0x00E0,0x0317,  0x00F8,0x0307,  0x00FF,0x0001,0x0178,
 313:Middlewares/Third_Party/FatFs/src/option/ccsbcs.c **** 		/* Latin Extended-A */
 314:Middlewares/Third_Party/FatFs/src/option/ccsbcs.c **** 		0x0100,0x0130,  0x0132,0x0106,  0x0139,0x0110,  0x014A,0x012E,  0x0179,0x0106,
 315:Middlewares/Third_Party/FatFs/src/option/ccsbcs.c **** 		/* Latin Extended-B */
 316:Middlewares/Third_Party/FatFs/src/option/ccsbcs.c **** 		0x0180,0x004D,0x0243,0x0181,0x0182,0x0182,0x0184,0x0184,0x0186,0x0187,0x0187,0x0189,0x018A,0x018B
 317:Middlewares/Third_Party/FatFs/src/option/ccsbcs.c **** 		0x01CD,0x0110,  0x01DD,0x0001,0x018E,  0x01DE,0x0112,  0x01F3,0x0003,0x01F1,0x01F4,0x01F4,  0x01F
 318:Middlewares/Third_Party/FatFs/src/option/ccsbcs.c **** 		0x0222,0x0112,  0x023A,0x0009,0x2C65,0x023B,0x023B,0x023D,0x2C66,0x023F,0x0240,0x0241,0x0241,  0x
 319:Middlewares/Third_Party/FatFs/src/option/ccsbcs.c **** 		/* IPA Extensions */
 320:Middlewares/Third_Party/FatFs/src/option/ccsbcs.c **** 		0x0253,0x0040,0x0181,0x0186,0x0255,0x0189,0x018A,0x0258,0x018F,0x025A,0x0190,0x025C,0x025D,0x025E
 321:Middlewares/Third_Party/FatFs/src/option/ccsbcs.c **** 		/* Greek, Coptic */
 322:Middlewares/Third_Party/FatFs/src/option/ccsbcs.c **** 		0x037B,0x0003,0x03FD,0x03FE,0x03FF,  0x03AC,0x0004,0x0386,0x0388,0x0389,0x038A,  0x03B1,0x0311,
 323:Middlewares/Third_Party/FatFs/src/option/ccsbcs.c **** 		0x03C2,0x0002,0x03A3,0x03A3,  0x03C4,0x0308,  0x03CC,0x0003,0x038C,0x038E,0x038F,  0x03D8,0x0118,
 324:Middlewares/Third_Party/FatFs/src/option/ccsbcs.c **** 		0x03F2,0x000A,0x03F9,0x03F3,0x03F4,0x03F5,0x03F6,0x03F7,0x03F7,0x03F9,0x03FA,0x03FA,
 325:Middlewares/Third_Party/FatFs/src/option/ccsbcs.c **** 		/* Cyrillic */
 326:Middlewares/Third_Party/FatFs/src/option/ccsbcs.c **** 		0x0430,0x0320,  0x0450,0x0710,  0x0460,0x0122,  0x048A,0x0136,  0x04C1,0x010E,  0x04CF,0x0001,0x0
 327:Middlewares/Third_Party/FatFs/src/option/ccsbcs.c **** 		/* Armenian */
 328:Middlewares/Third_Party/FatFs/src/option/ccsbcs.c **** 		0x0561,0x0426,
 329:Middlewares/Third_Party/FatFs/src/option/ccsbcs.c **** 
 330:Middlewares/Third_Party/FatFs/src/option/ccsbcs.c **** 		0x0000
 331:Middlewares/Third_Party/FatFs/src/option/ccsbcs.c **** 	};
 332:Middlewares/Third_Party/FatFs/src/option/ccsbcs.c **** 	static const WCHAR cvt2[] = {	/* U+1000 - U+FFFF */
 121              		.loc 1 332 2 view .LVU29
 333:Middlewares/Third_Party/FatFs/src/option/ccsbcs.c **** 		/* Phonetic Extensions */
ARM GAS  C:\Users\samue\AppData\Local\Temp\ccF9zurf.s 			page 9


 334:Middlewares/Third_Party/FatFs/src/option/ccsbcs.c **** 		0x1D7D,0x0001,0x2C63,
 335:Middlewares/Third_Party/FatFs/src/option/ccsbcs.c **** 		/* Latin Extended Additional */
 336:Middlewares/Third_Party/FatFs/src/option/ccsbcs.c **** 		0x1E00,0x0196,  0x1EA0,0x015A,
 337:Middlewares/Third_Party/FatFs/src/option/ccsbcs.c **** 		/* Greek Extended */
 338:Middlewares/Third_Party/FatFs/src/option/ccsbcs.c **** 		0x1F00,0x0608,  0x1F10,0x0606,  0x1F20,0x0608,  0x1F30,0x0608,  0x1F40,0x0606,
 339:Middlewares/Third_Party/FatFs/src/option/ccsbcs.c **** 		0x1F51,0x0007,0x1F59,0x1F52,0x1F5B,0x1F54,0x1F5D,0x1F56,0x1F5F,  0x1F60,0x0608,
 340:Middlewares/Third_Party/FatFs/src/option/ccsbcs.c **** 		0x1F70,0x000E,0x1FBA,0x1FBB,0x1FC8,0x1FC9,0x1FCA,0x1FCB,0x1FDA,0x1FDB,0x1FF8,0x1FF9,0x1FEA,0x1FEB
 341:Middlewares/Third_Party/FatFs/src/option/ccsbcs.c **** 		0x1F80,0x0608,  0x1F90,0x0608,  0x1FA0,0x0608,  0x1FB0,0x0004,0x1FB8,0x1FB9,0x1FB2,0x1FBC,
 342:Middlewares/Third_Party/FatFs/src/option/ccsbcs.c **** 		0x1FCC,0x0001,0x1FC3,  0x1FD0,0x0602,  0x1FE0,0x0602,  0x1FE5,0x0001,0x1FEC,  0x1FF2,0x0001,0x1FF
 343:Middlewares/Third_Party/FatFs/src/option/ccsbcs.c **** 		/* Letterlike Symbols */
 344:Middlewares/Third_Party/FatFs/src/option/ccsbcs.c **** 		0x214E,0x0001,0x2132,
 345:Middlewares/Third_Party/FatFs/src/option/ccsbcs.c **** 		/* Number forms */
 346:Middlewares/Third_Party/FatFs/src/option/ccsbcs.c **** 		0x2170,0x0210,  0x2184,0x0001,0x2183,
 347:Middlewares/Third_Party/FatFs/src/option/ccsbcs.c **** 		/* Enclosed Alphanumerics */
 348:Middlewares/Third_Party/FatFs/src/option/ccsbcs.c **** 		0x24D0,0x051A,  0x2C30,0x042F,
 349:Middlewares/Third_Party/FatFs/src/option/ccsbcs.c **** 		/* Latin Extended-C */
 350:Middlewares/Third_Party/FatFs/src/option/ccsbcs.c **** 		0x2C60,0x0102,  0x2C67,0x0106, 0x2C75,0x0102,
 351:Middlewares/Third_Party/FatFs/src/option/ccsbcs.c **** 		/* Coptic */
 352:Middlewares/Third_Party/FatFs/src/option/ccsbcs.c **** 		0x2C80,0x0164,
 353:Middlewares/Third_Party/FatFs/src/option/ccsbcs.c **** 		/* Georgian Supplement */
 354:Middlewares/Third_Party/FatFs/src/option/ccsbcs.c **** 		0x2D00,0x0826,
 355:Middlewares/Third_Party/FatFs/src/option/ccsbcs.c **** 		/* Full-width */
 356:Middlewares/Third_Party/FatFs/src/option/ccsbcs.c **** 		0xFF41,0x031A,
 357:Middlewares/Third_Party/FatFs/src/option/ccsbcs.c **** 
 358:Middlewares/Third_Party/FatFs/src/option/ccsbcs.c **** 		0x0000
 359:Middlewares/Third_Party/FatFs/src/option/ccsbcs.c **** 	};
 360:Middlewares/Third_Party/FatFs/src/option/ccsbcs.c **** 	const WCHAR *p;
 122              		.loc 1 360 2 view .LVU30
 361:Middlewares/Third_Party/FatFs/src/option/ccsbcs.c **** 	WCHAR bc, nc, cmd;
 123              		.loc 1 361 2 view .LVU31
 362:Middlewares/Third_Party/FatFs/src/option/ccsbcs.c **** 
 363:Middlewares/Third_Party/FatFs/src/option/ccsbcs.c **** 
 364:Middlewares/Third_Party/FatFs/src/option/ccsbcs.c **** 	p = chr < 0x1000 ? cvt1 : cvt2;
 124              		.loc 1 364 2 view .LVU32
 125              		.loc 1 364 26 is_stmt 0 view .LVU33
 126 0000 B0F5805F 		cmp	r0, #4096
 127 0004 07D2     		bcs	.L26
 128 0006 234B     		ldr	r3, .L35
 129              	.L29:
 130              	.LVL11:
 365:Middlewares/Third_Party/FatFs/src/option/ccsbcs.c **** 	for (;;) {
 131              		.loc 1 365 2 is_stmt 1 view .LVU34
 366:Middlewares/Third_Party/FatFs/src/option/ccsbcs.c **** 		bc = *p++;								/* Get block base */
 132              		.loc 1 366 3 view .LVU35
 133              		.loc 1 366 6 is_stmt 0 view .LVU36
 134 0008 1A88     		ldrh	r2, [r3]
 135              	.LVL12:
 367:Middlewares/Third_Party/FatFs/src/option/ccsbcs.c **** 		if (!bc || chr < bc) break;
 136              		.loc 1 367 3 is_stmt 1 view .LVU37
 137              		.loc 1 367 6 is_stmt 0 view .LVU38
 138 000a 002A     		cmp	r2, #0
 139 000c 41D0     		beq	.L30
 140              		.loc 1 367 11 view .LVU39
 141 000e 9042     		cmp	r0, r2
 142 0010 3FD3     		bcc	.L30
 306:Middlewares/Third_Party/FatFs/src/option/ccsbcs.c **** 	/* Compressed upper conversion table */
 143              		.loc 1 306 1 view .LVU40
ARM GAS  C:\Users\samue\AppData\Local\Temp\ccF9zurf.s 			page 10


 144 0012 10B5     		push	{r4, lr}
 145              	.LCFI0:
 146              		.cfi_def_cfa_offset 8
 147              		.cfi_offset 4, -8
 148              		.cfi_offset 14, -4
 149 0014 06E0     		b	.L32
 150              	.LVL13:
 151              	.L26:
 152              	.LCFI1:
 153              		.cfi_def_cfa_offset 0
 154              		.cfi_restore 4
 155              		.cfi_restore 14
 364:Middlewares/Third_Party/FatFs/src/option/ccsbcs.c **** 	for (;;) {
 156              		.loc 1 364 26 view .LVU41
 157 0016 204B     		ldr	r3, .L35+4
 158 0018 F6E7     		b	.L29
 159              	.LVL14:
 160              	.L27:
 161              	.LCFI2:
 162              		.cfi_def_cfa_offset 8
 163              		.cfi_offset 4, -8
 164              		.cfi_offset 14, -4
 368:Middlewares/Third_Party/FatFs/src/option/ccsbcs.c **** 		nc = *p++; cmd = nc >> 8; nc &= 0xFF;	/* Get processing command and block size */
 165              		.loc 1 368 10 view .LVU42
 166 001a 7346     		mov	r3, lr
 167              	.LVL15:
 168              	.L24:
 365:Middlewares/Third_Party/FatFs/src/option/ccsbcs.c **** 		bc = *p++;								/* Get block base */
 169              		.loc 1 365 2 is_stmt 1 view .LVU43
 366:Middlewares/Third_Party/FatFs/src/option/ccsbcs.c **** 		if (!bc || chr < bc) break;
 170              		.loc 1 366 3 view .LVU44
 366:Middlewares/Third_Party/FatFs/src/option/ccsbcs.c **** 		if (!bc || chr < bc) break;
 171              		.loc 1 366 6 is_stmt 0 view .LVU45
 172 001c 1A88     		ldrh	r2, [r3]
 173              	.LVL16:
 367:Middlewares/Third_Party/FatFs/src/option/ccsbcs.c **** 		nc = *p++; cmd = nc >> 8; nc &= 0xFF;	/* Get processing command and block size */
 174              		.loc 1 367 3 is_stmt 1 view .LVU46
 367:Middlewares/Third_Party/FatFs/src/option/ccsbcs.c **** 		nc = *p++; cmd = nc >> 8; nc &= 0xFF;	/* Get processing command and block size */
 175              		.loc 1 367 6 is_stmt 0 view .LVU47
 176 001e DAB1     		cbz	r2, .L12
 367:Middlewares/Third_Party/FatFs/src/option/ccsbcs.c **** 		nc = *p++; cmd = nc >> 8; nc &= 0xFF;	/* Get processing command and block size */
 177              		.loc 1 367 11 discriminator 1 view .LVU48
 178 0020 9042     		cmp	r0, r2
 179 0022 19D3     		bcc	.L12
 180              	.LVL17:
 181              	.L32:
 182              		.loc 1 368 3 is_stmt 1 view .LVU49
 183              		.loc 1 368 10 is_stmt 0 view .LVU50
 184 0024 03F1040E 		add	lr, r3, #4
 185              	.LVL18:
 186              		.loc 1 368 6 view .LVU51
 187 0028 5B88     		ldrh	r3, [r3, #2]
 188              	.LVL19:
 189              		.loc 1 368 14 is_stmt 1 view .LVU52
 190              		.loc 1 368 18 is_stmt 0 view .LVU53
 191 002a 190A     		lsrs	r1, r3, #8
 192              	.LVL20:
ARM GAS  C:\Users\samue\AppData\Local\Temp\ccF9zurf.s 			page 11


 193              		.loc 1 368 29 is_stmt 1 view .LVU54
 194              		.loc 1 368 32 is_stmt 0 view .LVU55
 195 002c DBB2     		uxtb	r3, r3
 196              	.LVL21:
 369:Middlewares/Third_Party/FatFs/src/option/ccsbcs.c **** 		if (chr < bc + nc) {	/* In the block? */
 197              		.loc 1 369 3 is_stmt 1 view .LVU56
 198              		.loc 1 369 16 is_stmt 0 view .LVU57
 199 002e 03EB020C 		add	ip, r3, r2
 200              		.loc 1 369 6 view .LVU58
 201 0032 6045     		cmp	r0, ip
 202 0034 04DB     		blt	.L34
 370:Middlewares/Third_Party/FatFs/src/option/ccsbcs.c **** 			switch (cmd) {
 371:Middlewares/Third_Party/FatFs/src/option/ccsbcs.c **** 			case 0:	chr = p[chr - bc]; break;		/* Table conversion */
 372:Middlewares/Third_Party/FatFs/src/option/ccsbcs.c **** 			case 1:	chr -= (chr - bc) & 1; break;	/* Case pairs */
 373:Middlewares/Third_Party/FatFs/src/option/ccsbcs.c **** 			case 2: chr -= 16; break;				/* Shift -16 */
 374:Middlewares/Third_Party/FatFs/src/option/ccsbcs.c **** 			case 3:	chr -= 32; break;				/* Shift -32 */
 375:Middlewares/Third_Party/FatFs/src/option/ccsbcs.c **** 			case 4:	chr -= 48; break;				/* Shift -48 */
 376:Middlewares/Third_Party/FatFs/src/option/ccsbcs.c **** 			case 5:	chr -= 26; break;				/* Shift -26 */
 377:Middlewares/Third_Party/FatFs/src/option/ccsbcs.c **** 			case 6:	chr += 8; break;				/* Shift +8 */
 378:Middlewares/Third_Party/FatFs/src/option/ccsbcs.c **** 			case 7: chr -= 80; break;				/* Shift -80 */
 379:Middlewares/Third_Party/FatFs/src/option/ccsbcs.c **** 			case 8:	chr -= 0x1C60; break;			/* Shift -0x1C60 */
 380:Middlewares/Third_Party/FatFs/src/option/ccsbcs.c **** 			}
 381:Middlewares/Third_Party/FatFs/src/option/ccsbcs.c **** 			break;
 382:Middlewares/Third_Party/FatFs/src/option/ccsbcs.c **** 		}
 383:Middlewares/Third_Party/FatFs/src/option/ccsbcs.c **** 		if (!cmd) p += nc;
 203              		.loc 1 383 3 is_stmt 1 view .LVU59
 204              		.loc 1 383 6 is_stmt 0 view .LVU60
 205 0036 0029     		cmp	r1, #0
 206 0038 EFD1     		bne	.L27
 207              		.loc 1 383 13 is_stmt 1 discriminator 1 view .LVU61
 208              		.loc 1 383 15 is_stmt 0 discriminator 1 view .LVU62
 209 003a 0EEB4303 		add	r3, lr, r3, lsl #1
 210              	.LVL22:
 211              		.loc 1 383 15 discriminator 1 view .LVU63
 212 003e EDE7     		b	.L24
 213              	.LVL23:
 214              	.L34:
 370:Middlewares/Third_Party/FatFs/src/option/ccsbcs.c **** 			switch (cmd) {
 215              		.loc 1 370 4 is_stmt 1 view .LVU64
 216 0040 0829     		cmp	r1, #8
 217 0042 09D8     		bhi	.L12
 218 0044 DFE801F0 		tbb	[pc, r1]
 219              	.LVL24:
 220              	.L15:
 221 0048 05       		.byte	(.L23-.L15)/2
 222 0049 09       		.byte	(.L22-.L15)/2
 223 004a 0F       		.byte	(.L21-.L15)/2
 224 004b 12       		.byte	(.L20-.L15)/2
 225 004c 15       		.byte	(.L19-.L15)/2
 226 004d 18       		.byte	(.L18-.L15)/2
 227 004e 1B       		.byte	(.L17-.L15)/2
 228 004f 1E       		.byte	(.L16-.L15)/2
 229 0050 21       		.byte	(.L14-.L15)/2
 230 0051 00       		.p2align 1
 231              	.L23:
 371:Middlewares/Third_Party/FatFs/src/option/ccsbcs.c **** 			case 1:	chr -= (chr - bc) & 1; break;	/* Case pairs */
 232              		.loc 1 371 12 view .LVU65
ARM GAS  C:\Users\samue\AppData\Local\Temp\ccF9zurf.s 			page 12


 371:Middlewares/Third_Party/FatFs/src/option/ccsbcs.c **** 			case 1:	chr -= (chr - bc) & 1; break;	/* Case pairs */
 233              		.loc 1 371 24 is_stmt 0 view .LVU66
 234 0052 821A     		subs	r2, r0, r2
 235              	.LVL25:
 371:Middlewares/Third_Party/FatFs/src/option/ccsbcs.c **** 			case 1:	chr -= (chr - bc) & 1; break;	/* Case pairs */
 236              		.loc 1 371 16 view .LVU67
 237 0054 3EF81200 		ldrh	r0, [lr, r2, lsl #1]
 238              	.LVL26:
 371:Middlewares/Third_Party/FatFs/src/option/ccsbcs.c **** 			case 1:	chr -= (chr - bc) & 1; break;	/* Case pairs */
 239              		.loc 1 371 31 is_stmt 1 view .LVU68
 240              	.L12:
 384:Middlewares/Third_Party/FatFs/src/option/ccsbcs.c **** 	}
 385:Middlewares/Third_Party/FatFs/src/option/ccsbcs.c **** 
 386:Middlewares/Third_Party/FatFs/src/option/ccsbcs.c **** 	return chr;
 241              		.loc 1 386 2 view .LVU69
 387:Middlewares/Third_Party/FatFs/src/option/ccsbcs.c **** }
 242              		.loc 1 387 1 is_stmt 0 view .LVU70
 243 0058 10BD     		pop	{r4, pc}
 244              	.LVL27:
 245              	.L22:
 372:Middlewares/Third_Party/FatFs/src/option/ccsbcs.c **** 			case 2: chr -= 16; break;				/* Shift -16 */
 246              		.loc 1 372 12 is_stmt 1 view .LVU71
 372:Middlewares/Third_Party/FatFs/src/option/ccsbcs.c **** 			case 2: chr -= 16; break;				/* Shift -16 */
 247              		.loc 1 372 30 is_stmt 0 view .LVU72
 248 005a 831A     		subs	r3, r0, r2
 249 005c 03F00103 		and	r3, r3, #1
 372:Middlewares/Third_Party/FatFs/src/option/ccsbcs.c **** 			case 2: chr -= 16; break;				/* Shift -16 */
 250              		.loc 1 372 16 view .LVU73
 251 0060 C01A     		subs	r0, r0, r3
 252              	.LVL28:
 372:Middlewares/Third_Party/FatFs/src/option/ccsbcs.c **** 			case 2: chr -= 16; break;				/* Shift -16 */
 253              		.loc 1 372 16 view .LVU74
 254 0062 80B2     		uxth	r0, r0
 255              	.LVL29:
 372:Middlewares/Third_Party/FatFs/src/option/ccsbcs.c **** 			case 2: chr -= 16; break;				/* Shift -16 */
 256              		.loc 1 372 35 is_stmt 1 view .LVU75
 372:Middlewares/Third_Party/FatFs/src/option/ccsbcs.c **** 			case 2: chr -= 16; break;				/* Shift -16 */
 257              		.loc 1 372 4 is_stmt 0 view .LVU76
 258 0064 F8E7     		b	.L12
 259              	.L21:
 373:Middlewares/Third_Party/FatFs/src/option/ccsbcs.c **** 			case 3:	chr -= 32; break;				/* Shift -32 */
 260              		.loc 1 373 12 is_stmt 1 view .LVU77
 373:Middlewares/Third_Party/FatFs/src/option/ccsbcs.c **** 			case 3:	chr -= 32; break;				/* Shift -32 */
 261              		.loc 1 373 16 is_stmt 0 view .LVU78
 262 0066 1038     		subs	r0, r0, #16
 263              	.LVL30:
 373:Middlewares/Third_Party/FatFs/src/option/ccsbcs.c **** 			case 3:	chr -= 32; break;				/* Shift -32 */
 264              		.loc 1 373 16 view .LVU79
 265 0068 80B2     		uxth	r0, r0
 266              	.LVL31:
 373:Middlewares/Third_Party/FatFs/src/option/ccsbcs.c **** 			case 3:	chr -= 32; break;				/* Shift -32 */
 267              		.loc 1 373 23 is_stmt 1 view .LVU80
 373:Middlewares/Third_Party/FatFs/src/option/ccsbcs.c **** 			case 3:	chr -= 32; break;				/* Shift -32 */
 268              		.loc 1 373 4 is_stmt 0 view .LVU81
 269 006a F5E7     		b	.L12
 270              	.L20:
 374:Middlewares/Third_Party/FatFs/src/option/ccsbcs.c **** 			case 4:	chr -= 48; break;				/* Shift -48 */
ARM GAS  C:\Users\samue\AppData\Local\Temp\ccF9zurf.s 			page 13


 271              		.loc 1 374 12 is_stmt 1 view .LVU82
 374:Middlewares/Third_Party/FatFs/src/option/ccsbcs.c **** 			case 4:	chr -= 48; break;				/* Shift -48 */
 272              		.loc 1 374 16 is_stmt 0 view .LVU83
 273 006c 2038     		subs	r0, r0, #32
 274              	.LVL32:
 374:Middlewares/Third_Party/FatFs/src/option/ccsbcs.c **** 			case 4:	chr -= 48; break;				/* Shift -48 */
 275              		.loc 1 374 16 view .LVU84
 276 006e 80B2     		uxth	r0, r0
 277              	.LVL33:
 374:Middlewares/Third_Party/FatFs/src/option/ccsbcs.c **** 			case 4:	chr -= 48; break;				/* Shift -48 */
 278              		.loc 1 374 23 is_stmt 1 view .LVU85
 374:Middlewares/Third_Party/FatFs/src/option/ccsbcs.c **** 			case 4:	chr -= 48; break;				/* Shift -48 */
 279              		.loc 1 374 4 is_stmt 0 view .LVU86
 280 0070 F2E7     		b	.L12
 281              	.L19:
 375:Middlewares/Third_Party/FatFs/src/option/ccsbcs.c **** 			case 5:	chr -= 26; break;				/* Shift -26 */
 282              		.loc 1 375 12 is_stmt 1 view .LVU87
 375:Middlewares/Third_Party/FatFs/src/option/ccsbcs.c **** 			case 5:	chr -= 26; break;				/* Shift -26 */
 283              		.loc 1 375 16 is_stmt 0 view .LVU88
 284 0072 3038     		subs	r0, r0, #48
 285              	.LVL34:
 375:Middlewares/Third_Party/FatFs/src/option/ccsbcs.c **** 			case 5:	chr -= 26; break;				/* Shift -26 */
 286              		.loc 1 375 16 view .LVU89
 287 0074 80B2     		uxth	r0, r0
 288              	.LVL35:
 375:Middlewares/Third_Party/FatFs/src/option/ccsbcs.c **** 			case 5:	chr -= 26; break;				/* Shift -26 */
 289              		.loc 1 375 23 is_stmt 1 view .LVU90
 375:Middlewares/Third_Party/FatFs/src/option/ccsbcs.c **** 			case 5:	chr -= 26; break;				/* Shift -26 */
 290              		.loc 1 375 4 is_stmt 0 view .LVU91
 291 0076 EFE7     		b	.L12
 292              	.L18:
 376:Middlewares/Third_Party/FatFs/src/option/ccsbcs.c **** 			case 6:	chr += 8; break;				/* Shift +8 */
 293              		.loc 1 376 12 is_stmt 1 view .LVU92
 376:Middlewares/Third_Party/FatFs/src/option/ccsbcs.c **** 			case 6:	chr += 8; break;				/* Shift +8 */
 294              		.loc 1 376 16 is_stmt 0 view .LVU93
 295 0078 1A38     		subs	r0, r0, #26
 296              	.LVL36:
 376:Middlewares/Third_Party/FatFs/src/option/ccsbcs.c **** 			case 6:	chr += 8; break;				/* Shift +8 */
 297              		.loc 1 376 16 view .LVU94
 298 007a 80B2     		uxth	r0, r0
 299              	.LVL37:
 376:Middlewares/Third_Party/FatFs/src/option/ccsbcs.c **** 			case 6:	chr += 8; break;				/* Shift +8 */
 300              		.loc 1 376 23 is_stmt 1 view .LVU95
 376:Middlewares/Third_Party/FatFs/src/option/ccsbcs.c **** 			case 6:	chr += 8; break;				/* Shift +8 */
 301              		.loc 1 376 4 is_stmt 0 view .LVU96
 302 007c ECE7     		b	.L12
 303              	.L17:
 377:Middlewares/Third_Party/FatFs/src/option/ccsbcs.c **** 			case 7: chr -= 80; break;				/* Shift -80 */
 304              		.loc 1 377 12 is_stmt 1 view .LVU97
 377:Middlewares/Third_Party/FatFs/src/option/ccsbcs.c **** 			case 7: chr -= 80; break;				/* Shift -80 */
 305              		.loc 1 377 16 is_stmt 0 view .LVU98
 306 007e 0830     		adds	r0, r0, #8
 307              	.LVL38:
 377:Middlewares/Third_Party/FatFs/src/option/ccsbcs.c **** 			case 7: chr -= 80; break;				/* Shift -80 */
 308              		.loc 1 377 16 view .LVU99
 309 0080 80B2     		uxth	r0, r0
 310              	.LVL39:
ARM GAS  C:\Users\samue\AppData\Local\Temp\ccF9zurf.s 			page 14


 377:Middlewares/Third_Party/FatFs/src/option/ccsbcs.c **** 			case 7: chr -= 80; break;				/* Shift -80 */
 311              		.loc 1 377 22 is_stmt 1 view .LVU100
 377:Middlewares/Third_Party/FatFs/src/option/ccsbcs.c **** 			case 7: chr -= 80; break;				/* Shift -80 */
 312              		.loc 1 377 4 is_stmt 0 view .LVU101
 313 0082 E9E7     		b	.L12
 314              	.L16:
 378:Middlewares/Third_Party/FatFs/src/option/ccsbcs.c **** 			case 8:	chr -= 0x1C60; break;			/* Shift -0x1C60 */
 315              		.loc 1 378 12 is_stmt 1 view .LVU102
 378:Middlewares/Third_Party/FatFs/src/option/ccsbcs.c **** 			case 8:	chr -= 0x1C60; break;			/* Shift -0x1C60 */
 316              		.loc 1 378 16 is_stmt 0 view .LVU103
 317 0084 5038     		subs	r0, r0, #80
 318              	.LVL40:
 378:Middlewares/Third_Party/FatFs/src/option/ccsbcs.c **** 			case 8:	chr -= 0x1C60; break;			/* Shift -0x1C60 */
 319              		.loc 1 378 16 view .LVU104
 320 0086 80B2     		uxth	r0, r0
 321              	.LVL41:
 378:Middlewares/Third_Party/FatFs/src/option/ccsbcs.c **** 			case 8:	chr -= 0x1C60; break;			/* Shift -0x1C60 */
 322              		.loc 1 378 23 is_stmt 1 view .LVU105
 378:Middlewares/Third_Party/FatFs/src/option/ccsbcs.c **** 			case 8:	chr -= 0x1C60; break;			/* Shift -0x1C60 */
 323              		.loc 1 378 4 is_stmt 0 view .LVU106
 324 0088 E6E7     		b	.L12
 325              	.L14:
 379:Middlewares/Third_Party/FatFs/src/option/ccsbcs.c **** 			}
 326              		.loc 1 379 12 is_stmt 1 view .LVU107
 379:Middlewares/Third_Party/FatFs/src/option/ccsbcs.c **** 			}
 327              		.loc 1 379 16 is_stmt 0 view .LVU108
 328 008a A0F5E350 		sub	r0, r0, #7264
 329              	.LVL42:
 379:Middlewares/Third_Party/FatFs/src/option/ccsbcs.c **** 			}
 330              		.loc 1 379 16 view .LVU109
 331 008e 80B2     		uxth	r0, r0
 332              	.LVL43:
 379:Middlewares/Third_Party/FatFs/src/option/ccsbcs.c **** 			}
 333              		.loc 1 379 27 is_stmt 1 view .LVU110
 379:Middlewares/Third_Party/FatFs/src/option/ccsbcs.c **** 			}
 334              		.loc 1 379 4 is_stmt 0 view .LVU111
 335 0090 E2E7     		b	.L12
 336              	.LVL44:
 337              	.L30:
 338              	.LCFI3:
 339              		.cfi_def_cfa_offset 0
 340              		.cfi_restore 4
 341              		.cfi_restore 14
 386:Middlewares/Third_Party/FatFs/src/option/ccsbcs.c **** }
 342              		.loc 1 386 2 is_stmt 1 view .LVU112
 343              		.loc 1 387 1 is_stmt 0 view .LVU113
 344 0092 7047     		bx	lr
 345              	.L36:
 346              		.align	2
 347              	.L35:
 348 0094 00000000 		.word	.LANCHOR2
 349 0098 00000000 		.word	.LANCHOR1
 350              		.cfi_endproc
 351              	.LFE131:
 353              		.section	.rodata.Tbl,"a"
 354              		.align	2
 355              		.set	.LANCHOR0,. + 0
ARM GAS  C:\Users\samue\AppData\Local\Temp\ccF9zurf.s 			page 15


 358              	Tbl:
 359 0000 C700     		.short	199
 360 0002 FC00     		.short	252
 361 0004 E900     		.short	233
 362 0006 E200     		.short	226
 363 0008 E400     		.short	228
 364 000a E000     		.short	224
 365 000c E500     		.short	229
 366 000e E700     		.short	231
 367 0010 EA00     		.short	234
 368 0012 EB00     		.short	235
 369 0014 E800     		.short	232
 370 0016 EF00     		.short	239
 371 0018 EE00     		.short	238
 372 001a EC00     		.short	236
 373 001c C400     		.short	196
 374 001e C500     		.short	197
 375 0020 C900     		.short	201
 376 0022 E600     		.short	230
 377 0024 C600     		.short	198
 378 0026 F400     		.short	244
 379 0028 F600     		.short	246
 380 002a F200     		.short	242
 381 002c FB00     		.short	251
 382 002e F900     		.short	249
 383 0030 FF00     		.short	255
 384 0032 D600     		.short	214
 385 0034 DC00     		.short	220
 386 0036 F800     		.short	248
 387 0038 A300     		.short	163
 388 003a D800     		.short	216
 389 003c D700     		.short	215
 390 003e 9201     		.short	402
 391 0040 E100     		.short	225
 392 0042 ED00     		.short	237
 393 0044 F300     		.short	243
 394 0046 FA00     		.short	250
 395 0048 F100     		.short	241
 396 004a D100     		.short	209
 397 004c AA00     		.short	170
 398 004e BA00     		.short	186
 399 0050 BF00     		.short	191
 400 0052 AE00     		.short	174
 401 0054 AC00     		.short	172
 402 0056 BD00     		.short	189
 403 0058 BC00     		.short	188
 404 005a A100     		.short	161
 405 005c AB00     		.short	171
 406 005e BB00     		.short	187
 407 0060 9125     		.short	9617
 408 0062 9225     		.short	9618
 409 0064 9325     		.short	9619
 410 0066 0225     		.short	9474
 411 0068 2425     		.short	9508
 412 006a C100     		.short	193
 413 006c C200     		.short	194
 414 006e C000     		.short	192
ARM GAS  C:\Users\samue\AppData\Local\Temp\ccF9zurf.s 			page 16


 415 0070 A900     		.short	169
 416 0072 6325     		.short	9571
 417 0074 5125     		.short	9553
 418 0076 5725     		.short	9559
 419 0078 5D25     		.short	9565
 420 007a A200     		.short	162
 421 007c A500     		.short	165
 422 007e 1025     		.short	9488
 423 0080 1425     		.short	9492
 424 0082 3425     		.short	9524
 425 0084 2C25     		.short	9516
 426 0086 1C25     		.short	9500
 427 0088 0025     		.short	9472
 428 008a 3C25     		.short	9532
 429 008c E300     		.short	227
 430 008e C300     		.short	195
 431 0090 5A25     		.short	9562
 432 0092 5425     		.short	9556
 433 0094 6925     		.short	9577
 434 0096 6625     		.short	9574
 435 0098 6025     		.short	9568
 436 009a 5025     		.short	9552
 437 009c 6C25     		.short	9580
 438 009e A400     		.short	164
 439 00a0 F000     		.short	240
 440 00a2 D000     		.short	208
 441 00a4 CA00     		.short	202
 442 00a6 CB00     		.short	203
 443 00a8 C800     		.short	200
 444 00aa 3101     		.short	305
 445 00ac CD00     		.short	205
 446 00ae CE00     		.short	206
 447 00b0 CF00     		.short	207
 448 00b2 1825     		.short	9496
 449 00b4 0C25     		.short	9484
 450 00b6 8825     		.short	9608
 451 00b8 8425     		.short	9604
 452 00ba A600     		.short	166
 453 00bc CC00     		.short	204
 454 00be 8025     		.short	9600
 455 00c0 D300     		.short	211
 456 00c2 DF00     		.short	223
 457 00c4 D400     		.short	212
 458 00c6 D200     		.short	210
 459 00c8 F500     		.short	245
 460 00ca D500     		.short	213
 461 00cc B500     		.short	181
 462 00ce FE00     		.short	254
 463 00d0 DE00     		.short	222
 464 00d2 DA00     		.short	218
 465 00d4 DB00     		.short	219
 466 00d6 D900     		.short	217
 467 00d8 FD00     		.short	253
 468 00da DD00     		.short	221
 469 00dc AF00     		.short	175
 470 00de B400     		.short	180
 471 00e0 AD00     		.short	173
ARM GAS  C:\Users\samue\AppData\Local\Temp\ccF9zurf.s 			page 17


 472 00e2 B100     		.short	177
 473 00e4 1720     		.short	8215
 474 00e6 BE00     		.short	190
 475 00e8 B600     		.short	182
 476 00ea A700     		.short	167
 477 00ec F700     		.short	247
 478 00ee B800     		.short	184
 479 00f0 B000     		.short	176
 480 00f2 A800     		.short	168
 481 00f4 B700     		.short	183
 482 00f6 B900     		.short	185
 483 00f8 B300     		.short	179
 484 00fa B200     		.short	178
 485 00fc A025     		.short	9632
 486 00fe A000     		.short	160
 487              		.section	.rodata.cvt1.1,"a"
 488              		.align	2
 489              		.set	.LANCHOR2,. + 0
 492              	cvt1.1:
 493 0000 6100     		.short	97
 494 0002 1A03     		.short	794
 495 0004 E000     		.short	224
 496 0006 1703     		.short	791
 497 0008 F800     		.short	248
 498 000a 0703     		.short	775
 499 000c FF00     		.short	255
 500 000e 0100     		.short	1
 501 0010 7801     		.short	376
 502 0012 0001     		.short	256
 503 0014 3001     		.short	304
 504 0016 3201     		.short	306
 505 0018 0601     		.short	262
 506 001a 3901     		.short	313
 507 001c 1001     		.short	272
 508 001e 4A01     		.short	330
 509 0020 2E01     		.short	302
 510 0022 7901     		.short	377
 511 0024 0601     		.short	262
 512 0026 8001     		.short	384
 513 0028 4D00     		.short	77
 514 002a 4302     		.short	579
 515 002c 8101     		.short	385
 516 002e 8201     		.short	386
 517 0030 8201     		.short	386
 518 0032 8401     		.short	388
 519 0034 8401     		.short	388
 520 0036 8601     		.short	390
 521 0038 8701     		.short	391
 522 003a 8701     		.short	391
 523 003c 8901     		.short	393
 524 003e 8A01     		.short	394
 525 0040 8B01     		.short	395
 526 0042 8B01     		.short	395
 527 0044 8D01     		.short	397
 528 0046 8E01     		.short	398
 529 0048 8F01     		.short	399
 530 004a 9001     		.short	400
ARM GAS  C:\Users\samue\AppData\Local\Temp\ccF9zurf.s 			page 18


 531 004c 9101     		.short	401
 532 004e 9101     		.short	401
 533 0050 9301     		.short	403
 534 0052 9401     		.short	404
 535 0054 F601     		.short	502
 536 0056 9601     		.short	406
 537 0058 9701     		.short	407
 538 005a 9801     		.short	408
 539 005c 9801     		.short	408
 540 005e 3D02     		.short	573
 541 0060 9B01     		.short	411
 542 0062 9C01     		.short	412
 543 0064 9D01     		.short	413
 544 0066 2002     		.short	544
 545 0068 9F01     		.short	415
 546 006a A001     		.short	416
 547 006c A001     		.short	416
 548 006e A201     		.short	418
 549 0070 A201     		.short	418
 550 0072 A401     		.short	420
 551 0074 A401     		.short	420
 552 0076 A601     		.short	422
 553 0078 A701     		.short	423
 554 007a A701     		.short	423
 555 007c A901     		.short	425
 556 007e AA01     		.short	426
 557 0080 AB01     		.short	427
 558 0082 AC01     		.short	428
 559 0084 AC01     		.short	428
 560 0086 AE01     		.short	430
 561 0088 AF01     		.short	431
 562 008a AF01     		.short	431
 563 008c B101     		.short	433
 564 008e B201     		.short	434
 565 0090 B301     		.short	435
 566 0092 B301     		.short	435
 567 0094 B501     		.short	437
 568 0096 B501     		.short	437
 569 0098 B701     		.short	439
 570 009a B801     		.short	440
 571 009c B801     		.short	440
 572 009e BA01     		.short	442
 573 00a0 BB01     		.short	443
 574 00a2 BC01     		.short	444
 575 00a4 BC01     		.short	444
 576 00a6 BE01     		.short	446
 577 00a8 F701     		.short	503
 578 00aa C001     		.short	448
 579 00ac C101     		.short	449
 580 00ae C201     		.short	450
 581 00b0 C301     		.short	451
 582 00b2 C401     		.short	452
 583 00b4 C501     		.short	453
 584 00b6 C401     		.short	452
 585 00b8 C701     		.short	455
 586 00ba C801     		.short	456
 587 00bc C701     		.short	455
ARM GAS  C:\Users\samue\AppData\Local\Temp\ccF9zurf.s 			page 19


 588 00be CA01     		.short	458
 589 00c0 CB01     		.short	459
 590 00c2 CA01     		.short	458
 591 00c4 CD01     		.short	461
 592 00c6 1001     		.short	272
 593 00c8 DD01     		.short	477
 594 00ca 0100     		.short	1
 595 00cc 8E01     		.short	398
 596 00ce DE01     		.short	478
 597 00d0 1201     		.short	274
 598 00d2 F301     		.short	499
 599 00d4 0300     		.short	3
 600 00d6 F101     		.short	497
 601 00d8 F401     		.short	500
 602 00da F401     		.short	500
 603 00dc F801     		.short	504
 604 00de 2801     		.short	296
 605 00e0 2202     		.short	546
 606 00e2 1201     		.short	274
 607 00e4 3A02     		.short	570
 608 00e6 0900     		.short	9
 609 00e8 652C     		.short	11365
 610 00ea 3B02     		.short	571
 611 00ec 3B02     		.short	571
 612 00ee 3D02     		.short	573
 613 00f0 662C     		.short	11366
 614 00f2 3F02     		.short	575
 615 00f4 4002     		.short	576
 616 00f6 4102     		.short	577
 617 00f8 4102     		.short	577
 618 00fa 4602     		.short	582
 619 00fc 0A01     		.short	266
 620 00fe 5302     		.short	595
 621 0100 4000     		.short	64
 622 0102 8101     		.short	385
 623 0104 8601     		.short	390
 624 0106 5502     		.short	597
 625 0108 8901     		.short	393
 626 010a 8A01     		.short	394
 627 010c 5802     		.short	600
 628 010e 8F01     		.short	399
 629 0110 5A02     		.short	602
 630 0112 9001     		.short	400
 631 0114 5C02     		.short	604
 632 0116 5D02     		.short	605
 633 0118 5E02     		.short	606
 634 011a 5F02     		.short	607
 635 011c 9301     		.short	403
 636 011e 6102     		.short	609
 637 0120 6202     		.short	610
 638 0122 9401     		.short	404
 639 0124 6402     		.short	612
 640 0126 6502     		.short	613
 641 0128 6602     		.short	614
 642 012a 6702     		.short	615
 643 012c 9701     		.short	407
 644 012e 9601     		.short	406
ARM GAS  C:\Users\samue\AppData\Local\Temp\ccF9zurf.s 			page 20


 645 0130 6A02     		.short	618
 646 0132 622C     		.short	11362
 647 0134 6C02     		.short	620
 648 0136 6D02     		.short	621
 649 0138 6E02     		.short	622
 650 013a 9C01     		.short	412
 651 013c 7002     		.short	624
 652 013e 7102     		.short	625
 653 0140 9D01     		.short	413
 654 0142 7302     		.short	627
 655 0144 7402     		.short	628
 656 0146 9F01     		.short	415
 657 0148 7602     		.short	630
 658 014a 7702     		.short	631
 659 014c 7802     		.short	632
 660 014e 7902     		.short	633
 661 0150 7A02     		.short	634
 662 0152 7B02     		.short	635
 663 0154 7C02     		.short	636
 664 0156 642C     		.short	11364
 665 0158 7E02     		.short	638
 666 015a 7F02     		.short	639
 667 015c A601     		.short	422
 668 015e 8102     		.short	641
 669 0160 8202     		.short	642
 670 0162 A901     		.short	425
 671 0164 8402     		.short	644
 672 0166 8502     		.short	645
 673 0168 8602     		.short	646
 674 016a 8702     		.short	647
 675 016c AE01     		.short	430
 676 016e 4402     		.short	580
 677 0170 B101     		.short	433
 678 0172 B201     		.short	434
 679 0174 4502     		.short	581
 680 0176 8D02     		.short	653
 681 0178 8E02     		.short	654
 682 017a 8F02     		.short	655
 683 017c 9002     		.short	656
 684 017e 9102     		.short	657
 685 0180 B701     		.short	439
 686 0182 7B03     		.short	891
 687 0184 0300     		.short	3
 688 0186 FD03     		.short	1021
 689 0188 FE03     		.short	1022
 690 018a FF03     		.short	1023
 691 018c AC03     		.short	940
 692 018e 0400     		.short	4
 693 0190 8603     		.short	902
 694 0192 8803     		.short	904
 695 0194 8903     		.short	905
 696 0196 8A03     		.short	906
 697 0198 B103     		.short	945
 698 019a 1103     		.short	785
 699 019c C203     		.short	962
 700 019e 0200     		.short	2
 701 01a0 A303     		.short	931
ARM GAS  C:\Users\samue\AppData\Local\Temp\ccF9zurf.s 			page 21


 702 01a2 A303     		.short	931
 703 01a4 C403     		.short	964
 704 01a6 0803     		.short	776
 705 01a8 CC03     		.short	972
 706 01aa 0300     		.short	3
 707 01ac 8C03     		.short	908
 708 01ae 8E03     		.short	910
 709 01b0 8F03     		.short	911
 710 01b2 D803     		.short	984
 711 01b4 1801     		.short	280
 712 01b6 F203     		.short	1010
 713 01b8 0A00     		.short	10
 714 01ba F903     		.short	1017
 715 01bc F303     		.short	1011
 716 01be F403     		.short	1012
 717 01c0 F503     		.short	1013
 718 01c2 F603     		.short	1014
 719 01c4 F703     		.short	1015
 720 01c6 F703     		.short	1015
 721 01c8 F903     		.short	1017
 722 01ca FA03     		.short	1018
 723 01cc FA03     		.short	1018
 724 01ce 3004     		.short	1072
 725 01d0 2003     		.short	800
 726 01d2 5004     		.short	1104
 727 01d4 1007     		.short	1808
 728 01d6 6004     		.short	1120
 729 01d8 2201     		.short	290
 730 01da 8A04     		.short	1162
 731 01dc 3601     		.short	310
 732 01de C104     		.short	1217
 733 01e0 0E01     		.short	270
 734 01e2 CF04     		.short	1231
 735 01e4 0100     		.short	1
 736 01e6 C004     		.short	1216
 737 01e8 D004     		.short	1232
 738 01ea 4401     		.short	324
 739 01ec 6105     		.short	1377
 740 01ee 2604     		.short	1062
 741 01f0 0000     		.short	0
 742              		.section	.rodata.cvt2.0,"a"
 743              		.align	2
 744              		.set	.LANCHOR1,. + 0
 747              	cvt2.0:
 748 0000 7D1D     		.short	7549
 749 0002 0100     		.short	1
 750 0004 632C     		.short	11363
 751 0006 001E     		.short	7680
 752 0008 9601     		.short	406
 753 000a A01E     		.short	7840
 754 000c 5A01     		.short	346
 755 000e 001F     		.short	7936
 756 0010 0806     		.short	1544
 757 0012 101F     		.short	7952
 758 0014 0606     		.short	1542
 759 0016 201F     		.short	7968
 760 0018 0806     		.short	1544
ARM GAS  C:\Users\samue\AppData\Local\Temp\ccF9zurf.s 			page 22


 761 001a 301F     		.short	7984
 762 001c 0806     		.short	1544
 763 001e 401F     		.short	8000
 764 0020 0606     		.short	1542
 765 0022 511F     		.short	8017
 766 0024 0700     		.short	7
 767 0026 591F     		.short	8025
 768 0028 521F     		.short	8018
 769 002a 5B1F     		.short	8027
 770 002c 541F     		.short	8020
 771 002e 5D1F     		.short	8029
 772 0030 561F     		.short	8022
 773 0032 5F1F     		.short	8031
 774 0034 601F     		.short	8032
 775 0036 0806     		.short	1544
 776 0038 701F     		.short	8048
 777 003a 0E00     		.short	14
 778 003c BA1F     		.short	8122
 779 003e BB1F     		.short	8123
 780 0040 C81F     		.short	8136
 781 0042 C91F     		.short	8137
 782 0044 CA1F     		.short	8138
 783 0046 CB1F     		.short	8139
 784 0048 DA1F     		.short	8154
 785 004a DB1F     		.short	8155
 786 004c F81F     		.short	8184
 787 004e F91F     		.short	8185
 788 0050 EA1F     		.short	8170
 789 0052 EB1F     		.short	8171
 790 0054 FA1F     		.short	8186
 791 0056 FB1F     		.short	8187
 792 0058 801F     		.short	8064
 793 005a 0806     		.short	1544
 794 005c 901F     		.short	8080
 795 005e 0806     		.short	1544
 796 0060 A01F     		.short	8096
 797 0062 0806     		.short	1544
 798 0064 B01F     		.short	8112
 799 0066 0400     		.short	4
 800 0068 B81F     		.short	8120
 801 006a B91F     		.short	8121
 802 006c B21F     		.short	8114
 803 006e BC1F     		.short	8124
 804 0070 CC1F     		.short	8140
 805 0072 0100     		.short	1
 806 0074 C31F     		.short	8131
 807 0076 D01F     		.short	8144
 808 0078 0206     		.short	1538
 809 007a E01F     		.short	8160
 810 007c 0206     		.short	1538
 811 007e E51F     		.short	8165
 812 0080 0100     		.short	1
 813 0082 EC1F     		.short	8172
 814 0084 F21F     		.short	8178
 815 0086 0100     		.short	1
 816 0088 FC1F     		.short	8188
 817 008a 4E21     		.short	8526
ARM GAS  C:\Users\samue\AppData\Local\Temp\ccF9zurf.s 			page 23


 818 008c 0100     		.short	1
 819 008e 3221     		.short	8498
 820 0090 7021     		.short	8560
 821 0092 1002     		.short	528
 822 0094 8421     		.short	8580
 823 0096 0100     		.short	1
 824 0098 8321     		.short	8579
 825 009a D024     		.short	9424
 826 009c 1A05     		.short	1306
 827 009e 302C     		.short	11312
 828 00a0 2F04     		.short	1071
 829 00a2 602C     		.short	11360
 830 00a4 0201     		.short	258
 831 00a6 672C     		.short	11367
 832 00a8 0601     		.short	262
 833 00aa 752C     		.short	11381
 834 00ac 0201     		.short	258
 835 00ae 802C     		.short	11392
 836 00b0 6401     		.short	356
 837 00b2 002D     		.short	11520
 838 00b4 2608     		.short	2086
 839 00b6 41FF     		.short	-191
 840 00b8 1A03     		.short	794
 841 00ba 0000     		.short	0
 842              		.text
 843              	.Letext0:
 844              		.file 2 "Middlewares/Third_Party/FatFs/src/option/../integer.h"
ARM GAS  C:\Users\samue\AppData\Local\Temp\ccF9zurf.s 			page 24

