ARM GAS  C:\Users\samue\AppData\Local\Temp\ccYpbNyc.s 			page 1


   1              		.cpu cortex-m4
   2              		.arch armv7e-m
   3              		.fpu fpv4-sp-d16
   4              		.eabi_attribute 27, 1
   5              		.eabi_attribute 28, 1
   6              		.eabi_attribute 20, 1
   7              		.eabi_attribute 21, 1
   8              		.eabi_attribute 23, 3
   9              		.eabi_attribute 24, 1
  10              		.eabi_attribute 25, 1
  11              		.eabi_attribute 26, 1
  12              		.eabi_attribute 30, 1
  13              		.eabi_attribute 34, 1
  14              		.eabi_attribute 18, 4
  15              		.file	"fatfs_sd.c"
  16              		.text
  17              	.Ltext0:
  18              		.cfi_sections	.debug_frame
  19              		.section	.text.SD_PowerOff,"ax",%progbits
  20              		.align	1
  21              		.syntax unified
  22              		.thumb
  23              		.thumb_func
  25              	SD_PowerOff:
  26              	.LFB138:
  27              		.file 1 "Core/Src/fatfs_sd.c"
   1:Core/Src/fatfs_sd.c **** #define TRUE  1
   2:Core/Src/fatfs_sd.c **** #define FALSE 0
   3:Core/Src/fatfs_sd.c **** #define bool BYTE
   4:Core/Src/fatfs_sd.c **** 
   5:Core/Src/fatfs_sd.c **** #include "stm32f4xx_hal.h"
   6:Core/Src/fatfs_sd.c **** #include "diskio.h"
   7:Core/Src/fatfs_sd.c **** #include "fatfs_sd.h"
   8:Core/Src/fatfs_sd.c **** 
   9:Core/Src/fatfs_sd.c **** 
  10:Core/Src/fatfs_sd.c **** extern SPI_HandleTypeDef 	hspi2;
  11:Core/Src/fatfs_sd.c **** #define HSPI_SDCARD		 	&hspi2
  12:Core/Src/fatfs_sd.c **** #define	SD_CS_PORT			GPIOB
  13:Core/Src/fatfs_sd.c **** #define SD_CS_PIN			GPIO_PIN_13
  14:Core/Src/fatfs_sd.c **** 
  15:Core/Src/fatfs_sd.c **** extern volatile uint16_t Timer1, Timer2;					/* 1ms Timer Counter */
  16:Core/Src/fatfs_sd.c **** 
  17:Core/Src/fatfs_sd.c **** static volatile DSTATUS Stat = STA_NOINIT;	/* Disk Status */
  18:Core/Src/fatfs_sd.c **** static uint8_t CardType;                    /* Type 0:MMC, 1:SDC, 2:Block addressing */
  19:Core/Src/fatfs_sd.c **** static uint8_t PowerFlag = 0;				/* Power flag */
  20:Core/Src/fatfs_sd.c **** 
  21:Core/Src/fatfs_sd.c **** /***************************************
  22:Core/Src/fatfs_sd.c ****  * SPI functions
  23:Core/Src/fatfs_sd.c ****  **************************************/
  24:Core/Src/fatfs_sd.c **** 
  25:Core/Src/fatfs_sd.c **** /* slave select */
  26:Core/Src/fatfs_sd.c **** static void SELECT(void)
  27:Core/Src/fatfs_sd.c **** {
  28:Core/Src/fatfs_sd.c **** 	HAL_GPIO_WritePin(SD_CS_PORT, SD_CS_PIN, GPIO_PIN_RESET);
  29:Core/Src/fatfs_sd.c **** 	HAL_Delay(1);
  30:Core/Src/fatfs_sd.c **** }
  31:Core/Src/fatfs_sd.c **** 
ARM GAS  C:\Users\samue\AppData\Local\Temp\ccYpbNyc.s 			page 2


  32:Core/Src/fatfs_sd.c **** /* slave deselect */
  33:Core/Src/fatfs_sd.c **** static void DESELECT(void)
  34:Core/Src/fatfs_sd.c **** {
  35:Core/Src/fatfs_sd.c **** 	HAL_GPIO_WritePin(SD_CS_PORT, SD_CS_PIN, GPIO_PIN_SET);
  36:Core/Src/fatfs_sd.c **** 	HAL_Delay(1);
  37:Core/Src/fatfs_sd.c **** }
  38:Core/Src/fatfs_sd.c **** 
  39:Core/Src/fatfs_sd.c **** /* SPI transmit a byte */
  40:Core/Src/fatfs_sd.c **** static void SPI_TxByte(uint8_t data)
  41:Core/Src/fatfs_sd.c **** {
  42:Core/Src/fatfs_sd.c **** 	while(!__HAL_SPI_GET_FLAG(HSPI_SDCARD, SPI_FLAG_TXE));
  43:Core/Src/fatfs_sd.c **** 	HAL_SPI_Transmit(HSPI_SDCARD, &data, 1, SPI_TIMEOUT);
  44:Core/Src/fatfs_sd.c **** }
  45:Core/Src/fatfs_sd.c **** 
  46:Core/Src/fatfs_sd.c **** /* SPI transmit buffer */
  47:Core/Src/fatfs_sd.c **** static void SPI_TxBuffer(uint8_t *buffer, uint16_t len)
  48:Core/Src/fatfs_sd.c **** {
  49:Core/Src/fatfs_sd.c **** 	while(!__HAL_SPI_GET_FLAG(HSPI_SDCARD, SPI_FLAG_TXE));
  50:Core/Src/fatfs_sd.c **** 	HAL_SPI_Transmit(HSPI_SDCARD, buffer, len, SPI_TIMEOUT);
  51:Core/Src/fatfs_sd.c **** }
  52:Core/Src/fatfs_sd.c **** 
  53:Core/Src/fatfs_sd.c **** /* SPI receive a byte */
  54:Core/Src/fatfs_sd.c **** static uint8_t SPI_RxByte(void)
  55:Core/Src/fatfs_sd.c **** {
  56:Core/Src/fatfs_sd.c **** 	uint8_t dummy, data;
  57:Core/Src/fatfs_sd.c **** 	dummy = 0xFF;
  58:Core/Src/fatfs_sd.c **** 
  59:Core/Src/fatfs_sd.c **** 	while(!__HAL_SPI_GET_FLAG(HSPI_SDCARD, SPI_FLAG_TXE));
  60:Core/Src/fatfs_sd.c **** 	HAL_SPI_TransmitReceive(HSPI_SDCARD, &dummy, &data, 1, SPI_TIMEOUT);
  61:Core/Src/fatfs_sd.c **** 
  62:Core/Src/fatfs_sd.c **** 	return data;
  63:Core/Src/fatfs_sd.c **** }
  64:Core/Src/fatfs_sd.c **** 
  65:Core/Src/fatfs_sd.c **** /* SPI receive a byte via pointer */
  66:Core/Src/fatfs_sd.c **** static void SPI_RxBytePtr(uint8_t *buff) 
  67:Core/Src/fatfs_sd.c **** {
  68:Core/Src/fatfs_sd.c **** 	*buff = SPI_RxByte();
  69:Core/Src/fatfs_sd.c **** }
  70:Core/Src/fatfs_sd.c **** 
  71:Core/Src/fatfs_sd.c **** /***************************************
  72:Core/Src/fatfs_sd.c ****  * SD functions
  73:Core/Src/fatfs_sd.c ****  **************************************/
  74:Core/Src/fatfs_sd.c **** 
  75:Core/Src/fatfs_sd.c **** /* wait SD ready */
  76:Core/Src/fatfs_sd.c **** static uint8_t SD_ReadyWait(void)
  77:Core/Src/fatfs_sd.c **** {
  78:Core/Src/fatfs_sd.c **** 	uint8_t res;
  79:Core/Src/fatfs_sd.c **** 
  80:Core/Src/fatfs_sd.c **** 	/* timeout 500ms */
  81:Core/Src/fatfs_sd.c **** 	Timer2 = 500;
  82:Core/Src/fatfs_sd.c **** 
  83:Core/Src/fatfs_sd.c **** 	/* if SD goes ready, receives 0xFF */
  84:Core/Src/fatfs_sd.c **** 	do {
  85:Core/Src/fatfs_sd.c **** 		res = SPI_RxByte();
  86:Core/Src/fatfs_sd.c **** 	} while ((res != 0xFF) && Timer2);
  87:Core/Src/fatfs_sd.c **** 
  88:Core/Src/fatfs_sd.c **** 	return res;
ARM GAS  C:\Users\samue\AppData\Local\Temp\ccYpbNyc.s 			page 3


  89:Core/Src/fatfs_sd.c **** }
  90:Core/Src/fatfs_sd.c **** 
  91:Core/Src/fatfs_sd.c **** /* power on */
  92:Core/Src/fatfs_sd.c **** static void SD_PowerOn(void) 
  93:Core/Src/fatfs_sd.c **** {
  94:Core/Src/fatfs_sd.c **** 	uint8_t args[6];
  95:Core/Src/fatfs_sd.c **** 	uint32_t cnt = 0x1FFF;
  96:Core/Src/fatfs_sd.c **** 
  97:Core/Src/fatfs_sd.c **** 	/* transmit bytes to wake up */
  98:Core/Src/fatfs_sd.c **** 	DESELECT();
  99:Core/Src/fatfs_sd.c **** 	for(int i = 0; i < 10; i++)
 100:Core/Src/fatfs_sd.c **** 	{
 101:Core/Src/fatfs_sd.c **** 		SPI_TxByte(0xFF);
 102:Core/Src/fatfs_sd.c **** 	}
 103:Core/Src/fatfs_sd.c **** 
 104:Core/Src/fatfs_sd.c **** 	/* slave select */
 105:Core/Src/fatfs_sd.c **** 	SELECT();
 106:Core/Src/fatfs_sd.c **** 
 107:Core/Src/fatfs_sd.c **** 	/* make idle state */
 108:Core/Src/fatfs_sd.c **** 	args[0] = CMD0;		/* CMD0:GO_IDLE_STATE */
 109:Core/Src/fatfs_sd.c **** 	args[1] = 0;
 110:Core/Src/fatfs_sd.c **** 	args[2] = 0;
 111:Core/Src/fatfs_sd.c **** 	args[3] = 0;
 112:Core/Src/fatfs_sd.c **** 	args[4] = 0;
 113:Core/Src/fatfs_sd.c **** 	args[5] = 0x95;		/* CRC */
 114:Core/Src/fatfs_sd.c **** 
 115:Core/Src/fatfs_sd.c **** 	SPI_TxBuffer(args, sizeof(args));
 116:Core/Src/fatfs_sd.c **** 
 117:Core/Src/fatfs_sd.c **** 	/* wait response */
 118:Core/Src/fatfs_sd.c **** 	while ((SPI_RxByte() != 0x01) && cnt)
 119:Core/Src/fatfs_sd.c **** 	{
 120:Core/Src/fatfs_sd.c **** 		cnt--;
 121:Core/Src/fatfs_sd.c **** 	}
 122:Core/Src/fatfs_sd.c **** 
 123:Core/Src/fatfs_sd.c **** 	DESELECT();
 124:Core/Src/fatfs_sd.c **** 	SPI_TxByte(0XFF);
 125:Core/Src/fatfs_sd.c **** 
 126:Core/Src/fatfs_sd.c **** 	PowerFlag = 1;
 127:Core/Src/fatfs_sd.c **** }
 128:Core/Src/fatfs_sd.c **** 
 129:Core/Src/fatfs_sd.c **** /* power off */
 130:Core/Src/fatfs_sd.c **** static void SD_PowerOff(void) 
 131:Core/Src/fatfs_sd.c **** {
  28              		.loc 1 131 1 view -0
  29              		.cfi_startproc
  30              		@ args = 0, pretend = 0, frame = 0
  31              		@ frame_needed = 0, uses_anonymous_args = 0
  32              		@ link register save eliminated.
 132:Core/Src/fatfs_sd.c **** 	PowerFlag = 0;
  33              		.loc 1 132 2 view .LVU1
  34              		.loc 1 132 12 is_stmt 0 view .LVU2
  35 0000 014B     		ldr	r3, .L2
  36 0002 0022     		movs	r2, #0
  37 0004 1A70     		strb	r2, [r3]
 133:Core/Src/fatfs_sd.c **** }
  38              		.loc 1 133 1 view .LVU3
  39 0006 7047     		bx	lr
ARM GAS  C:\Users\samue\AppData\Local\Temp\ccYpbNyc.s 			page 4


  40              	.L3:
  41              		.align	2
  42              	.L2:
  43 0008 00000000 		.word	.LANCHOR0
  44              		.cfi_endproc
  45              	.LFE138:
  47              		.section	.text.SD_CheckPower,"ax",%progbits
  48              		.align	1
  49              		.syntax unified
  50              		.thumb
  51              		.thumb_func
  53              	SD_CheckPower:
  54              	.LFB139:
 134:Core/Src/fatfs_sd.c **** 
 135:Core/Src/fatfs_sd.c **** /* check power flag */
 136:Core/Src/fatfs_sd.c **** static uint8_t SD_CheckPower(void) 
 137:Core/Src/fatfs_sd.c **** {
  55              		.loc 1 137 1 is_stmt 1 view -0
  56              		.cfi_startproc
  57              		@ args = 0, pretend = 0, frame = 0
  58              		@ frame_needed = 0, uses_anonymous_args = 0
  59              		@ link register save eliminated.
 138:Core/Src/fatfs_sd.c **** 	return PowerFlag;
  60              		.loc 1 138 2 view .LVU5
 139:Core/Src/fatfs_sd.c **** }
  61              		.loc 1 139 1 is_stmt 0 view .LVU6
  62 0000 014B     		ldr	r3, .L5
  63 0002 1878     		ldrb	r0, [r3]	@ zero_extendqisi2
  64 0004 7047     		bx	lr
  65              	.L6:
  66 0006 00BF     		.align	2
  67              	.L5:
  68 0008 00000000 		.word	.LANCHOR0
  69              		.cfi_endproc
  70              	.LFE139:
  72              		.section	.text.SPI_TxBuffer,"ax",%progbits
  73              		.align	1
  74              		.syntax unified
  75              		.thumb
  76              		.thumb_func
  78              	SPI_TxBuffer:
  79              	.LVL0:
  80              	.LFB133:
  48:Core/Src/fatfs_sd.c **** 	while(!__HAL_SPI_GET_FLAG(HSPI_SDCARD, SPI_FLAG_TXE));
  81              		.loc 1 48 1 is_stmt 1 view -0
  82              		.cfi_startproc
  83              		@ args = 0, pretend = 0, frame = 0
  84              		@ frame_needed = 0, uses_anonymous_args = 0
  48:Core/Src/fatfs_sd.c **** 	while(!__HAL_SPI_GET_FLAG(HSPI_SDCARD, SPI_FLAG_TXE));
  85              		.loc 1 48 1 is_stmt 0 view .LVU8
  86 0000 08B5     		push	{r3, lr}
  87              	.LCFI0:
  88              		.cfi_def_cfa_offset 8
  89              		.cfi_offset 3, -8
  90              		.cfi_offset 14, -4
  91 0002 0A46     		mov	r2, r1
  49:Core/Src/fatfs_sd.c **** 	HAL_SPI_Transmit(HSPI_SDCARD, buffer, len, SPI_TIMEOUT);
ARM GAS  C:\Users\samue\AppData\Local\Temp\ccYpbNyc.s 			page 5


  92              		.loc 1 49 2 is_stmt 1 view .LVU9
  93              	.L8:
  49:Core/Src/fatfs_sd.c **** 	HAL_SPI_Transmit(HSPI_SDCARD, buffer, len, SPI_TIMEOUT);
  94              		.loc 1 49 55 discriminator 1 view .LVU10
  49:Core/Src/fatfs_sd.c **** 	HAL_SPI_Transmit(HSPI_SDCARD, buffer, len, SPI_TIMEOUT);
  95              		.loc 1 49 7 discriminator 1 view .LVU11
  49:Core/Src/fatfs_sd.c **** 	HAL_SPI_Transmit(HSPI_SDCARD, buffer, len, SPI_TIMEOUT);
  96              		.loc 1 49 9 is_stmt 0 discriminator 1 view .LVU12
  97 0004 054B     		ldr	r3, .L10
  98 0006 1B68     		ldr	r3, [r3]
  99 0008 9B68     		ldr	r3, [r3, #8]
  49:Core/Src/fatfs_sd.c **** 	HAL_SPI_Transmit(HSPI_SDCARD, buffer, len, SPI_TIMEOUT);
 100              		.loc 1 49 7 discriminator 1 view .LVU13
 101 000a 13F0020F 		tst	r3, #2
 102 000e F9D0     		beq	.L8
  50:Core/Src/fatfs_sd.c **** }
 103              		.loc 1 50 2 is_stmt 1 view .LVU14
 104 0010 6423     		movs	r3, #100
 105 0012 0146     		mov	r1, r0
 106              	.LVL1:
  50:Core/Src/fatfs_sd.c **** }
 107              		.loc 1 50 2 is_stmt 0 view .LVU15
 108 0014 0148     		ldr	r0, .L10
 109              	.LVL2:
  50:Core/Src/fatfs_sd.c **** }
 110              		.loc 1 50 2 view .LVU16
 111 0016 FFF7FEFF 		bl	HAL_SPI_Transmit
 112              	.LVL3:
  51:Core/Src/fatfs_sd.c **** 
 113              		.loc 1 51 1 view .LVU17
 114 001a 08BD     		pop	{r3, pc}
 115              	.L11:
 116              		.align	2
 117              	.L10:
 118 001c 00000000 		.word	hspi2
 119              		.cfi_endproc
 120              	.LFE133:
 122              		.section	.text.SPI_TxByte,"ax",%progbits
 123              		.align	1
 124              		.syntax unified
 125              		.thumb
 126              		.thumb_func
 128              	SPI_TxByte:
 129              	.LVL4:
 130              	.LFB132:
  41:Core/Src/fatfs_sd.c **** 	while(!__HAL_SPI_GET_FLAG(HSPI_SDCARD, SPI_FLAG_TXE));
 131              		.loc 1 41 1 is_stmt 1 view -0
 132              		.cfi_startproc
 133              		@ args = 0, pretend = 0, frame = 8
 134              		@ frame_needed = 0, uses_anonymous_args = 0
  41:Core/Src/fatfs_sd.c **** 	while(!__HAL_SPI_GET_FLAG(HSPI_SDCARD, SPI_FLAG_TXE));
 135              		.loc 1 41 1 is_stmt 0 view .LVU19
 136 0000 00B5     		push	{lr}
 137              	.LCFI1:
 138              		.cfi_def_cfa_offset 4
 139              		.cfi_offset 14, -4
 140 0002 83B0     		sub	sp, sp, #12
ARM GAS  C:\Users\samue\AppData\Local\Temp\ccYpbNyc.s 			page 6


 141              	.LCFI2:
 142              		.cfi_def_cfa_offset 16
 143 0004 8DF80700 		strb	r0, [sp, #7]
  42:Core/Src/fatfs_sd.c **** 	HAL_SPI_Transmit(HSPI_SDCARD, &data, 1, SPI_TIMEOUT);
 144              		.loc 1 42 2 is_stmt 1 view .LVU20
 145              	.L13:
  42:Core/Src/fatfs_sd.c **** 	HAL_SPI_Transmit(HSPI_SDCARD, &data, 1, SPI_TIMEOUT);
 146              		.loc 1 42 55 discriminator 1 view .LVU21
  42:Core/Src/fatfs_sd.c **** 	HAL_SPI_Transmit(HSPI_SDCARD, &data, 1, SPI_TIMEOUT);
 147              		.loc 1 42 7 discriminator 1 view .LVU22
  42:Core/Src/fatfs_sd.c **** 	HAL_SPI_Transmit(HSPI_SDCARD, &data, 1, SPI_TIMEOUT);
 148              		.loc 1 42 9 is_stmt 0 discriminator 1 view .LVU23
 149 0008 074B     		ldr	r3, .L15
 150 000a 1B68     		ldr	r3, [r3]
 151 000c 9B68     		ldr	r3, [r3, #8]
  42:Core/Src/fatfs_sd.c **** 	HAL_SPI_Transmit(HSPI_SDCARD, &data, 1, SPI_TIMEOUT);
 152              		.loc 1 42 7 discriminator 1 view .LVU24
 153 000e 13F0020F 		tst	r3, #2
 154 0012 F9D0     		beq	.L13
  43:Core/Src/fatfs_sd.c **** }
 155              		.loc 1 43 2 is_stmt 1 view .LVU25
 156 0014 6423     		movs	r3, #100
 157 0016 0122     		movs	r2, #1
 158 0018 0DF10701 		add	r1, sp, #7
 159 001c 0248     		ldr	r0, .L15
 160              	.LVL5:
  43:Core/Src/fatfs_sd.c **** }
 161              		.loc 1 43 2 is_stmt 0 view .LVU26
 162 001e FFF7FEFF 		bl	HAL_SPI_Transmit
 163              	.LVL6:
  44:Core/Src/fatfs_sd.c **** 
 164              		.loc 1 44 1 view .LVU27
 165 0022 03B0     		add	sp, sp, #12
 166              	.LCFI3:
 167              		.cfi_def_cfa_offset 4
 168              		@ sp needed
 169 0024 5DF804FB 		ldr	pc, [sp], #4
 170              	.L16:
 171              		.align	2
 172              	.L15:
 173 0028 00000000 		.word	hspi2
 174              		.cfi_endproc
 175              	.LFE132:
 177              		.section	.text.SELECT,"ax",%progbits
 178              		.align	1
 179              		.syntax unified
 180              		.thumb
 181              		.thumb_func
 183              	SELECT:
 184              	.LFB130:
  27:Core/Src/fatfs_sd.c **** 	HAL_GPIO_WritePin(SD_CS_PORT, SD_CS_PIN, GPIO_PIN_RESET);
 185              		.loc 1 27 1 is_stmt 1 view -0
 186              		.cfi_startproc
 187              		@ args = 0, pretend = 0, frame = 0
 188              		@ frame_needed = 0, uses_anonymous_args = 0
 189 0000 08B5     		push	{r3, lr}
 190              	.LCFI4:
ARM GAS  C:\Users\samue\AppData\Local\Temp\ccYpbNyc.s 			page 7


 191              		.cfi_def_cfa_offset 8
 192              		.cfi_offset 3, -8
 193              		.cfi_offset 14, -4
  28:Core/Src/fatfs_sd.c **** 	HAL_Delay(1);
 194              		.loc 1 28 2 view .LVU29
 195 0002 0022     		movs	r2, #0
 196 0004 4FF40051 		mov	r1, #8192
 197 0008 0348     		ldr	r0, .L19
 198 000a FFF7FEFF 		bl	HAL_GPIO_WritePin
 199              	.LVL7:
  29:Core/Src/fatfs_sd.c **** }
 200              		.loc 1 29 2 view .LVU30
 201 000e 0120     		movs	r0, #1
 202 0010 FFF7FEFF 		bl	HAL_Delay
 203              	.LVL8:
  30:Core/Src/fatfs_sd.c **** 
 204              		.loc 1 30 1 is_stmt 0 view .LVU31
 205 0014 08BD     		pop	{r3, pc}
 206              	.L20:
 207 0016 00BF     		.align	2
 208              	.L19:
 209 0018 00040240 		.word	1073873920
 210              		.cfi_endproc
 211              	.LFE130:
 213              		.section	.text.DESELECT,"ax",%progbits
 214              		.align	1
 215              		.syntax unified
 216              		.thumb
 217              		.thumb_func
 219              	DESELECT:
 220              	.LFB131:
  34:Core/Src/fatfs_sd.c **** 	HAL_GPIO_WritePin(SD_CS_PORT, SD_CS_PIN, GPIO_PIN_SET);
 221              		.loc 1 34 1 is_stmt 1 view -0
 222              		.cfi_startproc
 223              		@ args = 0, pretend = 0, frame = 0
 224              		@ frame_needed = 0, uses_anonymous_args = 0
 225 0000 08B5     		push	{r3, lr}
 226              	.LCFI5:
 227              		.cfi_def_cfa_offset 8
 228              		.cfi_offset 3, -8
 229              		.cfi_offset 14, -4
  35:Core/Src/fatfs_sd.c **** 	HAL_Delay(1);
 230              		.loc 1 35 2 view .LVU33
 231 0002 0122     		movs	r2, #1
 232 0004 4FF40051 		mov	r1, #8192
 233 0008 0348     		ldr	r0, .L23
 234 000a FFF7FEFF 		bl	HAL_GPIO_WritePin
 235              	.LVL9:
  36:Core/Src/fatfs_sd.c **** }
 236              		.loc 1 36 2 view .LVU34
 237 000e 0120     		movs	r0, #1
 238 0010 FFF7FEFF 		bl	HAL_Delay
 239              	.LVL10:
  37:Core/Src/fatfs_sd.c **** 
 240              		.loc 1 37 1 is_stmt 0 view .LVU35
 241 0014 08BD     		pop	{r3, pc}
 242              	.L24:
ARM GAS  C:\Users\samue\AppData\Local\Temp\ccYpbNyc.s 			page 8


 243 0016 00BF     		.align	2
 244              	.L23:
 245 0018 00040240 		.word	1073873920
 246              		.cfi_endproc
 247              	.LFE131:
 249              		.section	.text.SPI_RxByte,"ax",%progbits
 250              		.align	1
 251              		.syntax unified
 252              		.thumb
 253              		.thumb_func
 255              	SPI_RxByte:
 256              	.LFB134:
  55:Core/Src/fatfs_sd.c **** 	uint8_t dummy, data;
 257              		.loc 1 55 1 is_stmt 1 view -0
 258              		.cfi_startproc
 259              		@ args = 0, pretend = 0, frame = 8
 260              		@ frame_needed = 0, uses_anonymous_args = 0
 261 0000 00B5     		push	{lr}
 262              	.LCFI6:
 263              		.cfi_def_cfa_offset 4
 264              		.cfi_offset 14, -4
 265 0002 85B0     		sub	sp, sp, #20
 266              	.LCFI7:
 267              		.cfi_def_cfa_offset 24
  56:Core/Src/fatfs_sd.c **** 	dummy = 0xFF;
 268              		.loc 1 56 2 view .LVU37
  57:Core/Src/fatfs_sd.c **** 
 269              		.loc 1 57 2 view .LVU38
  57:Core/Src/fatfs_sd.c **** 
 270              		.loc 1 57 8 is_stmt 0 view .LVU39
 271 0004 FF23     		movs	r3, #255
 272 0006 8DF80F30 		strb	r3, [sp, #15]
  59:Core/Src/fatfs_sd.c **** 	HAL_SPI_TransmitReceive(HSPI_SDCARD, &dummy, &data, 1, SPI_TIMEOUT);
 273              		.loc 1 59 2 is_stmt 1 view .LVU40
 274              	.L26:
  59:Core/Src/fatfs_sd.c **** 	HAL_SPI_TransmitReceive(HSPI_SDCARD, &dummy, &data, 1, SPI_TIMEOUT);
 275              		.loc 1 59 55 discriminator 1 view .LVU41
  59:Core/Src/fatfs_sd.c **** 	HAL_SPI_TransmitReceive(HSPI_SDCARD, &dummy, &data, 1, SPI_TIMEOUT);
 276              		.loc 1 59 7 discriminator 1 view .LVU42
  59:Core/Src/fatfs_sd.c **** 	HAL_SPI_TransmitReceive(HSPI_SDCARD, &dummy, &data, 1, SPI_TIMEOUT);
 277              		.loc 1 59 9 is_stmt 0 discriminator 1 view .LVU43
 278 000a 0A4B     		ldr	r3, .L28
 279 000c 1B68     		ldr	r3, [r3]
 280 000e 9B68     		ldr	r3, [r3, #8]
  59:Core/Src/fatfs_sd.c **** 	HAL_SPI_TransmitReceive(HSPI_SDCARD, &dummy, &data, 1, SPI_TIMEOUT);
 281              		.loc 1 59 7 discriminator 1 view .LVU44
 282 0010 13F0020F 		tst	r3, #2
 283 0014 F9D0     		beq	.L26
  60:Core/Src/fatfs_sd.c **** 
 284              		.loc 1 60 2 is_stmt 1 view .LVU45
 285 0016 6423     		movs	r3, #100
 286 0018 0093     		str	r3, [sp]
 287 001a 0123     		movs	r3, #1
 288 001c 0DF10E02 		add	r2, sp, #14
 289 0020 0DF10F01 		add	r1, sp, #15
 290 0024 0348     		ldr	r0, .L28
 291 0026 FFF7FEFF 		bl	HAL_SPI_TransmitReceive
ARM GAS  C:\Users\samue\AppData\Local\Temp\ccYpbNyc.s 			page 9


 292              	.LVL11:
  62:Core/Src/fatfs_sd.c **** }
 293              		.loc 1 62 2 view .LVU46
  63:Core/Src/fatfs_sd.c **** 
 294              		.loc 1 63 1 is_stmt 0 view .LVU47
 295 002a 9DF80E00 		ldrb	r0, [sp, #14]	@ zero_extendqisi2
 296 002e 05B0     		add	sp, sp, #20
 297              	.LCFI8:
 298              		.cfi_def_cfa_offset 4
 299              		@ sp needed
 300 0030 5DF804FB 		ldr	pc, [sp], #4
 301              	.L29:
 302              		.align	2
 303              	.L28:
 304 0034 00000000 		.word	hspi2
 305              		.cfi_endproc
 306              	.LFE134:
 308              		.section	.text.SD_PowerOn,"ax",%progbits
 309              		.align	1
 310              		.syntax unified
 311              		.thumb
 312              		.thumb_func
 314              	SD_PowerOn:
 315              	.LFB137:
  93:Core/Src/fatfs_sd.c **** 	uint8_t args[6];
 316              		.loc 1 93 1 is_stmt 1 view -0
 317              		.cfi_startproc
 318              		@ args = 0, pretend = 0, frame = 8
 319              		@ frame_needed = 0, uses_anonymous_args = 0
 320 0000 10B5     		push	{r4, lr}
 321              	.LCFI9:
 322              		.cfi_def_cfa_offset 8
 323              		.cfi_offset 4, -8
 324              		.cfi_offset 14, -4
 325 0002 82B0     		sub	sp, sp, #8
 326              	.LCFI10:
 327              		.cfi_def_cfa_offset 16
  94:Core/Src/fatfs_sd.c **** 	uint32_t cnt = 0x1FFF;
 328              		.loc 1 94 2 view .LVU49
  95:Core/Src/fatfs_sd.c **** 
 329              		.loc 1 95 2 view .LVU50
 330              	.LVL12:
  98:Core/Src/fatfs_sd.c **** 	for(int i = 0; i < 10; i++)
 331              		.loc 1 98 2 view .LVU51
 332 0004 FFF7FEFF 		bl	DESELECT
 333              	.LVL13:
  99:Core/Src/fatfs_sd.c **** 	{
 334              		.loc 1 99 2 view .LVU52
 335              	.LBB2:
  99:Core/Src/fatfs_sd.c **** 	{
 336              		.loc 1 99 6 view .LVU53
  99:Core/Src/fatfs_sd.c **** 	{
 337              		.loc 1 99 10 is_stmt 0 view .LVU54
 338 0008 0024     		movs	r4, #0
  99:Core/Src/fatfs_sd.c **** 	{
 339              		.loc 1 99 2 view .LVU55
 340 000a 03E0     		b	.L31
ARM GAS  C:\Users\samue\AppData\Local\Temp\ccYpbNyc.s 			page 10


 341              	.LVL14:
 342              	.L32:
 101:Core/Src/fatfs_sd.c **** 	}
 343              		.loc 1 101 3 is_stmt 1 discriminator 3 view .LVU56
 344 000c FF20     		movs	r0, #255
 345 000e FFF7FEFF 		bl	SPI_TxByte
 346              	.LVL15:
  99:Core/Src/fatfs_sd.c **** 	{
 347              		.loc 1 99 25 discriminator 3 view .LVU57
  99:Core/Src/fatfs_sd.c **** 	{
 348              		.loc 1 99 26 is_stmt 0 discriminator 3 view .LVU58
 349 0012 0134     		adds	r4, r4, #1
 350              	.LVL16:
 351              	.L31:
  99:Core/Src/fatfs_sd.c **** 	{
 352              		.loc 1 99 17 is_stmt 1 discriminator 1 view .LVU59
  99:Core/Src/fatfs_sd.c **** 	{
 353              		.loc 1 99 2 is_stmt 0 discriminator 1 view .LVU60
 354 0014 092C     		cmp	r4, #9
 355 0016 F9DD     		ble	.L32
 356              	.LBE2:
 105:Core/Src/fatfs_sd.c **** 
 357              		.loc 1 105 2 is_stmt 1 view .LVU61
 358 0018 FFF7FEFF 		bl	SELECT
 359              	.LVL17:
 108:Core/Src/fatfs_sd.c **** 	args[1] = 0;
 360              		.loc 1 108 2 view .LVU62
 108:Core/Src/fatfs_sd.c **** 	args[1] = 0;
 361              		.loc 1 108 10 is_stmt 0 view .LVU63
 362 001c 4023     		movs	r3, #64
 363 001e 8DF80030 		strb	r3, [sp]
 109:Core/Src/fatfs_sd.c **** 	args[2] = 0;
 364              		.loc 1 109 2 is_stmt 1 view .LVU64
 109:Core/Src/fatfs_sd.c **** 	args[2] = 0;
 365              		.loc 1 109 10 is_stmt 0 view .LVU65
 366 0022 0023     		movs	r3, #0
 367 0024 8DF80130 		strb	r3, [sp, #1]
 110:Core/Src/fatfs_sd.c **** 	args[3] = 0;
 368              		.loc 1 110 2 is_stmt 1 view .LVU66
 110:Core/Src/fatfs_sd.c **** 	args[3] = 0;
 369              		.loc 1 110 10 is_stmt 0 view .LVU67
 370 0028 8DF80230 		strb	r3, [sp, #2]
 111:Core/Src/fatfs_sd.c **** 	args[4] = 0;
 371              		.loc 1 111 2 is_stmt 1 view .LVU68
 111:Core/Src/fatfs_sd.c **** 	args[4] = 0;
 372              		.loc 1 111 10 is_stmt 0 view .LVU69
 373 002c 8DF80330 		strb	r3, [sp, #3]
 112:Core/Src/fatfs_sd.c **** 	args[5] = 0x95;		/* CRC */
 374              		.loc 1 112 2 is_stmt 1 view .LVU70
 112:Core/Src/fatfs_sd.c **** 	args[5] = 0x95;		/* CRC */
 375              		.loc 1 112 10 is_stmt 0 view .LVU71
 376 0030 8DF80430 		strb	r3, [sp, #4]
 113:Core/Src/fatfs_sd.c **** 
 377              		.loc 1 113 2 is_stmt 1 view .LVU72
 113:Core/Src/fatfs_sd.c **** 
 378              		.loc 1 113 10 is_stmt 0 view .LVU73
 379 0034 9523     		movs	r3, #149
ARM GAS  C:\Users\samue\AppData\Local\Temp\ccYpbNyc.s 			page 11


 380 0036 8DF80530 		strb	r3, [sp, #5]
 115:Core/Src/fatfs_sd.c **** 
 381              		.loc 1 115 2 is_stmt 1 view .LVU74
 382 003a 0621     		movs	r1, #6
 383 003c 6846     		mov	r0, sp
 384 003e FFF7FEFF 		bl	SPI_TxBuffer
 385              	.LVL18:
 118:Core/Src/fatfs_sd.c **** 	{
 386              		.loc 1 118 2 view .LVU75
  95:Core/Src/fatfs_sd.c **** 
 387              		.loc 1 95 11 is_stmt 0 view .LVU76
 388 0042 41F6FF74 		movw	r4, #8191
 389              	.LVL19:
 390              	.L33:
 118:Core/Src/fatfs_sd.c **** 	{
 391              		.loc 1 118 8 is_stmt 1 view .LVU77
 118:Core/Src/fatfs_sd.c **** 	{
 392              		.loc 1 118 10 is_stmt 0 view .LVU78
 393 0046 FFF7FEFF 		bl	SPI_RxByte
 394              	.LVL20:
 118:Core/Src/fatfs_sd.c **** 	{
 395              		.loc 1 118 8 view .LVU79
 396 004a 0128     		cmp	r0, #1
 397 004c 02D0     		beq	.L34
 118:Core/Src/fatfs_sd.c **** 	{
 398              		.loc 1 118 32 discriminator 1 view .LVU80
 399 004e 0CB1     		cbz	r4, .L34
 120:Core/Src/fatfs_sd.c **** 	}
 400              		.loc 1 120 3 is_stmt 1 view .LVU81
 120:Core/Src/fatfs_sd.c **** 	}
 401              		.loc 1 120 6 is_stmt 0 view .LVU82
 402 0050 013C     		subs	r4, r4, #1
 403              	.LVL21:
 120:Core/Src/fatfs_sd.c **** 	}
 404              		.loc 1 120 6 view .LVU83
 405 0052 F8E7     		b	.L33
 406              	.L34:
 123:Core/Src/fatfs_sd.c **** 	SPI_TxByte(0XFF);
 407              		.loc 1 123 2 is_stmt 1 view .LVU84
 408 0054 FFF7FEFF 		bl	DESELECT
 409              	.LVL22:
 124:Core/Src/fatfs_sd.c **** 
 410              		.loc 1 124 2 view .LVU85
 411 0058 FF20     		movs	r0, #255
 412 005a FFF7FEFF 		bl	SPI_TxByte
 413              	.LVL23:
 126:Core/Src/fatfs_sd.c **** }
 414              		.loc 1 126 2 view .LVU86
 126:Core/Src/fatfs_sd.c **** }
 415              		.loc 1 126 12 is_stmt 0 view .LVU87
 416 005e 024B     		ldr	r3, .L37
 417 0060 0122     		movs	r2, #1
 418 0062 1A70     		strb	r2, [r3]
 127:Core/Src/fatfs_sd.c **** 
 419              		.loc 1 127 1 view .LVU88
 420 0064 02B0     		add	sp, sp, #8
 421              	.LCFI11:
ARM GAS  C:\Users\samue\AppData\Local\Temp\ccYpbNyc.s 			page 12


 422              		.cfi_def_cfa_offset 8
 423              		@ sp needed
 424 0066 10BD     		pop	{r4, pc}
 425              	.LVL24:
 426              	.L38:
 127:Core/Src/fatfs_sd.c **** 
 427              		.loc 1 127 1 view .LVU89
 428              		.align	2
 429              	.L37:
 430 0068 00000000 		.word	.LANCHOR0
 431              		.cfi_endproc
 432              	.LFE137:
 434              		.section	.text.SD_ReadyWait,"ax",%progbits
 435              		.align	1
 436              		.syntax unified
 437              		.thumb
 438              		.thumb_func
 440              	SD_ReadyWait:
 441              	.LFB136:
  77:Core/Src/fatfs_sd.c **** 	uint8_t res;
 442              		.loc 1 77 1 is_stmt 1 view -0
 443              		.cfi_startproc
 444              		@ args = 0, pretend = 0, frame = 0
 445              		@ frame_needed = 0, uses_anonymous_args = 0
 446 0000 08B5     		push	{r3, lr}
 447              	.LCFI12:
 448              		.cfi_def_cfa_offset 8
 449              		.cfi_offset 3, -8
 450              		.cfi_offset 14, -4
  78:Core/Src/fatfs_sd.c **** 
 451              		.loc 1 78 2 view .LVU91
  81:Core/Src/fatfs_sd.c **** 
 452              		.loc 1 81 2 view .LVU92
  81:Core/Src/fatfs_sd.c **** 
 453              		.loc 1 81 9 is_stmt 0 view .LVU93
 454 0002 074B     		ldr	r3, .L43
 455 0004 4FF4FA72 		mov	r2, #500
 456 0008 1A80     		strh	r2, [r3]	@ movhi
 457              	.L41:
  84:Core/Src/fatfs_sd.c **** 		res = SPI_RxByte();
 458              		.loc 1 84 2 is_stmt 1 discriminator 2 view .LVU94
  85:Core/Src/fatfs_sd.c **** 	} while ((res != 0xFF) && Timer2);
 459              		.loc 1 85 3 discriminator 2 view .LVU95
  85:Core/Src/fatfs_sd.c **** 	} while ((res != 0xFF) && Timer2);
 460              		.loc 1 85 9 is_stmt 0 discriminator 2 view .LVU96
 461 000a FFF7FEFF 		bl	SPI_RxByte
 462              	.LVL25:
  86:Core/Src/fatfs_sd.c **** 
 463              		.loc 1 86 10 is_stmt 1 discriminator 2 view .LVU97
  86:Core/Src/fatfs_sd.c **** 
 464              		.loc 1 86 2 is_stmt 0 discriminator 2 view .LVU98
 465 000e FF28     		cmp	r0, #255
 466 0010 04D0     		beq	.L40
  86:Core/Src/fatfs_sd.c **** 
 467              		.loc 1 86 25 discriminator 1 view .LVU99
 468 0012 034B     		ldr	r3, .L43
 469 0014 1B88     		ldrh	r3, [r3]
ARM GAS  C:\Users\samue\AppData\Local\Temp\ccYpbNyc.s 			page 13


 470 0016 9BB2     		uxth	r3, r3
 471 0018 002B     		cmp	r3, #0
 472 001a F6D1     		bne	.L41
 473              	.L40:
  88:Core/Src/fatfs_sd.c **** }
 474              		.loc 1 88 2 is_stmt 1 view .LVU100
  89:Core/Src/fatfs_sd.c **** 
 475              		.loc 1 89 1 is_stmt 0 view .LVU101
 476 001c 08BD     		pop	{r3, pc}
 477              	.L44:
 478 001e 00BF     		.align	2
 479              	.L43:
 480 0020 00000000 		.word	Timer2
 481              		.cfi_endproc
 482              	.LFE136:
 484              		.section	.text.SD_SendCmd,"ax",%progbits
 485              		.align	1
 486              		.syntax unified
 487              		.thumb
 488              		.thumb_func
 490              	SD_SendCmd:
 491              	.LVL26:
 492              	.LFB142:
 140:Core/Src/fatfs_sd.c **** 
 141:Core/Src/fatfs_sd.c **** /* receive data block */
 142:Core/Src/fatfs_sd.c **** static bool SD_RxDataBlock(BYTE *buff, UINT len)
 143:Core/Src/fatfs_sd.c **** {
 144:Core/Src/fatfs_sd.c **** 	uint8_t token;
 145:Core/Src/fatfs_sd.c **** 
 146:Core/Src/fatfs_sd.c **** 	/* timeout 200ms */
 147:Core/Src/fatfs_sd.c **** 	Timer1 = 200;
 148:Core/Src/fatfs_sd.c **** 
 149:Core/Src/fatfs_sd.c **** 	/* loop until receive a response or timeout */
 150:Core/Src/fatfs_sd.c **** 	do {
 151:Core/Src/fatfs_sd.c **** 		token = SPI_RxByte();
 152:Core/Src/fatfs_sd.c **** 	} while((token == 0xFF) && Timer1);
 153:Core/Src/fatfs_sd.c **** 
 154:Core/Src/fatfs_sd.c **** 	/* invalid response */
 155:Core/Src/fatfs_sd.c **** 	if(token != 0xFE) return FALSE;
 156:Core/Src/fatfs_sd.c **** 
 157:Core/Src/fatfs_sd.c **** 	/* receive data */
 158:Core/Src/fatfs_sd.c **** 	do {
 159:Core/Src/fatfs_sd.c **** 		SPI_RxBytePtr(buff++);
 160:Core/Src/fatfs_sd.c **** 	} while(len--);
 161:Core/Src/fatfs_sd.c **** 
 162:Core/Src/fatfs_sd.c **** 	/* discard CRC */
 163:Core/Src/fatfs_sd.c **** 	SPI_RxByte();
 164:Core/Src/fatfs_sd.c **** 	SPI_RxByte();
 165:Core/Src/fatfs_sd.c **** 
 166:Core/Src/fatfs_sd.c **** 	return TRUE;
 167:Core/Src/fatfs_sd.c **** }
 168:Core/Src/fatfs_sd.c **** 
 169:Core/Src/fatfs_sd.c **** /* transmit data block */
 170:Core/Src/fatfs_sd.c **** #if _USE_WRITE == 1
 171:Core/Src/fatfs_sd.c **** static bool SD_TxDataBlock(const uint8_t *buff, BYTE token)
 172:Core/Src/fatfs_sd.c **** {
 173:Core/Src/fatfs_sd.c **** 	uint8_t resp;
ARM GAS  C:\Users\samue\AppData\Local\Temp\ccYpbNyc.s 			page 14


 174:Core/Src/fatfs_sd.c **** 	uint8_t i = 0;
 175:Core/Src/fatfs_sd.c **** 
 176:Core/Src/fatfs_sd.c **** 	/* wait SD ready */
 177:Core/Src/fatfs_sd.c **** 	if (SD_ReadyWait() != 0xFF) return FALSE;
 178:Core/Src/fatfs_sd.c **** 
 179:Core/Src/fatfs_sd.c **** 	/* transmit token */
 180:Core/Src/fatfs_sd.c **** 	SPI_TxByte(token);
 181:Core/Src/fatfs_sd.c **** 
 182:Core/Src/fatfs_sd.c **** 	/* if it's not STOP token, transmit data */
 183:Core/Src/fatfs_sd.c **** 	if (token != 0xFD)
 184:Core/Src/fatfs_sd.c **** 	{
 185:Core/Src/fatfs_sd.c **** 		SPI_TxBuffer((uint8_t*)buff, 512);
 186:Core/Src/fatfs_sd.c **** 
 187:Core/Src/fatfs_sd.c **** 		/* discard CRC */
 188:Core/Src/fatfs_sd.c **** 		SPI_RxByte();
 189:Core/Src/fatfs_sd.c **** 		SPI_RxByte();
 190:Core/Src/fatfs_sd.c **** 
 191:Core/Src/fatfs_sd.c **** 		/* receive response */
 192:Core/Src/fatfs_sd.c **** 		while (i <= 64)
 193:Core/Src/fatfs_sd.c **** 		{
 194:Core/Src/fatfs_sd.c **** 			resp = SPI_RxByte();
 195:Core/Src/fatfs_sd.c **** 
 196:Core/Src/fatfs_sd.c **** 			/* transmit 0x05 accepted */
 197:Core/Src/fatfs_sd.c **** 			if ((resp & 0x1F) == 0x05) break;
 198:Core/Src/fatfs_sd.c **** 			i++;
 199:Core/Src/fatfs_sd.c **** 		}
 200:Core/Src/fatfs_sd.c **** 
 201:Core/Src/fatfs_sd.c **** 		/* recv buffer clear */
 202:Core/Src/fatfs_sd.c **** 		while (SPI_RxByte() == 0);
 203:Core/Src/fatfs_sd.c **** 	}
 204:Core/Src/fatfs_sd.c **** 
 205:Core/Src/fatfs_sd.c **** 	/* transmit 0x05 accepted */
 206:Core/Src/fatfs_sd.c **** 	if ((resp & 0x1F) == 0x05) return TRUE;
 207:Core/Src/fatfs_sd.c **** 
 208:Core/Src/fatfs_sd.c **** 	return FALSE;
 209:Core/Src/fatfs_sd.c **** }
 210:Core/Src/fatfs_sd.c **** #endif /* _USE_WRITE */
 211:Core/Src/fatfs_sd.c **** 
 212:Core/Src/fatfs_sd.c **** /* transmit command */
 213:Core/Src/fatfs_sd.c **** static BYTE SD_SendCmd(BYTE cmd, uint32_t arg)
 214:Core/Src/fatfs_sd.c **** {
 493              		.loc 1 214 1 is_stmt 1 view -0
 494              		.cfi_startproc
 495              		@ args = 0, pretend = 0, frame = 0
 496              		@ frame_needed = 0, uses_anonymous_args = 0
 497              		.loc 1 214 1 is_stmt 0 view .LVU103
 498 0000 38B5     		push	{r3, r4, r5, lr}
 499              	.LCFI13:
 500              		.cfi_def_cfa_offset 16
 501              		.cfi_offset 3, -16
 502              		.cfi_offset 4, -12
 503              		.cfi_offset 5, -8
 504              		.cfi_offset 14, -4
 505 0002 0546     		mov	r5, r0
 506 0004 0C46     		mov	r4, r1
 215:Core/Src/fatfs_sd.c **** 	uint8_t crc, res;
 507              		.loc 1 215 2 is_stmt 1 view .LVU104
ARM GAS  C:\Users\samue\AppData\Local\Temp\ccYpbNyc.s 			page 15


 216:Core/Src/fatfs_sd.c **** 
 217:Core/Src/fatfs_sd.c **** 	/* wait SD ready */
 218:Core/Src/fatfs_sd.c **** 	if (SD_ReadyWait() != 0xFF) return 0xFF;
 508              		.loc 1 218 2 view .LVU105
 509              		.loc 1 218 6 is_stmt 0 view .LVU106
 510 0006 FFF7FEFF 		bl	SD_ReadyWait
 511              	.LVL27:
 512              		.loc 1 218 5 view .LVU107
 513 000a FF28     		cmp	r0, #255
 514 000c 01D0     		beq	.L54
 515              		.loc 1 218 37 view .LVU108
 516 000e FF20     		movs	r0, #255
 517              	.LVL28:
 518              	.L46:
 219:Core/Src/fatfs_sd.c **** 
 220:Core/Src/fatfs_sd.c **** 	/* transmit command */
 221:Core/Src/fatfs_sd.c **** 	SPI_TxByte(cmd); 					/* Command */
 222:Core/Src/fatfs_sd.c **** 	SPI_TxByte((uint8_t)(arg >> 24)); 	/* Argument[31..24] */
 223:Core/Src/fatfs_sd.c **** 	SPI_TxByte((uint8_t)(arg >> 16)); 	/* Argument[23..16] */
 224:Core/Src/fatfs_sd.c **** 	SPI_TxByte((uint8_t)(arg >> 8)); 	/* Argument[15..8] */
 225:Core/Src/fatfs_sd.c **** 	SPI_TxByte((uint8_t)arg); 			/* Argument[7..0] */
 226:Core/Src/fatfs_sd.c **** 
 227:Core/Src/fatfs_sd.c **** 	/* prepare CRC */
 228:Core/Src/fatfs_sd.c **** 	if(cmd == CMD0) crc = 0x95;	/* CRC for CMD0(0) */
 229:Core/Src/fatfs_sd.c **** 	else if(cmd == CMD8) crc = 0x87;	/* CRC for CMD8(0x1AA) */
 230:Core/Src/fatfs_sd.c **** 	else crc = 1;
 231:Core/Src/fatfs_sd.c **** 
 232:Core/Src/fatfs_sd.c **** 	/* transmit CRC */
 233:Core/Src/fatfs_sd.c **** 	SPI_TxByte(crc);
 234:Core/Src/fatfs_sd.c **** 
 235:Core/Src/fatfs_sd.c **** 	/* Skip a stuff byte when STOP_TRANSMISSION */
 236:Core/Src/fatfs_sd.c **** 	if (cmd == CMD12) SPI_RxByte();
 237:Core/Src/fatfs_sd.c **** 
 238:Core/Src/fatfs_sd.c **** 	/* receive response */
 239:Core/Src/fatfs_sd.c **** 	uint8_t n = 10;
 240:Core/Src/fatfs_sd.c **** 	do {
 241:Core/Src/fatfs_sd.c **** 		res = SPI_RxByte();
 242:Core/Src/fatfs_sd.c **** 	} while ((res & 0x80) && --n);
 243:Core/Src/fatfs_sd.c **** 
 244:Core/Src/fatfs_sd.c **** 	return res;
 245:Core/Src/fatfs_sd.c **** }
 519              		.loc 1 245 1 view .LVU109
 520 0010 38BD     		pop	{r3, r4, r5, pc}
 521              	.LVL29:
 522              	.L54:
 221:Core/Src/fatfs_sd.c **** 	SPI_TxByte((uint8_t)(arg >> 24)); 	/* Argument[31..24] */
 523              		.loc 1 221 2 is_stmt 1 view .LVU110
 524 0012 2846     		mov	r0, r5
 525 0014 FFF7FEFF 		bl	SPI_TxByte
 526              	.LVL30:
 222:Core/Src/fatfs_sd.c **** 	SPI_TxByte((uint8_t)(arg >> 16)); 	/* Argument[23..16] */
 527              		.loc 1 222 2 view .LVU111
 528 0018 200E     		lsrs	r0, r4, #24
 529 001a FFF7FEFF 		bl	SPI_TxByte
 530              	.LVL31:
 223:Core/Src/fatfs_sd.c **** 	SPI_TxByte((uint8_t)(arg >> 8)); 	/* Argument[15..8] */
 531              		.loc 1 223 2 view .LVU112
ARM GAS  C:\Users\samue\AppData\Local\Temp\ccYpbNyc.s 			page 16


 532 001e C4F30740 		ubfx	r0, r4, #16, #8
 533 0022 FFF7FEFF 		bl	SPI_TxByte
 534              	.LVL32:
 224:Core/Src/fatfs_sd.c **** 	SPI_TxByte((uint8_t)arg); 			/* Argument[7..0] */
 535              		.loc 1 224 2 view .LVU113
 536 0026 C4F30720 		ubfx	r0, r4, #8, #8
 537 002a FFF7FEFF 		bl	SPI_TxByte
 538              	.LVL33:
 225:Core/Src/fatfs_sd.c **** 
 539              		.loc 1 225 2 view .LVU114
 540 002e E0B2     		uxtb	r0, r4
 541 0030 FFF7FEFF 		bl	SPI_TxByte
 542              	.LVL34:
 228:Core/Src/fatfs_sd.c **** 	else if(cmd == CMD8) crc = 0x87;	/* CRC for CMD8(0x1AA) */
 543              		.loc 1 228 2 view .LVU115
 228:Core/Src/fatfs_sd.c **** 	else if(cmd == CMD8) crc = 0x87;	/* CRC for CMD8(0x1AA) */
 544              		.loc 1 228 4 is_stmt 0 view .LVU116
 545 0034 402D     		cmp	r5, #64
 546 0036 13D0     		beq	.L51
 229:Core/Src/fatfs_sd.c **** 	else crc = 1;
 547              		.loc 1 229 7 is_stmt 1 view .LVU117
 229:Core/Src/fatfs_sd.c **** 	else crc = 1;
 548              		.loc 1 229 9 is_stmt 0 view .LVU118
 549 0038 482D     		cmp	r5, #72
 550 003a 0FD0     		beq	.L55
 230:Core/Src/fatfs_sd.c **** 
 551              		.loc 1 230 11 view .LVU119
 552 003c 0120     		movs	r0, #1
 553              	.L47:
 554              	.LVL35:
 233:Core/Src/fatfs_sd.c **** 
 555              		.loc 1 233 2 is_stmt 1 view .LVU120
 556 003e FFF7FEFF 		bl	SPI_TxByte
 557              	.LVL36:
 236:Core/Src/fatfs_sd.c **** 
 558              		.loc 1 236 2 view .LVU121
 236:Core/Src/fatfs_sd.c **** 
 559              		.loc 1 236 5 is_stmt 0 view .LVU122
 560 0042 4C2D     		cmp	r5, #76
 561 0044 0ED0     		beq	.L56
 562              	.L48:
 229:Core/Src/fatfs_sd.c **** 	else crc = 1;
 563              		.loc 1 229 27 discriminator 2 view .LVU123
 564 0046 0A24     		movs	r4, #10
 565              	.LVL37:
 566              	.L49:
 240:Core/Src/fatfs_sd.c **** 		res = SPI_RxByte();
 567              		.loc 1 240 2 is_stmt 1 discriminator 2 view .LVU124
 241:Core/Src/fatfs_sd.c **** 	} while ((res & 0x80) && --n);
 568              		.loc 1 241 3 discriminator 2 view .LVU125
 241:Core/Src/fatfs_sd.c **** 	} while ((res & 0x80) && --n);
 569              		.loc 1 241 9 is_stmt 0 discriminator 2 view .LVU126
 570 0048 FFF7FEFF 		bl	SPI_RxByte
 571              	.LVL38:
 242:Core/Src/fatfs_sd.c **** 
 572              		.loc 1 242 10 is_stmt 1 discriminator 2 view .LVU127
 242:Core/Src/fatfs_sd.c **** 
ARM GAS  C:\Users\samue\AppData\Local\Temp\ccYpbNyc.s 			page 17


 573              		.loc 1 242 2 is_stmt 0 discriminator 2 view .LVU128
 574 004c 10F0800F 		tst	r0, #128
 575 0050 DED0     		beq	.L46
 242:Core/Src/fatfs_sd.c **** 
 576              		.loc 1 242 24 discriminator 1 view .LVU129
 577 0052 631E     		subs	r3, r4, #1
 578              	.LVL39:
 242:Core/Src/fatfs_sd.c **** 
 579              		.loc 1 242 24 discriminator 1 view .LVU130
 580 0054 13F0FF04 		ands	r4, r3, #255
 581 0058 F6D1     		bne	.L49
 582 005a D9E7     		b	.L46
 583              	.LVL40:
 584              	.L55:
 229:Core/Src/fatfs_sd.c **** 	else crc = 1;
 585              		.loc 1 229 27 view .LVU131
 586 005c 8720     		movs	r0, #135
 587 005e EEE7     		b	.L47
 588              	.L51:
 228:Core/Src/fatfs_sd.c **** 	else if(cmd == CMD8) crc = 0x87;	/* CRC for CMD8(0x1AA) */
 589              		.loc 1 228 22 view .LVU132
 590 0060 9520     		movs	r0, #149
 591 0062 ECE7     		b	.L47
 592              	.L56:
 236:Core/Src/fatfs_sd.c **** 
 593              		.loc 1 236 20 is_stmt 1 discriminator 1 view .LVU133
 594 0064 FFF7FEFF 		bl	SPI_RxByte
 595              	.LVL41:
 596 0068 EDE7     		b	.L48
 597              		.cfi_endproc
 598              	.LFE142:
 600              		.section	.text.SPI_RxBytePtr,"ax",%progbits
 601              		.align	1
 602              		.syntax unified
 603              		.thumb
 604              		.thumb_func
 606              	SPI_RxBytePtr:
 607              	.LVL42:
 608              	.LFB135:
  67:Core/Src/fatfs_sd.c **** 	*buff = SPI_RxByte();
 609              		.loc 1 67 1 view -0
 610              		.cfi_startproc
 611              		@ args = 0, pretend = 0, frame = 0
 612              		@ frame_needed = 0, uses_anonymous_args = 0
  67:Core/Src/fatfs_sd.c **** 	*buff = SPI_RxByte();
 613              		.loc 1 67 1 is_stmt 0 view .LVU135
 614 0000 10B5     		push	{r4, lr}
 615              	.LCFI14:
 616              		.cfi_def_cfa_offset 8
 617              		.cfi_offset 4, -8
 618              		.cfi_offset 14, -4
 619 0002 0446     		mov	r4, r0
  68:Core/Src/fatfs_sd.c **** }
 620              		.loc 1 68 2 is_stmt 1 view .LVU136
  68:Core/Src/fatfs_sd.c **** }
 621              		.loc 1 68 10 is_stmt 0 view .LVU137
 622 0004 FFF7FEFF 		bl	SPI_RxByte
ARM GAS  C:\Users\samue\AppData\Local\Temp\ccYpbNyc.s 			page 18


 623              	.LVL43:
  68:Core/Src/fatfs_sd.c **** }
 624              		.loc 1 68 8 view .LVU138
 625 0008 2070     		strb	r0, [r4]
  69:Core/Src/fatfs_sd.c **** 
 626              		.loc 1 69 1 view .LVU139
 627 000a 10BD     		pop	{r4, pc}
  69:Core/Src/fatfs_sd.c **** 
 628              		.loc 1 69 1 view .LVU140
 629              		.cfi_endproc
 630              	.LFE135:
 632              		.section	.text.SD_RxDataBlock,"ax",%progbits
 633              		.align	1
 634              		.syntax unified
 635              		.thumb
 636              		.thumb_func
 638              	SD_RxDataBlock:
 639              	.LVL44:
 640              	.LFB140:
 143:Core/Src/fatfs_sd.c **** 	uint8_t token;
 641              		.loc 1 143 1 is_stmt 1 view -0
 642              		.cfi_startproc
 643              		@ args = 0, pretend = 0, frame = 0
 644              		@ frame_needed = 0, uses_anonymous_args = 0
 143:Core/Src/fatfs_sd.c **** 	uint8_t token;
 645              		.loc 1 143 1 is_stmt 0 view .LVU142
 646 0000 38B5     		push	{r3, r4, r5, lr}
 647              	.LCFI15:
 648              		.cfi_def_cfa_offset 16
 649              		.cfi_offset 3, -16
 650              		.cfi_offset 4, -12
 651              		.cfi_offset 5, -8
 652              		.cfi_offset 14, -4
 653 0002 0446     		mov	r4, r0
 654 0004 0D46     		mov	r5, r1
 144:Core/Src/fatfs_sd.c **** 
 655              		.loc 1 144 2 is_stmt 1 view .LVU143
 147:Core/Src/fatfs_sd.c **** 
 656              		.loc 1 147 2 view .LVU144
 147:Core/Src/fatfs_sd.c **** 
 657              		.loc 1 147 9 is_stmt 0 view .LVU145
 658 0006 0F4B     		ldr	r3, .L66
 659 0008 C822     		movs	r2, #200
 660 000a 1A80     		strh	r2, [r3]	@ movhi
 661              	.LVL45:
 662              	.L61:
 150:Core/Src/fatfs_sd.c **** 		token = SPI_RxByte();
 663              		.loc 1 150 2 is_stmt 1 discriminator 2 view .LVU146
 151:Core/Src/fatfs_sd.c **** 	} while((token == 0xFF) && Timer1);
 664              		.loc 1 151 3 discriminator 2 view .LVU147
 151:Core/Src/fatfs_sd.c **** 	} while((token == 0xFF) && Timer1);
 665              		.loc 1 151 11 is_stmt 0 discriminator 2 view .LVU148
 666 000c FFF7FEFF 		bl	SPI_RxByte
 667              	.LVL46:
 152:Core/Src/fatfs_sd.c **** 
 668              		.loc 1 152 9 is_stmt 1 discriminator 2 view .LVU149
 152:Core/Src/fatfs_sd.c **** 
ARM GAS  C:\Users\samue\AppData\Local\Temp\ccYpbNyc.s 			page 19


 669              		.loc 1 152 2 is_stmt 0 discriminator 2 view .LVU150
 670 0010 FF28     		cmp	r0, #255
 671 0012 04D1     		bne	.L60
 152:Core/Src/fatfs_sd.c **** 
 672              		.loc 1 152 26 discriminator 1 view .LVU151
 673 0014 0B4B     		ldr	r3, .L66
 674 0016 1B88     		ldrh	r3, [r3]
 675 0018 9BB2     		uxth	r3, r3
 676 001a 002B     		cmp	r3, #0
 677 001c F6D1     		bne	.L61
 678              	.L60:
 155:Core/Src/fatfs_sd.c **** 
 679              		.loc 1 155 2 is_stmt 1 view .LVU152
 155:Core/Src/fatfs_sd.c **** 
 680              		.loc 1 155 4 is_stmt 0 view .LVU153
 681 001e FE28     		cmp	r0, #254
 682 0020 0DD1     		bne	.L64
 683              	.LVL47:
 684              	.L63:
 158:Core/Src/fatfs_sd.c **** 		SPI_RxBytePtr(buff++);
 685              		.loc 1 158 2 is_stmt 1 discriminator 1 view .LVU154
 159:Core/Src/fatfs_sd.c **** 	} while(len--);
 686              		.loc 1 159 3 discriminator 1 view .LVU155
 687 0022 2046     		mov	r0, r4
 159:Core/Src/fatfs_sd.c **** 	} while(len--);
 688              		.loc 1 159 3 is_stmt 0 discriminator 1 view .LVU156
 689 0024 0134     		adds	r4, r4, #1
 690              	.LVL48:
 159:Core/Src/fatfs_sd.c **** 	} while(len--);
 691              		.loc 1 159 3 discriminator 1 view .LVU157
 692 0026 FFF7FEFF 		bl	SPI_RxBytePtr
 693              	.LVL49:
 160:Core/Src/fatfs_sd.c **** 
 694              		.loc 1 160 9 is_stmt 1 discriminator 1 view .LVU158
 695 002a 2B46     		mov	r3, r5
 160:Core/Src/fatfs_sd.c **** 
 696              		.loc 1 160 13 is_stmt 0 discriminator 1 view .LVU159
 697 002c 013D     		subs	r5, r5, #1
 698              	.LVL50:
 160:Core/Src/fatfs_sd.c **** 
 699              		.loc 1 160 2 discriminator 1 view .LVU160
 700 002e 002B     		cmp	r3, #0
 701 0030 F7D1     		bne	.L63
 163:Core/Src/fatfs_sd.c **** 	SPI_RxByte();
 702              		.loc 1 163 2 is_stmt 1 view .LVU161
 703 0032 FFF7FEFF 		bl	SPI_RxByte
 704              	.LVL51:
 164:Core/Src/fatfs_sd.c **** 
 705              		.loc 1 164 2 view .LVU162
 706 0036 FFF7FEFF 		bl	SPI_RxByte
 707              	.LVL52:
 166:Core/Src/fatfs_sd.c **** }
 708              		.loc 1 166 2 view .LVU163
 166:Core/Src/fatfs_sd.c **** }
 709              		.loc 1 166 9 is_stmt 0 view .LVU164
 710 003a 0120     		movs	r0, #1
 711              	.LVL53:
ARM GAS  C:\Users\samue\AppData\Local\Temp\ccYpbNyc.s 			page 20


 712              	.L62:
 167:Core/Src/fatfs_sd.c **** 
 713              		.loc 1 167 1 view .LVU165
 714 003c 38BD     		pop	{r3, r4, r5, pc}
 715              	.LVL54:
 716              	.L64:
 155:Core/Src/fatfs_sd.c **** 
 717              		.loc 1 155 27 view .LVU166
 718 003e 0020     		movs	r0, #0
 719              	.LVL55:
 155:Core/Src/fatfs_sd.c **** 
 720              		.loc 1 155 27 view .LVU167
 721 0040 FCE7     		b	.L62
 722              	.L67:
 723 0042 00BF     		.align	2
 724              	.L66:
 725 0044 00000000 		.word	Timer1
 726              		.cfi_endproc
 727              	.LFE140:
 729              		.section	.text.SD_TxDataBlock,"ax",%progbits
 730              		.align	1
 731              		.syntax unified
 732              		.thumb
 733              		.thumb_func
 735              	SD_TxDataBlock:
 736              	.LVL56:
 737              	.LFB141:
 172:Core/Src/fatfs_sd.c **** 	uint8_t resp;
 738              		.loc 1 172 1 is_stmt 1 view -0
 739              		.cfi_startproc
 740              		@ args = 0, pretend = 0, frame = 0
 741              		@ frame_needed = 0, uses_anonymous_args = 0
 172:Core/Src/fatfs_sd.c **** 	uint8_t resp;
 742              		.loc 1 172 1 is_stmt 0 view .LVU169
 743 0000 70B5     		push	{r4, r5, r6, lr}
 744              	.LCFI16:
 745              		.cfi_def_cfa_offset 16
 746              		.cfi_offset 4, -16
 747              		.cfi_offset 5, -12
 748              		.cfi_offset 6, -8
 749              		.cfi_offset 14, -4
 750 0002 0646     		mov	r6, r0
 751 0004 0D46     		mov	r5, r1
 173:Core/Src/fatfs_sd.c **** 	uint8_t i = 0;
 752              		.loc 1 173 2 is_stmt 1 view .LVU170
 174:Core/Src/fatfs_sd.c **** 
 753              		.loc 1 174 2 view .LVU171
 754              	.LVL57:
 177:Core/Src/fatfs_sd.c **** 
 755              		.loc 1 177 2 view .LVU172
 177:Core/Src/fatfs_sd.c **** 
 756              		.loc 1 177 6 is_stmt 0 view .LVU173
 757 0006 FFF7FEFF 		bl	SD_ReadyWait
 758              	.LVL58:
 177:Core/Src/fatfs_sd.c **** 
 759              		.loc 1 177 5 view .LVU174
 760 000a FF28     		cmp	r0, #255
ARM GAS  C:\Users\samue\AppData\Local\Temp\ccYpbNyc.s 			page 21


 761 000c 01D0     		beq	.L78
 177:Core/Src/fatfs_sd.c **** 
 762              		.loc 1 177 37 view .LVU175
 763 000e 0020     		movs	r0, #0
 764              	.LVL59:
 765              	.L69:
 209:Core/Src/fatfs_sd.c **** #endif /* _USE_WRITE */
 766              		.loc 1 209 1 view .LVU176
 767 0010 70BD     		pop	{r4, r5, r6, pc}
 768              	.LVL60:
 769              	.L78:
 209:Core/Src/fatfs_sd.c **** #endif /* _USE_WRITE */
 770              		.loc 1 209 1 view .LVU177
 771 0012 0024     		movs	r4, #0
 180:Core/Src/fatfs_sd.c **** 
 772              		.loc 1 180 2 is_stmt 1 view .LVU178
 773 0014 2846     		mov	r0, r5
 774 0016 FFF7FEFF 		bl	SPI_TxByte
 775              	.LVL61:
 183:Core/Src/fatfs_sd.c **** 	{
 776              		.loc 1 183 2 view .LVU179
 183:Core/Src/fatfs_sd.c **** 	{
 777              		.loc 1 183 5 is_stmt 0 view .LVU180
 778 001a FD2D     		cmp	r5, #253
 779 001c 05D1     		bne	.L79
 780              	.LVL62:
 781              	.L70:
 206:Core/Src/fatfs_sd.c **** 
 782              		.loc 1 206 2 is_stmt 1 view .LVU181
 206:Core/Src/fatfs_sd.c **** 
 783              		.loc 1 206 5 is_stmt 0 view .LVU182
 784 001e 04F01F04 		and	r4, r4, #31
 785              	.LVL63:
 206:Core/Src/fatfs_sd.c **** 
 786              		.loc 1 206 5 view .LVU183
 787 0022 052C     		cmp	r4, #5
 788 0024 1CD0     		beq	.L76
 208:Core/Src/fatfs_sd.c **** }
 789              		.loc 1 208 9 view .LVU184
 790 0026 0020     		movs	r0, #0
 791 0028 F2E7     		b	.L69
 792              	.LVL64:
 793              	.L79:
 185:Core/Src/fatfs_sd.c **** 
 794              		.loc 1 185 3 is_stmt 1 view .LVU185
 795 002a 4FF40071 		mov	r1, #512
 796 002e 3046     		mov	r0, r6
 797 0030 FFF7FEFF 		bl	SPI_TxBuffer
 798              	.LVL65:
 188:Core/Src/fatfs_sd.c **** 		SPI_RxByte();
 799              		.loc 1 188 3 view .LVU186
 800 0034 FFF7FEFF 		bl	SPI_RxByte
 801              	.LVL66:
 189:Core/Src/fatfs_sd.c **** 
 802              		.loc 1 189 3 view .LVU187
 803 0038 FFF7FEFF 		bl	SPI_RxByte
 804              	.LVL67:
ARM GAS  C:\Users\samue\AppData\Local\Temp\ccYpbNyc.s 			page 22


 192:Core/Src/fatfs_sd.c **** 		{
 805              		.loc 1 192 3 view .LVU188
 174:Core/Src/fatfs_sd.c **** 
 806              		.loc 1 174 10 is_stmt 0 view .LVU189
 807 003c 2546     		mov	r5, r4
 192:Core/Src/fatfs_sd.c **** 		{
 808              		.loc 1 192 9 view .LVU190
 809 003e 01E0     		b	.L71
 810              	.LVL68:
 811              	.L80:
 198:Core/Src/fatfs_sd.c **** 		}
 812              		.loc 1 198 4 is_stmt 1 view .LVU191
 198:Core/Src/fatfs_sd.c **** 		}
 813              		.loc 1 198 5 is_stmt 0 view .LVU192
 814 0040 0135     		adds	r5, r5, #1
 815              	.LVL69:
 198:Core/Src/fatfs_sd.c **** 		}
 816              		.loc 1 198 5 view .LVU193
 817 0042 EDB2     		uxtb	r5, r5
 818              	.LVL70:
 819              	.L71:
 192:Core/Src/fatfs_sd.c **** 		{
 820              		.loc 1 192 9 is_stmt 1 view .LVU194
 821 0044 402D     		cmp	r5, #64
 822 0046 06D8     		bhi	.L74
 194:Core/Src/fatfs_sd.c **** 
 823              		.loc 1 194 4 view .LVU195
 194:Core/Src/fatfs_sd.c **** 
 824              		.loc 1 194 11 is_stmt 0 view .LVU196
 825 0048 FFF7FEFF 		bl	SPI_RxByte
 826              	.LVL71:
 827 004c 0446     		mov	r4, r0
 828              	.LVL72:
 197:Core/Src/fatfs_sd.c **** 			i++;
 829              		.loc 1 197 4 is_stmt 1 view .LVU197
 197:Core/Src/fatfs_sd.c **** 			i++;
 830              		.loc 1 197 7 is_stmt 0 view .LVU198
 831 004e 00F01F03 		and	r3, r0, #31
 832 0052 052B     		cmp	r3, #5
 833 0054 F4D1     		bne	.L80
 834              	.LVL73:
 835              	.L74:
 202:Core/Src/fatfs_sd.c **** 	}
 836              		.loc 1 202 28 is_stmt 1 discriminator 1 view .LVU199
 202:Core/Src/fatfs_sd.c **** 	}
 837              		.loc 1 202 9 discriminator 1 view .LVU200
 202:Core/Src/fatfs_sd.c **** 	}
 838              		.loc 1 202 10 is_stmt 0 discriminator 1 view .LVU201
 839 0056 FFF7FEFF 		bl	SPI_RxByte
 840              	.LVL74:
 202:Core/Src/fatfs_sd.c **** 	}
 841              		.loc 1 202 9 discriminator 1 view .LVU202
 842 005a 0028     		cmp	r0, #0
 843 005c FBD0     		beq	.L74
 844 005e DEE7     		b	.L70
 845              	.LVL75:
 846              	.L76:
ARM GAS  C:\Users\samue\AppData\Local\Temp\ccYpbNyc.s 			page 23


 206:Core/Src/fatfs_sd.c **** 
 847              		.loc 1 206 36 view .LVU203
 848 0060 0120     		movs	r0, #1
 849 0062 D5E7     		b	.L69
 850              		.cfi_endproc
 851              	.LFE141:
 853              		.section	.text.SD_disk_initialize,"ax",%progbits
 854              		.align	1
 855              		.global	SD_disk_initialize
 856              		.syntax unified
 857              		.thumb
 858              		.thumb_func
 860              	SD_disk_initialize:
 861              	.LVL76:
 862              	.LFB143:
 246:Core/Src/fatfs_sd.c **** 
 247:Core/Src/fatfs_sd.c **** /***************************************
 248:Core/Src/fatfs_sd.c ****  * user_diskio.c functions
 249:Core/Src/fatfs_sd.c ****  **************************************/
 250:Core/Src/fatfs_sd.c **** 
 251:Core/Src/fatfs_sd.c **** /* initialize SD */
 252:Core/Src/fatfs_sd.c **** DSTATUS SD_disk_initialize(BYTE drv) 
 253:Core/Src/fatfs_sd.c **** {
 863              		.loc 1 253 1 is_stmt 1 view -0
 864              		.cfi_startproc
 865              		@ args = 0, pretend = 0, frame = 8
 866              		@ frame_needed = 0, uses_anonymous_args = 0
 254:Core/Src/fatfs_sd.c **** 	uint8_t n, type, ocr[4];
 867              		.loc 1 254 2 view .LVU205
 255:Core/Src/fatfs_sd.c **** 
 256:Core/Src/fatfs_sd.c **** 	/* single drive, drv should be 0 */
 257:Core/Src/fatfs_sd.c **** 	if(drv) return STA_NOINIT;
 868              		.loc 1 257 2 view .LVU206
 869              		.loc 1 257 4 is_stmt 0 view .LVU207
 870 0000 0028     		cmp	r0, #0
 871 0002 40F0B680 		bne	.L100
 253:Core/Src/fatfs_sd.c **** 	uint8_t n, type, ocr[4];
 872              		.loc 1 253 1 view .LVU208
 873 0006 30B5     		push	{r4, r5, lr}
 874              	.LCFI17:
 875              		.cfi_def_cfa_offset 12
 876              		.cfi_offset 4, -12
 877              		.cfi_offset 5, -8
 878              		.cfi_offset 14, -4
 879 0008 83B0     		sub	sp, sp, #12
 880              	.LCFI18:
 881              		.cfi_def_cfa_offset 24
 258:Core/Src/fatfs_sd.c **** 
 259:Core/Src/fatfs_sd.c **** 	/* no disk */
 260:Core/Src/fatfs_sd.c **** 	if(Stat & STA_NODISK) return Stat;
 882              		.loc 1 260 2 is_stmt 1 view .LVU209
 883              		.loc 1 260 10 is_stmt 0 view .LVU210
 884 000a 5B4B     		ldr	r3, .L113
 885 000c 1B78     		ldrb	r3, [r3]	@ zero_extendqisi2
 886              		.loc 1 260 4 view .LVU211
 887 000e 13F00204 		ands	r4, r3, #2
 888 0012 04D0     		beq	.L83
ARM GAS  C:\Users\samue\AppData\Local\Temp\ccYpbNyc.s 			page 24


 889              		.loc 1 260 24 is_stmt 1 discriminator 1 view .LVU212
 890              		.loc 1 260 31 is_stmt 0 discriminator 1 view .LVU213
 891 0014 584B     		ldr	r3, .L113
 892 0016 1878     		ldrb	r0, [r3]	@ zero_extendqisi2
 893              	.LVL77:
 894              		.loc 1 260 31 discriminator 1 view .LVU214
 895 0018 C0B2     		uxtb	r0, r0
 896              	.L82:
 261:Core/Src/fatfs_sd.c **** 
 262:Core/Src/fatfs_sd.c **** 	/* power on */
 263:Core/Src/fatfs_sd.c **** 	SD_PowerOn();
 264:Core/Src/fatfs_sd.c **** 
 265:Core/Src/fatfs_sd.c **** 	/* slave select */
 266:Core/Src/fatfs_sd.c **** 	SELECT();
 267:Core/Src/fatfs_sd.c **** 
 268:Core/Src/fatfs_sd.c **** 	/* check disk type */
 269:Core/Src/fatfs_sd.c **** 	type = 0;
 270:Core/Src/fatfs_sd.c **** 
 271:Core/Src/fatfs_sd.c **** 	/* send GO_IDLE_STATE command */
 272:Core/Src/fatfs_sd.c **** 	if (SD_SendCmd(CMD0, 0) == 1)
 273:Core/Src/fatfs_sd.c **** 	{
 274:Core/Src/fatfs_sd.c **** 		/* timeout 1 sec */
 275:Core/Src/fatfs_sd.c **** 		Timer1 = 1000;
 276:Core/Src/fatfs_sd.c **** 
 277:Core/Src/fatfs_sd.c **** 		/* SDC V2+ accept CMD8 command, http://elm-chan.org/docs/mmc/mmc_e.html */
 278:Core/Src/fatfs_sd.c **** 		if (SD_SendCmd(CMD8, 0x1AA) == 1)
 279:Core/Src/fatfs_sd.c **** 		{
 280:Core/Src/fatfs_sd.c **** 			/* operation condition register */
 281:Core/Src/fatfs_sd.c **** 			for (n = 0; n < 4; n++)
 282:Core/Src/fatfs_sd.c **** 			{
 283:Core/Src/fatfs_sd.c **** 				ocr[n] = SPI_RxByte();
 284:Core/Src/fatfs_sd.c **** 			}
 285:Core/Src/fatfs_sd.c **** 
 286:Core/Src/fatfs_sd.c **** 			/* voltage range 2.7-3.6V */
 287:Core/Src/fatfs_sd.c **** 			if (ocr[2] == 0x01 && ocr[3] == 0xAA)
 288:Core/Src/fatfs_sd.c **** 			{
 289:Core/Src/fatfs_sd.c **** 				/* ACMD41 with HCS bit */
 290:Core/Src/fatfs_sd.c **** 				do {
 291:Core/Src/fatfs_sd.c **** 					if (SD_SendCmd(CMD55, 0) <= 1 && SD_SendCmd(CMD41, 1UL << 30) == 0) break;
 292:Core/Src/fatfs_sd.c **** 				} while (Timer1);
 293:Core/Src/fatfs_sd.c **** 
 294:Core/Src/fatfs_sd.c **** 				/* READ_OCR */
 295:Core/Src/fatfs_sd.c **** 				if (Timer1 && SD_SendCmd(CMD58, 0) == 0)
 296:Core/Src/fatfs_sd.c **** 				{
 297:Core/Src/fatfs_sd.c **** 					/* Check CCS bit */
 298:Core/Src/fatfs_sd.c **** 					for (n = 0; n < 4; n++)
 299:Core/Src/fatfs_sd.c **** 					{
 300:Core/Src/fatfs_sd.c **** 						ocr[n] = SPI_RxByte();
 301:Core/Src/fatfs_sd.c **** 					}
 302:Core/Src/fatfs_sd.c **** 
 303:Core/Src/fatfs_sd.c **** 					/* SDv2 (HC or SC) */
 304:Core/Src/fatfs_sd.c **** 					type = (ocr[0] & 0x40) ? CT_SD2 | CT_BLOCK : CT_SD2;
 305:Core/Src/fatfs_sd.c **** 				}
 306:Core/Src/fatfs_sd.c **** 			}
 307:Core/Src/fatfs_sd.c **** 		}
 308:Core/Src/fatfs_sd.c **** 		else
 309:Core/Src/fatfs_sd.c **** 		{
ARM GAS  C:\Users\samue\AppData\Local\Temp\ccYpbNyc.s 			page 25


 310:Core/Src/fatfs_sd.c **** 			/* SDC V1 or MMC */
 311:Core/Src/fatfs_sd.c **** 			type = (SD_SendCmd(CMD55, 0) <= 1 && SD_SendCmd(CMD41, 0) <= 1) ? CT_SD1 : CT_MMC;
 312:Core/Src/fatfs_sd.c **** 
 313:Core/Src/fatfs_sd.c **** 			do
 314:Core/Src/fatfs_sd.c **** 			{
 315:Core/Src/fatfs_sd.c **** 				if (type == CT_SD1)
 316:Core/Src/fatfs_sd.c **** 				{
 317:Core/Src/fatfs_sd.c **** 					if (SD_SendCmd(CMD55, 0) <= 1 && SD_SendCmd(CMD41, 0) == 0) break; /* ACMD41 */
 318:Core/Src/fatfs_sd.c **** 				}
 319:Core/Src/fatfs_sd.c **** 				else
 320:Core/Src/fatfs_sd.c **** 				{
 321:Core/Src/fatfs_sd.c **** 					if (SD_SendCmd(CMD1, 0) == 0) break; /* CMD1 */
 322:Core/Src/fatfs_sd.c **** 				}
 323:Core/Src/fatfs_sd.c **** 
 324:Core/Src/fatfs_sd.c **** 			} while (Timer1);
 325:Core/Src/fatfs_sd.c **** 
 326:Core/Src/fatfs_sd.c **** 			/* SET_BLOCKLEN */
 327:Core/Src/fatfs_sd.c **** 			if (!Timer1 || SD_SendCmd(CMD16, 512) != 0) type = 0;
 328:Core/Src/fatfs_sd.c **** 		}
 329:Core/Src/fatfs_sd.c **** 	}
 330:Core/Src/fatfs_sd.c **** 
 331:Core/Src/fatfs_sd.c **** 	CardType = type;
 332:Core/Src/fatfs_sd.c **** 
 333:Core/Src/fatfs_sd.c **** 	/* Idle */
 334:Core/Src/fatfs_sd.c **** 	DESELECT();
 335:Core/Src/fatfs_sd.c **** 	SPI_RxByte();
 336:Core/Src/fatfs_sd.c **** 
 337:Core/Src/fatfs_sd.c **** 	/* Clear STA_NOINIT */
 338:Core/Src/fatfs_sd.c **** 	if (type)
 339:Core/Src/fatfs_sd.c **** 	{
 340:Core/Src/fatfs_sd.c **** 		Stat &= ~STA_NOINIT;
 341:Core/Src/fatfs_sd.c **** 	}
 342:Core/Src/fatfs_sd.c **** 	else
 343:Core/Src/fatfs_sd.c **** 	{
 344:Core/Src/fatfs_sd.c **** 		/* Initialization failed */
 345:Core/Src/fatfs_sd.c **** 		SD_PowerOff();
 346:Core/Src/fatfs_sd.c **** 	}
 347:Core/Src/fatfs_sd.c **** 
 348:Core/Src/fatfs_sd.c **** 	return Stat;
 349:Core/Src/fatfs_sd.c **** }
 897              		.loc 1 349 1 view .LVU215
 898 001a 03B0     		add	sp, sp, #12
 899              	.LCFI19:
 900              		.cfi_remember_state
 901              		.cfi_def_cfa_offset 12
 902              		@ sp needed
 903 001c 30BD     		pop	{r4, r5, pc}
 904              	.LVL78:
 905              	.L83:
 906              	.LCFI20:
 907              		.cfi_restore_state
 263:Core/Src/fatfs_sd.c **** 
 908              		.loc 1 263 2 is_stmt 1 view .LVU216
 909 001e FFF7FEFF 		bl	SD_PowerOn
 910              	.LVL79:
 266:Core/Src/fatfs_sd.c **** 
 911              		.loc 1 266 2 view .LVU217
ARM GAS  C:\Users\samue\AppData\Local\Temp\ccYpbNyc.s 			page 26


 912 0022 FFF7FEFF 		bl	SELECT
 913              	.LVL80:
 269:Core/Src/fatfs_sd.c **** 
 914              		.loc 1 269 2 view .LVU218
 272:Core/Src/fatfs_sd.c **** 	{
 915              		.loc 1 272 2 view .LVU219
 272:Core/Src/fatfs_sd.c **** 	{
 916              		.loc 1 272 6 is_stmt 0 view .LVU220
 917 0026 0021     		movs	r1, #0
 918 0028 4020     		movs	r0, #64
 919 002a FFF7FEFF 		bl	SD_SendCmd
 920              	.LVL81:
 921 002e 0546     		mov	r5, r0
 272:Core/Src/fatfs_sd.c **** 	{
 922              		.loc 1 272 5 view .LVU221
 923 0030 0128     		cmp	r0, #1
 924 0032 11D0     		beq	.L108
 925              	.LVL82:
 926              	.L84:
 331:Core/Src/fatfs_sd.c **** 
 927              		.loc 1 331 2 is_stmt 1 view .LVU222
 331:Core/Src/fatfs_sd.c **** 
 928              		.loc 1 331 11 is_stmt 0 view .LVU223
 929 0034 514B     		ldr	r3, .L113+4
 930 0036 1C70     		strb	r4, [r3]
 334:Core/Src/fatfs_sd.c **** 	SPI_RxByte();
 931              		.loc 1 334 2 is_stmt 1 view .LVU224
 932 0038 FFF7FEFF 		bl	DESELECT
 933              	.LVL83:
 335:Core/Src/fatfs_sd.c **** 
 934              		.loc 1 335 2 view .LVU225
 935 003c FFF7FEFF 		bl	SPI_RxByte
 936              	.LVL84:
 338:Core/Src/fatfs_sd.c **** 	{
 937              		.loc 1 338 2 view .LVU226
 338:Core/Src/fatfs_sd.c **** 	{
 938              		.loc 1 338 5 is_stmt 0 view .LVU227
 939 0040 002C     		cmp	r4, #0
 940 0042 00F09380 		beq	.L98
 340:Core/Src/fatfs_sd.c **** 	}
 941              		.loc 1 340 3 is_stmt 1 view .LVU228
 340:Core/Src/fatfs_sd.c **** 	}
 942              		.loc 1 340 8 is_stmt 0 view .LVU229
 943 0046 4C4A     		ldr	r2, .L113
 944 0048 1378     		ldrb	r3, [r2]	@ zero_extendqisi2
 945 004a 03F0FE03 		and	r3, r3, #254
 946 004e 1370     		strb	r3, [r2]
 947              	.L99:
 348:Core/Src/fatfs_sd.c **** }
 948              		.loc 1 348 2 is_stmt 1 view .LVU230
 348:Core/Src/fatfs_sd.c **** }
 949              		.loc 1 348 9 is_stmt 0 view .LVU231
 950 0050 494B     		ldr	r3, .L113
 951 0052 1878     		ldrb	r0, [r3]	@ zero_extendqisi2
 952 0054 C0B2     		uxtb	r0, r0
 953 0056 E0E7     		b	.L82
 954              	.LVL85:
ARM GAS  C:\Users\samue\AppData\Local\Temp\ccYpbNyc.s 			page 27


 955              	.L108:
 275:Core/Src/fatfs_sd.c **** 
 956              		.loc 1 275 3 is_stmt 1 view .LVU232
 275:Core/Src/fatfs_sd.c **** 
 957              		.loc 1 275 10 is_stmt 0 view .LVU233
 958 0058 494B     		ldr	r3, .L113+8
 959 005a 4FF47A72 		mov	r2, #1000
 960 005e 1A80     		strh	r2, [r3]	@ movhi
 278:Core/Src/fatfs_sd.c **** 		{
 961              		.loc 1 278 3 is_stmt 1 view .LVU234
 278:Core/Src/fatfs_sd.c **** 		{
 962              		.loc 1 278 7 is_stmt 0 view .LVU235
 963 0060 4FF4D571 		mov	r1, #426
 964 0064 4820     		movs	r0, #72
 965 0066 FFF7FEFF 		bl	SD_SendCmd
 966              	.LVL86:
 278:Core/Src/fatfs_sd.c **** 		{
 967              		.loc 1 278 6 view .LVU236
 968 006a 0128     		cmp	r0, #1
 969 006c 45D1     		bne	.L109
 281:Core/Src/fatfs_sd.c **** 			{
 970              		.loc 1 281 11 view .LVU237
 971 006e 2546     		mov	r5, r4
 972 0070 08E0     		b	.L85
 973              	.LVL87:
 974              	.L87:
 283:Core/Src/fatfs_sd.c **** 			}
 975              		.loc 1 283 5 is_stmt 1 discriminator 3 view .LVU238
 283:Core/Src/fatfs_sd.c **** 			}
 976              		.loc 1 283 14 is_stmt 0 discriminator 3 view .LVU239
 977 0072 FFF7FEFF 		bl	SPI_RxByte
 978              	.LVL88:
 283:Core/Src/fatfs_sd.c **** 			}
 979              		.loc 1 283 12 discriminator 3 view .LVU240
 980 0076 05F10803 		add	r3, r5, #8
 981 007a 6B44     		add	r3, sp, r3
 982 007c 03F8040C 		strb	r0, [r3, #-4]
 281:Core/Src/fatfs_sd.c **** 			{
 983              		.loc 1 281 23 is_stmt 1 discriminator 3 view .LVU241
 281:Core/Src/fatfs_sd.c **** 			{
 984              		.loc 1 281 24 is_stmt 0 discriminator 3 view .LVU242
 985 0080 0135     		adds	r5, r5, #1
 986              	.LVL89:
 281:Core/Src/fatfs_sd.c **** 			{
 987              		.loc 1 281 24 discriminator 3 view .LVU243
 988 0082 EDB2     		uxtb	r5, r5
 989              	.LVL90:
 990              	.L85:
 281:Core/Src/fatfs_sd.c **** 			{
 991              		.loc 1 281 16 is_stmt 1 discriminator 1 view .LVU244
 281:Core/Src/fatfs_sd.c **** 			{
 992              		.loc 1 281 4 is_stmt 0 discriminator 1 view .LVU245
 993 0084 032D     		cmp	r5, #3
 994 0086 F4D9     		bls	.L87
 287:Core/Src/fatfs_sd.c **** 			{
 995              		.loc 1 287 4 is_stmt 1 view .LVU246
 287:Core/Src/fatfs_sd.c **** 			{
ARM GAS  C:\Users\samue\AppData\Local\Temp\ccYpbNyc.s 			page 28


 996              		.loc 1 287 11 is_stmt 0 view .LVU247
 997 0088 9DF80630 		ldrb	r3, [sp, #6]	@ zero_extendqisi2
 287:Core/Src/fatfs_sd.c **** 			{
 998              		.loc 1 287 7 view .LVU248
 999 008c 012B     		cmp	r3, #1
 1000 008e D1D1     		bne	.L84
 287:Core/Src/fatfs_sd.c **** 			{
 1001              		.loc 1 287 29 discriminator 1 view .LVU249
 1002 0090 9DF80730 		ldrb	r3, [sp, #7]	@ zero_extendqisi2
 287:Core/Src/fatfs_sd.c **** 			{
 1003              		.loc 1 287 23 discriminator 1 view .LVU250
 1004 0094 AA2B     		cmp	r3, #170
 1005 0096 CDD1     		bne	.L84
 1006 0098 03E0     		b	.L90
 1007              	.L88:
 292:Core/Src/fatfs_sd.c **** 
 1008              		.loc 1 292 13 is_stmt 1 view .LVU251
 292:Core/Src/fatfs_sd.c **** 
 1009              		.loc 1 292 14 is_stmt 0 view .LVU252
 1010 009a 394B     		ldr	r3, .L113+8
 1011 009c 1B88     		ldrh	r3, [r3]
 1012 009e 9BB2     		uxth	r3, r3
 292:Core/Src/fatfs_sd.c **** 
 1013              		.loc 1 292 5 view .LVU253
 1014 00a0 63B1     		cbz	r3, .L89
 1015              	.L90:
 290:Core/Src/fatfs_sd.c **** 					if (SD_SendCmd(CMD55, 0) <= 1 && SD_SendCmd(CMD41, 1UL << 30) == 0) break;
 1016              		.loc 1 290 5 is_stmt 1 view .LVU254
 291:Core/Src/fatfs_sd.c **** 				} while (Timer1);
 1017              		.loc 1 291 6 view .LVU255
 291:Core/Src/fatfs_sd.c **** 				} while (Timer1);
 1018              		.loc 1 291 10 is_stmt 0 view .LVU256
 1019 00a2 0021     		movs	r1, #0
 1020 00a4 7720     		movs	r0, #119
 1021 00a6 FFF7FEFF 		bl	SD_SendCmd
 1022              	.LVL91:
 291:Core/Src/fatfs_sd.c **** 				} while (Timer1);
 1023              		.loc 1 291 9 view .LVU257
 1024 00aa 0128     		cmp	r0, #1
 1025 00ac F5D8     		bhi	.L88
 291:Core/Src/fatfs_sd.c **** 				} while (Timer1);
 1026              		.loc 1 291 39 discriminator 1 view .LVU258
 1027 00ae 4FF08041 		mov	r1, #1073741824
 1028 00b2 6920     		movs	r0, #105
 1029 00b4 FFF7FEFF 		bl	SD_SendCmd
 1030              	.LVL92:
 291:Core/Src/fatfs_sd.c **** 				} while (Timer1);
 1031              		.loc 1 291 36 discriminator 1 view .LVU259
 1032 00b8 0028     		cmp	r0, #0
 1033 00ba EED1     		bne	.L88
 1034              	.L89:
 295:Core/Src/fatfs_sd.c **** 				{
 1035              		.loc 1 295 5 is_stmt 1 view .LVU260
 295:Core/Src/fatfs_sd.c **** 				{
 1036              		.loc 1 295 9 is_stmt 0 view .LVU261
 1037 00bc 304B     		ldr	r3, .L113+8
 1038 00be 1B88     		ldrh	r3, [r3]
ARM GAS  C:\Users\samue\AppData\Local\Temp\ccYpbNyc.s 			page 29


 1039 00c0 9BB2     		uxth	r3, r3
 295:Core/Src/fatfs_sd.c **** 				{
 1040              		.loc 1 295 8 view .LVU262
 1041 00c2 002B     		cmp	r3, #0
 1042 00c4 B6D0     		beq	.L84
 295:Core/Src/fatfs_sd.c **** 				{
 1043              		.loc 1 295 19 discriminator 1 view .LVU263
 1044 00c6 0021     		movs	r1, #0
 1045 00c8 7A20     		movs	r0, #122
 1046 00ca FFF7FEFF 		bl	SD_SendCmd
 1047              	.LVL93:
 295:Core/Src/fatfs_sd.c **** 				{
 1048              		.loc 1 295 16 discriminator 1 view .LVU264
 1049 00ce 0546     		mov	r5, r0
 1050              	.LVL94:
 295:Core/Src/fatfs_sd.c **** 				{
 1051              		.loc 1 295 16 discriminator 1 view .LVU265
 1052 00d0 0028     		cmp	r0, #0
 1053 00d2 AFD1     		bne	.L84
 1054              	.L91:
 1055              	.LVL95:
 298:Core/Src/fatfs_sd.c **** 					{
 1056              		.loc 1 298 18 is_stmt 1 discriminator 1 view .LVU266
 298:Core/Src/fatfs_sd.c **** 					{
 1057              		.loc 1 298 6 is_stmt 0 discriminator 1 view .LVU267
 1058 00d4 032D     		cmp	r5, #3
 1059 00d6 09D8     		bhi	.L110
 300:Core/Src/fatfs_sd.c **** 					}
 1060              		.loc 1 300 7 is_stmt 1 discriminator 3 view .LVU268
 300:Core/Src/fatfs_sd.c **** 					}
 1061              		.loc 1 300 16 is_stmt 0 discriminator 3 view .LVU269
 1062 00d8 FFF7FEFF 		bl	SPI_RxByte
 1063              	.LVL96:
 300:Core/Src/fatfs_sd.c **** 					}
 1064              		.loc 1 300 14 discriminator 3 view .LVU270
 1065 00dc 05F10803 		add	r3, r5, #8
 1066 00e0 6B44     		add	r3, sp, r3
 1067 00e2 03F8040C 		strb	r0, [r3, #-4]
 298:Core/Src/fatfs_sd.c **** 					{
 1068              		.loc 1 298 25 is_stmt 1 discriminator 3 view .LVU271
 298:Core/Src/fatfs_sd.c **** 					{
 1069              		.loc 1 298 26 is_stmt 0 discriminator 3 view .LVU272
 1070 00e6 0135     		adds	r5, r5, #1
 1071              	.LVL97:
 298:Core/Src/fatfs_sd.c **** 					{
 1072              		.loc 1 298 26 discriminator 3 view .LVU273
 1073 00e8 EDB2     		uxtb	r5, r5
 1074              	.LVL98:
 298:Core/Src/fatfs_sd.c **** 					{
 1075              		.loc 1 298 26 discriminator 3 view .LVU274
 1076 00ea F3E7     		b	.L91
 1077              	.L110:
 304:Core/Src/fatfs_sd.c **** 				}
 1078              		.loc 1 304 6 is_stmt 1 view .LVU275
 304:Core/Src/fatfs_sd.c **** 				}
 1079              		.loc 1 304 17 is_stmt 0 view .LVU276
 1080 00ec 9DF80430 		ldrb	r3, [sp, #4]	@ zero_extendqisi2
ARM GAS  C:\Users\samue\AppData\Local\Temp\ccYpbNyc.s 			page 30


 304:Core/Src/fatfs_sd.c **** 				}
 1081              		.loc 1 304 11 view .LVU277
 1082 00f0 13F0400F 		tst	r3, #64
 1083 00f4 38D0     		beq	.L102
 1084 00f6 0C24     		movs	r4, #12
 1085 00f8 9CE7     		b	.L84
 1086              	.LVL99:
 1087              	.L109:
 311:Core/Src/fatfs_sd.c **** 
 1088              		.loc 1 311 4 is_stmt 1 view .LVU278
 311:Core/Src/fatfs_sd.c **** 
 1089              		.loc 1 311 12 is_stmt 0 view .LVU279
 1090 00fa 0021     		movs	r1, #0
 1091 00fc 7720     		movs	r0, #119
 1092 00fe FFF7FEFF 		bl	SD_SendCmd
 1093              	.LVL100:
 311:Core/Src/fatfs_sd.c **** 
 1094              		.loc 1 311 9 view .LVU280
 1095 0102 0128     		cmp	r0, #1
 1096 0104 11D8     		bhi	.L97
 311:Core/Src/fatfs_sd.c **** 
 1097              		.loc 1 311 41 discriminator 1 view .LVU281
 1098 0106 0021     		movs	r1, #0
 1099 0108 6920     		movs	r0, #105
 1100 010a FFF7FEFF 		bl	SD_SendCmd
 1101              	.LVL101:
 311:Core/Src/fatfs_sd.c **** 
 1102              		.loc 1 311 38 discriminator 1 view .LVU282
 1103 010e 0128     		cmp	r0, #1
 1104 0110 0BD8     		bhi	.L97
 311:Core/Src/fatfs_sd.c **** 
 1105              		.loc 1 311 9 view .LVU283
 1106 0112 0225     		movs	r5, #2
 1107              	.LVL102:
 311:Core/Src/fatfs_sd.c **** 
 1108              		.loc 1 311 9 view .LVU284
 1109 0114 09E0     		b	.L97
 1110              	.LVL103:
 1111              	.L112:
 317:Core/Src/fatfs_sd.c **** 				}
 1112              		.loc 1 317 6 is_stmt 1 view .LVU285
 317:Core/Src/fatfs_sd.c **** 				}
 1113              		.loc 1 317 10 is_stmt 0 view .LVU286
 1114 0116 0021     		movs	r1, #0
 1115 0118 7720     		movs	r0, #119
 1116 011a FFF7FEFF 		bl	SD_SendCmd
 1117              	.LVL104:
 317:Core/Src/fatfs_sd.c **** 				}
 1118              		.loc 1 317 9 view .LVU287
 1119 011e 0128     		cmp	r0, #1
 1120 0120 1BD9     		bls	.L111
 1121              	.L95:
 324:Core/Src/fatfs_sd.c **** 
 1122              		.loc 1 324 12 is_stmt 1 view .LVU288
 324:Core/Src/fatfs_sd.c **** 
 1123              		.loc 1 324 13 is_stmt 0 view .LVU289
 1124 0122 174B     		ldr	r3, .L113+8
ARM GAS  C:\Users\samue\AppData\Local\Temp\ccYpbNyc.s 			page 31


 1125 0124 1B88     		ldrh	r3, [r3]
 1126 0126 9BB2     		uxth	r3, r3
 324:Core/Src/fatfs_sd.c **** 
 1127              		.loc 1 324 4 view .LVU290
 1128 0128 3BB1     		cbz	r3, .L96
 1129              	.L97:
 313:Core/Src/fatfs_sd.c **** 			{
 1130              		.loc 1 313 4 is_stmt 1 view .LVU291
 315:Core/Src/fatfs_sd.c **** 				{
 1131              		.loc 1 315 5 view .LVU292
 315:Core/Src/fatfs_sd.c **** 				{
 1132              		.loc 1 315 8 is_stmt 0 view .LVU293
 1133 012a 022D     		cmp	r5, #2
 1134 012c F3D0     		beq	.L112
 321:Core/Src/fatfs_sd.c **** 				}
 1135              		.loc 1 321 6 is_stmt 1 view .LVU294
 321:Core/Src/fatfs_sd.c **** 				}
 1136              		.loc 1 321 10 is_stmt 0 view .LVU295
 1137 012e 0021     		movs	r1, #0
 1138 0130 4120     		movs	r0, #65
 1139 0132 FFF7FEFF 		bl	SD_SendCmd
 1140              	.LVL105:
 321:Core/Src/fatfs_sd.c **** 				}
 1141              		.loc 1 321 9 view .LVU296
 1142 0136 0028     		cmp	r0, #0
 1143 0138 F3D1     		bne	.L95
 1144              	.L96:
 327:Core/Src/fatfs_sd.c **** 		}
 1145              		.loc 1 327 4 is_stmt 1 view .LVU297
 327:Core/Src/fatfs_sd.c **** 		}
 1146              		.loc 1 327 8 is_stmt 0 view .LVU298
 1147 013a 114B     		ldr	r3, .L113+8
 1148 013c 1B88     		ldrh	r3, [r3]
 1149 013e 9BB2     		uxth	r3, r3
 327:Core/Src/fatfs_sd.c **** 		}
 1150              		.loc 1 327 7 view .LVU299
 1151 0140 002B     		cmp	r3, #0
 1152 0142 3FF477AF 		beq	.L84
 327:Core/Src/fatfs_sd.c **** 		}
 1153              		.loc 1 327 19 discriminator 2 view .LVU300
 1154 0146 4FF40071 		mov	r1, #512
 1155 014a 5020     		movs	r0, #80
 1156 014c FFF7FEFF 		bl	SD_SendCmd
 1157              	.LVL106:
 327:Core/Src/fatfs_sd.c **** 		}
 1158              		.loc 1 327 16 discriminator 2 view .LVU301
 1159 0150 0028     		cmp	r0, #0
 1160 0152 7FF46FAF 		bne	.L84
 311:Core/Src/fatfs_sd.c **** 
 1161              		.loc 1 311 9 view .LVU302
 1162 0156 2C46     		mov	r4, r5
 1163 0158 6CE7     		b	.L84
 1164              	.L111:
 317:Core/Src/fatfs_sd.c **** 				}
 1165              		.loc 1 317 39 discriminator 1 view .LVU303
 1166 015a 0021     		movs	r1, #0
 1167 015c 6920     		movs	r0, #105
ARM GAS  C:\Users\samue\AppData\Local\Temp\ccYpbNyc.s 			page 32


 1168 015e FFF7FEFF 		bl	SD_SendCmd
 1169              	.LVL107:
 317:Core/Src/fatfs_sd.c **** 				}
 1170              		.loc 1 317 36 discriminator 1 view .LVU304
 1171 0162 0028     		cmp	r0, #0
 1172 0164 DDD1     		bne	.L95
 1173 0166 E8E7     		b	.L96
 1174              	.LVL108:
 1175              	.L102:
 304:Core/Src/fatfs_sd.c **** 				}
 1176              		.loc 1 304 11 view .LVU305
 1177 0168 0424     		movs	r4, #4
 1178 016a 63E7     		b	.L84
 1179              	.LVL109:
 1180              	.L98:
 345:Core/Src/fatfs_sd.c **** 	}
 1181              		.loc 1 345 3 is_stmt 1 view .LVU306
 1182 016c FFF7FEFF 		bl	SD_PowerOff
 1183              	.LVL110:
 1184 0170 6EE7     		b	.L99
 1185              	.LVL111:
 1186              	.L100:
 1187              	.LCFI21:
 1188              		.cfi_def_cfa_offset 0
 1189              		.cfi_restore 4
 1190              		.cfi_restore 5
 1191              		.cfi_restore 14
 257:Core/Src/fatfs_sd.c **** 
 1192              		.loc 1 257 17 is_stmt 0 view .LVU307
 1193 0172 0120     		movs	r0, #1
 1194              	.LVL112:
 1195              		.loc 1 349 1 view .LVU308
 1196 0174 7047     		bx	lr
 1197              	.L114:
 1198 0176 00BF     		.align	2
 1199              	.L113:
 1200 0178 00000000 		.word	.LANCHOR1
 1201 017c 00000000 		.word	.LANCHOR2
 1202 0180 00000000 		.word	Timer1
 1203              		.cfi_endproc
 1204              	.LFE143:
 1206              		.section	.text.SD_disk_status,"ax",%progbits
 1207              		.align	1
 1208              		.global	SD_disk_status
 1209              		.syntax unified
 1210              		.thumb
 1211              		.thumb_func
 1213              	SD_disk_status:
 1214              	.LVL113:
 1215              	.LFB144:
 350:Core/Src/fatfs_sd.c **** 
 351:Core/Src/fatfs_sd.c **** /* return disk status */
 352:Core/Src/fatfs_sd.c **** DSTATUS SD_disk_status(BYTE drv) 
 353:Core/Src/fatfs_sd.c **** {
 1216              		.loc 1 353 1 is_stmt 1 view -0
 1217              		.cfi_startproc
 1218              		@ args = 0, pretend = 0, frame = 0
ARM GAS  C:\Users\samue\AppData\Local\Temp\ccYpbNyc.s 			page 33


 1219              		@ frame_needed = 0, uses_anonymous_args = 0
 1220              		@ link register save eliminated.
 354:Core/Src/fatfs_sd.c **** 	if (drv) return STA_NOINIT;
 1221              		.loc 1 354 2 view .LVU310
 1222              		.loc 1 354 5 is_stmt 0 view .LVU311
 1223 0000 18B9     		cbnz	r0, .L117
 355:Core/Src/fatfs_sd.c **** 	return Stat;
 1224              		.loc 1 355 2 is_stmt 1 view .LVU312
 1225              		.loc 1 355 9 is_stmt 0 view .LVU313
 1226 0002 034B     		ldr	r3, .L118
 1227 0004 1878     		ldrb	r0, [r3]	@ zero_extendqisi2
 1228              	.LVL114:
 1229              		.loc 1 355 9 view .LVU314
 1230 0006 C0B2     		uxtb	r0, r0
 1231 0008 7047     		bx	lr
 1232              	.LVL115:
 1233              	.L117:
 354:Core/Src/fatfs_sd.c **** 	if (drv) return STA_NOINIT;
 1234              		.loc 1 354 18 view .LVU315
 1235 000a 0120     		movs	r0, #1
 1236              	.LVL116:
 356:Core/Src/fatfs_sd.c **** }
 1237              		.loc 1 356 1 view .LVU316
 1238 000c 7047     		bx	lr
 1239              	.L119:
 1240 000e 00BF     		.align	2
 1241              	.L118:
 1242 0010 00000000 		.word	.LANCHOR1
 1243              		.cfi_endproc
 1244              	.LFE144:
 1246              		.section	.text.SD_disk_read,"ax",%progbits
 1247              		.align	1
 1248              		.global	SD_disk_read
 1249              		.syntax unified
 1250              		.thumb
 1251              		.thumb_func
 1253              	SD_disk_read:
 1254              	.LVL117:
 1255              	.LFB145:
 357:Core/Src/fatfs_sd.c **** 
 358:Core/Src/fatfs_sd.c **** /* read sector */
 359:Core/Src/fatfs_sd.c **** DRESULT SD_disk_read(BYTE pdrv, BYTE* buff, DWORD sector, UINT count) 
 360:Core/Src/fatfs_sd.c **** {
 1256              		.loc 1 360 1 is_stmt 1 view -0
 1257              		.cfi_startproc
 1258              		@ args = 0, pretend = 0, frame = 0
 1259              		@ frame_needed = 0, uses_anonymous_args = 0
 361:Core/Src/fatfs_sd.c **** 	/* pdrv should be 0 */
 362:Core/Src/fatfs_sd.c **** 	if (pdrv || !count) return RES_PARERR;
 1260              		.loc 1 362 2 view .LVU318
 1261              		.loc 1 362 5 is_stmt 0 view .LVU319
 1262 0000 0028     		cmp	r0, #0
 1263 0002 3ED1     		bne	.L127
 360:Core/Src/fatfs_sd.c **** 	/* pdrv should be 0 */
 1264              		.loc 1 360 1 discriminator 2 view .LVU320
 1265 0004 70B5     		push	{r4, r5, r6, lr}
 1266              	.LCFI22:
ARM GAS  C:\Users\samue\AppData\Local\Temp\ccYpbNyc.s 			page 34


 1267              		.cfi_def_cfa_offset 16
 1268              		.cfi_offset 4, -16
 1269              		.cfi_offset 5, -12
 1270              		.cfi_offset 6, -8
 1271              		.cfi_offset 14, -4
 1272 0006 0D46     		mov	r5, r1
 1273 0008 1646     		mov	r6, r2
 1274 000a 1C46     		mov	r4, r3
 1275              		.loc 1 362 11 discriminator 2 view .LVU321
 1276 000c 002B     		cmp	r3, #0
 1277 000e 3AD0     		beq	.L128
 363:Core/Src/fatfs_sd.c **** 
 364:Core/Src/fatfs_sd.c **** 	/* no disk */
 365:Core/Src/fatfs_sd.c **** 	if (Stat & STA_NOINIT) return RES_NOTRDY;
 1278              		.loc 1 365 2 is_stmt 1 view .LVU322
 1279              		.loc 1 365 11 is_stmt 0 view .LVU323
 1280 0010 1F4B     		ldr	r3, .L136
 1281              	.LVL118:
 1282              		.loc 1 365 11 view .LVU324
 1283 0012 1B78     		ldrb	r3, [r3]	@ zero_extendqisi2
 1284              		.loc 1 365 5 view .LVU325
 1285 0014 13F0010F 		tst	r3, #1
 1286 0018 37D1     		bne	.L129
 366:Core/Src/fatfs_sd.c **** 
 367:Core/Src/fatfs_sd.c **** 	/* convert to byte address */
 368:Core/Src/fatfs_sd.c **** 	if (!(CardType & CT_SD2)) sector *= 512;
 1287              		.loc 1 368 2 is_stmt 1 view .LVU326
 1288              		.loc 1 368 17 is_stmt 0 view .LVU327
 1289 001a 1E4B     		ldr	r3, .L136+4
 1290 001c 1B78     		ldrb	r3, [r3]	@ zero_extendqisi2
 1291              		.loc 1 368 5 view .LVU328
 1292 001e 13F0040F 		tst	r3, #4
 1293 0022 00D1     		bne	.L122
 1294              		.loc 1 368 28 is_stmt 1 discriminator 1 view .LVU329
 1295              		.loc 1 368 35 is_stmt 0 discriminator 1 view .LVU330
 1296 0024 5602     		lsls	r6, r2, #9
 1297              	.LVL119:
 1298              	.L122:
 369:Core/Src/fatfs_sd.c **** 
 370:Core/Src/fatfs_sd.c **** 	SELECT();
 1299              		.loc 1 370 2 is_stmt 1 view .LVU331
 1300 0026 FFF7FEFF 		bl	SELECT
 1301              	.LVL120:
 371:Core/Src/fatfs_sd.c **** 
 372:Core/Src/fatfs_sd.c **** 	if (count == 1)
 1302              		.loc 1 372 2 view .LVU332
 1303              		.loc 1 372 5 is_stmt 0 view .LVU333
 1304 002a 012C     		cmp	r4, #1
 1305 002c 1AD0     		beq	.L135
 373:Core/Src/fatfs_sd.c **** 	{
 374:Core/Src/fatfs_sd.c **** 		/* READ_SINGLE_BLOCK */
 375:Core/Src/fatfs_sd.c **** 		if ((SD_SendCmd(CMD17, sector) == 0) && SD_RxDataBlock(buff, 512)) count = 0;
 376:Core/Src/fatfs_sd.c **** 	}
 377:Core/Src/fatfs_sd.c **** 	else
 378:Core/Src/fatfs_sd.c **** 	{
 379:Core/Src/fatfs_sd.c **** 		/* READ_MULTIPLE_BLOCK */
 380:Core/Src/fatfs_sd.c **** 		if (SD_SendCmd(CMD18, sector) == 0)
ARM GAS  C:\Users\samue\AppData\Local\Temp\ccYpbNyc.s 			page 35


 1306              		.loc 1 380 3 is_stmt 1 view .LVU334
 1307              		.loc 1 380 7 is_stmt 0 view .LVU335
 1308 002e 3146     		mov	r1, r6
 1309 0030 5220     		movs	r0, #82
 1310 0032 FFF7FEFF 		bl	SD_SendCmd
 1311              	.LVL121:
 1312              		.loc 1 380 6 view .LVU336
 1313 0036 68B9     		cbnz	r0, .L124
 1314              	.L126:
 381:Core/Src/fatfs_sd.c **** 		{
 382:Core/Src/fatfs_sd.c **** 			do {
 1315              		.loc 1 382 4 is_stmt 1 view .LVU337
 383:Core/Src/fatfs_sd.c **** 				if (!SD_RxDataBlock(buff, 512)) break;
 1316              		.loc 1 383 5 view .LVU338
 1317              		.loc 1 383 10 is_stmt 0 view .LVU339
 1318 0038 4FF40071 		mov	r1, #512
 1319 003c 2846     		mov	r0, r5
 1320 003e FFF7FEFF 		bl	SD_RxDataBlock
 1321              	.LVL122:
 1322              		.loc 1 383 8 view .LVU340
 1323 0042 18B1     		cbz	r0, .L125
 384:Core/Src/fatfs_sd.c **** 				buff += 512;
 1324              		.loc 1 384 5 is_stmt 1 view .LVU341
 1325              		.loc 1 384 10 is_stmt 0 view .LVU342
 1326 0044 05F50075 		add	r5, r5, #512
 1327              	.LVL123:
 385:Core/Src/fatfs_sd.c **** 			} while (--count);
 1328              		.loc 1 385 12 is_stmt 1 view .LVU343
 1329              		.loc 1 385 4 is_stmt 0 view .LVU344
 1330 0048 013C     		subs	r4, r4, #1
 1331              	.LVL124:
 1332              		.loc 1 385 4 view .LVU345
 1333 004a F5D1     		bne	.L126
 1334              	.L125:
 386:Core/Src/fatfs_sd.c **** 
 387:Core/Src/fatfs_sd.c **** 			/* STOP_TRANSMISSION */
 388:Core/Src/fatfs_sd.c **** 			SD_SendCmd(CMD12, 0);
 1335              		.loc 1 388 4 is_stmt 1 view .LVU346
 1336 004c 0021     		movs	r1, #0
 1337 004e 4C20     		movs	r0, #76
 1338 0050 FFF7FEFF 		bl	SD_SendCmd
 1339              	.LVL125:
 1340              	.L124:
 389:Core/Src/fatfs_sd.c **** 		}
 390:Core/Src/fatfs_sd.c **** 	}
 391:Core/Src/fatfs_sd.c **** 
 392:Core/Src/fatfs_sd.c **** 	/* Idle */
 393:Core/Src/fatfs_sd.c **** 	DESELECT();
 1341              		.loc 1 393 2 view .LVU347
 1342 0054 FFF7FEFF 		bl	DESELECT
 1343              	.LVL126:
 394:Core/Src/fatfs_sd.c **** 	SPI_RxByte();
 1344              		.loc 1 394 2 view .LVU348
 1345 0058 FFF7FEFF 		bl	SPI_RxByte
 1346              	.LVL127:
 395:Core/Src/fatfs_sd.c **** 
 396:Core/Src/fatfs_sd.c **** 	return count ? RES_ERROR : RES_OK;
ARM GAS  C:\Users\samue\AppData\Local\Temp\ccYpbNyc.s 			page 36


 1347              		.loc 1 396 2 view .LVU349
 1348              		.loc 1 396 27 is_stmt 0 view .LVU350
 1349 005c 201E     		subs	r0, r4, #0
 1350 005e 18BF     		it	ne
 1351 0060 0120     		movne	r0, #1
 1352              	.L121:
 397:Core/Src/fatfs_sd.c **** }
 1353              		.loc 1 397 1 view .LVU351
 1354 0062 70BD     		pop	{r4, r5, r6, pc}
 1355              	.LVL128:
 1356              	.L135:
 375:Core/Src/fatfs_sd.c **** 	}
 1357              		.loc 1 375 3 is_stmt 1 view .LVU352
 375:Core/Src/fatfs_sd.c **** 	}
 1358              		.loc 1 375 8 is_stmt 0 view .LVU353
 1359 0064 3146     		mov	r1, r6
 1360 0066 5120     		movs	r0, #81
 1361 0068 FFF7FEFF 		bl	SD_SendCmd
 1362              	.LVL129:
 375:Core/Src/fatfs_sd.c **** 	}
 1363              		.loc 1 375 6 view .LVU354
 1364 006c 0028     		cmp	r0, #0
 1365 006e F1D1     		bne	.L124
 375:Core/Src/fatfs_sd.c **** 	}
 1366              		.loc 1 375 43 discriminator 1 view .LVU355
 1367 0070 4FF40071 		mov	r1, #512
 1368 0074 2846     		mov	r0, r5
 1369 0076 FFF7FEFF 		bl	SD_RxDataBlock
 1370              	.LVL130:
 375:Core/Src/fatfs_sd.c **** 	}
 1371              		.loc 1 375 40 discriminator 1 view .LVU356
 1372 007a 0028     		cmp	r0, #0
 1373 007c EAD0     		beq	.L124
 375:Core/Src/fatfs_sd.c **** 	}
 1374              		.loc 1 375 76 view .LVU357
 1375 007e 0024     		movs	r4, #0
 1376              	.LVL131:
 375:Core/Src/fatfs_sd.c **** 	}
 1377              		.loc 1 375 76 view .LVU358
 1378 0080 E8E7     		b	.L124
 1379              	.LVL132:
 1380              	.L127:
 1381              	.LCFI23:
 1382              		.cfi_def_cfa_offset 0
 1383              		.cfi_restore 4
 1384              		.cfi_restore 5
 1385              		.cfi_restore 6
 1386              		.cfi_restore 14
 362:Core/Src/fatfs_sd.c **** 
 1387              		.loc 1 362 29 view .LVU359
 1388 0082 0420     		movs	r0, #4
 1389              	.LVL133:
 1390              		.loc 1 397 1 view .LVU360
 1391 0084 7047     		bx	lr
 1392              	.LVL134:
 1393              	.L128:
 1394              	.LCFI24:
ARM GAS  C:\Users\samue\AppData\Local\Temp\ccYpbNyc.s 			page 37


 1395              		.cfi_def_cfa_offset 16
 1396              		.cfi_offset 4, -16
 1397              		.cfi_offset 5, -12
 1398              		.cfi_offset 6, -8
 1399              		.cfi_offset 14, -4
 362:Core/Src/fatfs_sd.c **** 
 1400              		.loc 1 362 29 view .LVU361
 1401 0086 0420     		movs	r0, #4
 1402              	.LVL135:
 362:Core/Src/fatfs_sd.c **** 
 1403              		.loc 1 362 29 view .LVU362
 1404 0088 EBE7     		b	.L121
 1405              	.LVL136:
 1406              	.L129:
 365:Core/Src/fatfs_sd.c **** 
 1407              		.loc 1 365 32 view .LVU363
 1408 008a 0320     		movs	r0, #3
 1409              	.LVL137:
 365:Core/Src/fatfs_sd.c **** 
 1410              		.loc 1 365 32 view .LVU364
 1411 008c E9E7     		b	.L121
 1412              	.L137:
 1413 008e 00BF     		.align	2
 1414              	.L136:
 1415 0090 00000000 		.word	.LANCHOR1
 1416 0094 00000000 		.word	.LANCHOR2
 1417              		.cfi_endproc
 1418              	.LFE145:
 1420              		.section	.text.SD_disk_write,"ax",%progbits
 1421              		.align	1
 1422              		.global	SD_disk_write
 1423              		.syntax unified
 1424              		.thumb
 1425              		.thumb_func
 1427              	SD_disk_write:
 1428              	.LVL138:
 1429              	.LFB146:
 398:Core/Src/fatfs_sd.c **** 
 399:Core/Src/fatfs_sd.c **** /* write sector */
 400:Core/Src/fatfs_sd.c **** #if _USE_WRITE == 1
 401:Core/Src/fatfs_sd.c **** DRESULT SD_disk_write(BYTE pdrv, const BYTE* buff, DWORD sector, UINT count) 
 402:Core/Src/fatfs_sd.c **** {
 1430              		.loc 1 402 1 is_stmt 1 view -0
 1431              		.cfi_startproc
 1432              		@ args = 0, pretend = 0, frame = 0
 1433              		@ frame_needed = 0, uses_anonymous_args = 0
 403:Core/Src/fatfs_sd.c **** 	/* pdrv should be 0 */
 404:Core/Src/fatfs_sd.c **** 	if (pdrv || !count) return RES_PARERR;
 1434              		.loc 1 404 2 view .LVU366
 1435              		.loc 1 404 5 is_stmt 0 view .LVU367
 1436 0000 0028     		cmp	r0, #0
 1437 0002 52D1     		bne	.L146
 402:Core/Src/fatfs_sd.c **** 	/* pdrv should be 0 */
 1438              		.loc 1 402 1 discriminator 2 view .LVU368
 1439 0004 70B5     		push	{r4, r5, r6, lr}
 1440              	.LCFI25:
 1441              		.cfi_def_cfa_offset 16
ARM GAS  C:\Users\samue\AppData\Local\Temp\ccYpbNyc.s 			page 38


 1442              		.cfi_offset 4, -16
 1443              		.cfi_offset 5, -12
 1444              		.cfi_offset 6, -8
 1445              		.cfi_offset 14, -4
 1446 0006 0D46     		mov	r5, r1
 1447 0008 1646     		mov	r6, r2
 1448 000a 1C46     		mov	r4, r3
 1449              		.loc 1 404 11 discriminator 2 view .LVU369
 1450 000c 002B     		cmp	r3, #0
 1451 000e 4ED0     		beq	.L147
 405:Core/Src/fatfs_sd.c **** 
 406:Core/Src/fatfs_sd.c **** 	/* no disk */
 407:Core/Src/fatfs_sd.c **** 	if (Stat & STA_NOINIT) return RES_NOTRDY;
 1452              		.loc 1 407 2 is_stmt 1 view .LVU370
 1453              		.loc 1 407 11 is_stmt 0 view .LVU371
 1454 0010 2A4B     		ldr	r3, .L158
 1455              	.LVL139:
 1456              		.loc 1 407 11 view .LVU372
 1457 0012 1B78     		ldrb	r3, [r3]	@ zero_extendqisi2
 1458              		.loc 1 407 5 view .LVU373
 1459 0014 13F0010F 		tst	r3, #1
 1460 0018 4BD1     		bne	.L148
 408:Core/Src/fatfs_sd.c **** 
 409:Core/Src/fatfs_sd.c **** 	/* write protection */
 410:Core/Src/fatfs_sd.c **** 	if (Stat & STA_PROTECT) return RES_WRPRT;
 1461              		.loc 1 410 2 is_stmt 1 view .LVU374
 1462              		.loc 1 410 11 is_stmt 0 view .LVU375
 1463 001a 284B     		ldr	r3, .L158
 1464 001c 1B78     		ldrb	r3, [r3]	@ zero_extendqisi2
 1465              		.loc 1 410 5 view .LVU376
 1466 001e 13F0040F 		tst	r3, #4
 1467 0022 48D1     		bne	.L149
 411:Core/Src/fatfs_sd.c **** 
 412:Core/Src/fatfs_sd.c **** 	/* convert to byte address */
 413:Core/Src/fatfs_sd.c **** 	if (!(CardType & CT_SD2)) sector *= 512;
 1468              		.loc 1 413 2 is_stmt 1 view .LVU377
 1469              		.loc 1 413 17 is_stmt 0 view .LVU378
 1470 0024 264B     		ldr	r3, .L158+4
 1471 0026 1B78     		ldrb	r3, [r3]	@ zero_extendqisi2
 1472              		.loc 1 413 5 view .LVU379
 1473 0028 13F0040F 		tst	r3, #4
 1474 002c 00D1     		bne	.L140
 1475              		.loc 1 413 28 is_stmt 1 discriminator 1 view .LVU380
 1476              		.loc 1 413 35 is_stmt 0 discriminator 1 view .LVU381
 1477 002e 5602     		lsls	r6, r2, #9
 1478              	.LVL140:
 1479              	.L140:
 414:Core/Src/fatfs_sd.c **** 
 415:Core/Src/fatfs_sd.c **** 	SELECT();
 1480              		.loc 1 415 2 is_stmt 1 view .LVU382
 1481 0030 FFF7FEFF 		bl	SELECT
 1482              	.LVL141:
 416:Core/Src/fatfs_sd.c **** 
 417:Core/Src/fatfs_sd.c **** 	if (count == 1)
 1483              		.loc 1 417 2 view .LVU383
 1484              		.loc 1 417 5 is_stmt 0 view .LVU384
 1485 0034 012C     		cmp	r4, #1
ARM GAS  C:\Users\samue\AppData\Local\Temp\ccYpbNyc.s 			page 39


 1486 0036 1FD0     		beq	.L156
 418:Core/Src/fatfs_sd.c **** 	{
 419:Core/Src/fatfs_sd.c **** 		/* WRITE_BLOCK */
 420:Core/Src/fatfs_sd.c **** 		if ((SD_SendCmd(CMD24, sector) == 0) && SD_TxDataBlock(buff, 0xFE))
 421:Core/Src/fatfs_sd.c **** 			count = 0;
 422:Core/Src/fatfs_sd.c **** 	}
 423:Core/Src/fatfs_sd.c **** 	else
 424:Core/Src/fatfs_sd.c **** 	{
 425:Core/Src/fatfs_sd.c **** 		/* WRITE_MULTIPLE_BLOCK */
 426:Core/Src/fatfs_sd.c **** 		if (CardType & CT_SD1)
 1487              		.loc 1 426 3 is_stmt 1 view .LVU385
 1488              		.loc 1 426 16 is_stmt 0 view .LVU386
 1489 0038 214B     		ldr	r3, .L158+4
 1490 003a 1B78     		ldrb	r3, [r3]	@ zero_extendqisi2
 1491              		.loc 1 426 6 view .LVU387
 1492 003c 13F0020F 		tst	r3, #2
 1493 0040 28D1     		bne	.L157
 1494              	.L143:
 427:Core/Src/fatfs_sd.c **** 		{
 428:Core/Src/fatfs_sd.c **** 			SD_SendCmd(CMD55, 0);
 429:Core/Src/fatfs_sd.c **** 			SD_SendCmd(CMD23, count); /* ACMD23 */
 430:Core/Src/fatfs_sd.c **** 		}
 431:Core/Src/fatfs_sd.c **** 
 432:Core/Src/fatfs_sd.c **** 		if (SD_SendCmd(CMD25, sector) == 0)
 1495              		.loc 1 432 3 is_stmt 1 view .LVU388
 1496              		.loc 1 432 7 is_stmt 0 view .LVU389
 1497 0042 3146     		mov	r1, r6
 1498 0044 5920     		movs	r0, #89
 1499 0046 FFF7FEFF 		bl	SD_SendCmd
 1500              	.LVL142:
 1501              		.loc 1 432 6 view .LVU390
 1502 004a 68B9     		cbnz	r0, .L142
 1503              	.L145:
 433:Core/Src/fatfs_sd.c **** 		{
 434:Core/Src/fatfs_sd.c **** 			do {
 1504              		.loc 1 434 4 is_stmt 1 view .LVU391
 435:Core/Src/fatfs_sd.c **** 				if(!SD_TxDataBlock(buff, 0xFC)) break;
 1505              		.loc 1 435 5 view .LVU392
 1506              		.loc 1 435 9 is_stmt 0 view .LVU393
 1507 004c FC21     		movs	r1, #252
 1508 004e 2846     		mov	r0, r5
 1509 0050 FFF7FEFF 		bl	SD_TxDataBlock
 1510              	.LVL143:
 1511              		.loc 1 435 7 view .LVU394
 1512 0054 18B1     		cbz	r0, .L144
 436:Core/Src/fatfs_sd.c **** 				buff += 512;
 1513              		.loc 1 436 5 is_stmt 1 view .LVU395
 1514              		.loc 1 436 10 is_stmt 0 view .LVU396
 1515 0056 05F50075 		add	r5, r5, #512
 1516              	.LVL144:
 437:Core/Src/fatfs_sd.c **** 			} while (--count);
 1517              		.loc 1 437 12 is_stmt 1 view .LVU397
 1518              		.loc 1 437 4 is_stmt 0 view .LVU398
 1519 005a 013C     		subs	r4, r4, #1
 1520              	.LVL145:
 1521              		.loc 1 437 4 view .LVU399
 1522 005c F6D1     		bne	.L145
ARM GAS  C:\Users\samue\AppData\Local\Temp\ccYpbNyc.s 			page 40


 1523              	.L144:
 438:Core/Src/fatfs_sd.c **** 
 439:Core/Src/fatfs_sd.c **** 			/* STOP_TRAN token */
 440:Core/Src/fatfs_sd.c **** 			if(!SD_TxDataBlock(0, 0xFD))
 1524              		.loc 1 440 4 is_stmt 1 view .LVU400
 1525              		.loc 1 440 8 is_stmt 0 view .LVU401
 1526 005e FD21     		movs	r1, #253
 1527 0060 0020     		movs	r0, #0
 1528 0062 FFF7FEFF 		bl	SD_TxDataBlock
 1529              	.LVL146:
 1530              		.loc 1 440 6 view .LVU402
 1531 0066 F0B1     		cbz	r0, .L151
 1532              	.LVL147:
 1533              	.L142:
 441:Core/Src/fatfs_sd.c **** 			{
 442:Core/Src/fatfs_sd.c **** 				count = 1;
 443:Core/Src/fatfs_sd.c **** 			}
 444:Core/Src/fatfs_sd.c **** 		}
 445:Core/Src/fatfs_sd.c **** 	}
 446:Core/Src/fatfs_sd.c **** 
 447:Core/Src/fatfs_sd.c **** 	/* Idle */
 448:Core/Src/fatfs_sd.c **** 	DESELECT();
 1534              		.loc 1 448 2 is_stmt 1 view .LVU403
 1535 0068 FFF7FEFF 		bl	DESELECT
 1536              	.LVL148:
 449:Core/Src/fatfs_sd.c **** 	SPI_RxByte();
 1537              		.loc 1 449 2 view .LVU404
 1538 006c FFF7FEFF 		bl	SPI_RxByte
 1539              	.LVL149:
 450:Core/Src/fatfs_sd.c **** 
 451:Core/Src/fatfs_sd.c **** 	return count ? RES_ERROR : RES_OK;
 1540              		.loc 1 451 2 view .LVU405
 1541              		.loc 1 451 27 is_stmt 0 view .LVU406
 1542 0070 201E     		subs	r0, r4, #0
 1543 0072 18BF     		it	ne
 1544 0074 0120     		movne	r0, #1
 1545              	.L139:
 452:Core/Src/fatfs_sd.c **** }
 1546              		.loc 1 452 1 view .LVU407
 1547 0076 70BD     		pop	{r4, r5, r6, pc}
 1548              	.LVL150:
 1549              	.L156:
 420:Core/Src/fatfs_sd.c **** 			count = 0;
 1550              		.loc 1 420 3 is_stmt 1 view .LVU408
 420:Core/Src/fatfs_sd.c **** 			count = 0;
 1551              		.loc 1 420 8 is_stmt 0 view .LVU409
 1552 0078 3146     		mov	r1, r6
 1553 007a 5820     		movs	r0, #88
 1554 007c FFF7FEFF 		bl	SD_SendCmd
 1555              	.LVL151:
 420:Core/Src/fatfs_sd.c **** 			count = 0;
 1556              		.loc 1 420 6 view .LVU410
 1557 0080 0028     		cmp	r0, #0
 1558 0082 F1D1     		bne	.L142
 420:Core/Src/fatfs_sd.c **** 			count = 0;
 1559              		.loc 1 420 43 discriminator 1 view .LVU411
 1560 0084 FE21     		movs	r1, #254
ARM GAS  C:\Users\samue\AppData\Local\Temp\ccYpbNyc.s 			page 41


 1561 0086 2846     		mov	r0, r5
 1562 0088 FFF7FEFF 		bl	SD_TxDataBlock
 1563              	.LVL152:
 420:Core/Src/fatfs_sd.c **** 			count = 0;
 1564              		.loc 1 420 40 discriminator 1 view .LVU412
 1565 008c 0028     		cmp	r0, #0
 1566 008e EBD0     		beq	.L142
 421:Core/Src/fatfs_sd.c **** 	}
 1567              		.loc 1 421 10 view .LVU413
 1568 0090 0024     		movs	r4, #0
 1569              	.LVL153:
 421:Core/Src/fatfs_sd.c **** 	}
 1570              		.loc 1 421 10 view .LVU414
 1571 0092 E9E7     		b	.L142
 1572              	.LVL154:
 1573              	.L157:
 428:Core/Src/fatfs_sd.c **** 			SD_SendCmd(CMD23, count); /* ACMD23 */
 1574              		.loc 1 428 4 is_stmt 1 view .LVU415
 1575 0094 0021     		movs	r1, #0
 1576 0096 7720     		movs	r0, #119
 1577 0098 FFF7FEFF 		bl	SD_SendCmd
 1578              	.LVL155:
 429:Core/Src/fatfs_sd.c **** 		}
 1579              		.loc 1 429 4 view .LVU416
 1580 009c 2146     		mov	r1, r4
 1581 009e 5720     		movs	r0, #87
 1582 00a0 FFF7FEFF 		bl	SD_SendCmd
 1583              	.LVL156:
 1584 00a4 CDE7     		b	.L143
 1585              	.L151:
 442:Core/Src/fatfs_sd.c **** 			}
 1586              		.loc 1 442 11 is_stmt 0 view .LVU417
 1587 00a6 0124     		movs	r4, #1
 1588              	.LVL157:
 442:Core/Src/fatfs_sd.c **** 			}
 1589              		.loc 1 442 11 view .LVU418
 1590 00a8 DEE7     		b	.L142
 1591              	.LVL158:
 1592              	.L146:
 1593              	.LCFI26:
 1594              		.cfi_def_cfa_offset 0
 1595              		.cfi_restore 4
 1596              		.cfi_restore 5
 1597              		.cfi_restore 6
 1598              		.cfi_restore 14
 404:Core/Src/fatfs_sd.c **** 
 1599              		.loc 1 404 29 view .LVU419
 1600 00aa 0420     		movs	r0, #4
 1601              	.LVL159:
 1602              		.loc 1 452 1 view .LVU420
 1603 00ac 7047     		bx	lr
 1604              	.LVL160:
 1605              	.L147:
 1606              	.LCFI27:
 1607              		.cfi_def_cfa_offset 16
 1608              		.cfi_offset 4, -16
 1609              		.cfi_offset 5, -12
ARM GAS  C:\Users\samue\AppData\Local\Temp\ccYpbNyc.s 			page 42


 1610              		.cfi_offset 6, -8
 1611              		.cfi_offset 14, -4
 404:Core/Src/fatfs_sd.c **** 
 1612              		.loc 1 404 29 view .LVU421
 1613 00ae 0420     		movs	r0, #4
 1614              	.LVL161:
 404:Core/Src/fatfs_sd.c **** 
 1615              		.loc 1 404 29 view .LVU422
 1616 00b0 E1E7     		b	.L139
 1617              	.LVL162:
 1618              	.L148:
 407:Core/Src/fatfs_sd.c **** 
 1619              		.loc 1 407 32 view .LVU423
 1620 00b2 0320     		movs	r0, #3
 1621              	.LVL163:
 407:Core/Src/fatfs_sd.c **** 
 1622              		.loc 1 407 32 view .LVU424
 1623 00b4 DFE7     		b	.L139
 1624              	.LVL164:
 1625              	.L149:
 410:Core/Src/fatfs_sd.c **** 
 1626              		.loc 1 410 33 view .LVU425
 1627 00b6 0220     		movs	r0, #2
 1628              	.LVL165:
 410:Core/Src/fatfs_sd.c **** 
 1629              		.loc 1 410 33 view .LVU426
 1630 00b8 DDE7     		b	.L139
 1631              	.L159:
 1632 00ba 00BF     		.align	2
 1633              	.L158:
 1634 00bc 00000000 		.word	.LANCHOR1
 1635 00c0 00000000 		.word	.LANCHOR2
 1636              		.cfi_endproc
 1637              	.LFE146:
 1639              		.section	.text.SD_disk_ioctl,"ax",%progbits
 1640              		.align	1
 1641              		.global	SD_disk_ioctl
 1642              		.syntax unified
 1643              		.thumb
 1644              		.thumb_func
 1646              	SD_disk_ioctl:
 1647              	.LVL166:
 1648              	.LFB147:
 453:Core/Src/fatfs_sd.c **** #endif /* _USE_WRITE */
 454:Core/Src/fatfs_sd.c **** 
 455:Core/Src/fatfs_sd.c **** /* ioctl */
 456:Core/Src/fatfs_sd.c **** DRESULT SD_disk_ioctl(BYTE drv, BYTE ctrl, void *buff) 
 457:Core/Src/fatfs_sd.c **** {
 1649              		.loc 1 457 1 is_stmt 1 view -0
 1650              		.cfi_startproc
 1651              		@ args = 0, pretend = 0, frame = 16
 1652              		@ frame_needed = 0, uses_anonymous_args = 0
 1653              		.loc 1 457 1 is_stmt 0 view .LVU428
 1654 0000 F0B5     		push	{r4, r5, r6, r7, lr}
 1655              	.LCFI28:
 1656              		.cfi_def_cfa_offset 20
 1657              		.cfi_offset 4, -20
ARM GAS  C:\Users\samue\AppData\Local\Temp\ccYpbNyc.s 			page 43


 1658              		.cfi_offset 5, -16
 1659              		.cfi_offset 6, -12
 1660              		.cfi_offset 7, -8
 1661              		.cfi_offset 14, -4
 1662 0002 85B0     		sub	sp, sp, #20
 1663              	.LCFI29:
 1664              		.cfi_def_cfa_offset 40
 458:Core/Src/fatfs_sd.c **** 	DRESULT res;
 1665              		.loc 1 458 2 is_stmt 1 view .LVU429
 459:Core/Src/fatfs_sd.c **** 	uint8_t n, csd[16], *ptr = buff;
 1666              		.loc 1 459 2 view .LVU430
 1667              	.LVL167:
 460:Core/Src/fatfs_sd.c **** 	WORD csize;
 1668              		.loc 1 460 2 view .LVU431
 461:Core/Src/fatfs_sd.c **** 
 462:Core/Src/fatfs_sd.c **** 	/* pdrv should be 0 */
 463:Core/Src/fatfs_sd.c **** 	if (drv) return RES_PARERR;
 1669              		.loc 1 463 2 view .LVU432
 1670              		.loc 1 463 5 is_stmt 0 view .LVU433
 1671 0004 0028     		cmp	r0, #0
 1672 0006 40F0B280 		bne	.L176
 1673 000a 0D46     		mov	r5, r1
 1674 000c 1646     		mov	r6, r2
 1675 000e 0746     		mov	r7, r0
 464:Core/Src/fatfs_sd.c **** 	res = RES_ERROR;
 1676              		.loc 1 464 2 is_stmt 1 view .LVU434
 1677              	.LVL168:
 465:Core/Src/fatfs_sd.c **** 
 466:Core/Src/fatfs_sd.c **** 	if (ctrl == CTRL_POWER)
 1678              		.loc 1 466 2 view .LVU435
 1679              		.loc 1 466 5 is_stmt 0 view .LVU436
 1680 0010 0529     		cmp	r1, #5
 1681 0012 13D0     		beq	.L186
 467:Core/Src/fatfs_sd.c **** 	{
 468:Core/Src/fatfs_sd.c **** 		switch (*ptr)
 469:Core/Src/fatfs_sd.c **** 		{
 470:Core/Src/fatfs_sd.c **** 		case 0:
 471:Core/Src/fatfs_sd.c **** 			SD_PowerOff();		/* Power Off */
 472:Core/Src/fatfs_sd.c **** 			res = RES_OK;
 473:Core/Src/fatfs_sd.c **** 			break;
 474:Core/Src/fatfs_sd.c **** 		case 1:
 475:Core/Src/fatfs_sd.c **** 			SD_PowerOn();		/* Power On */
 476:Core/Src/fatfs_sd.c **** 			res = RES_OK;
 477:Core/Src/fatfs_sd.c **** 			break;
 478:Core/Src/fatfs_sd.c **** 		case 2:
 479:Core/Src/fatfs_sd.c **** 			*(ptr + 1) = SD_CheckPower();
 480:Core/Src/fatfs_sd.c **** 			res = RES_OK;		/* Power Check */
 481:Core/Src/fatfs_sd.c **** 			break;
 482:Core/Src/fatfs_sd.c **** 		default:
 483:Core/Src/fatfs_sd.c **** 			res = RES_PARERR;
 484:Core/Src/fatfs_sd.c **** 		}
 485:Core/Src/fatfs_sd.c **** 	}
 486:Core/Src/fatfs_sd.c **** 	else
 487:Core/Src/fatfs_sd.c **** 	{
 488:Core/Src/fatfs_sd.c **** 		/* no disk */
 489:Core/Src/fatfs_sd.c **** 		if (Stat & STA_NOINIT) return RES_NOTRDY;
 1682              		.loc 1 489 3 is_stmt 1 view .LVU437
ARM GAS  C:\Users\samue\AppData\Local\Temp\ccYpbNyc.s 			page 44


 1683              		.loc 1 489 12 is_stmt 0 view .LVU438
 1684 0014 584B     		ldr	r3, .L192
 1685 0016 1C78     		ldrb	r4, [r3]	@ zero_extendqisi2
 1686              		.loc 1 489 6 view .LVU439
 1687 0018 14F00104 		ands	r4, r4, #1
 1688 001c 40F0A980 		bne	.L178
 490:Core/Src/fatfs_sd.c **** 
 491:Core/Src/fatfs_sd.c **** 		SELECT();
 1689              		.loc 1 491 3 is_stmt 1 view .LVU440
 1690 0020 FFF7FEFF 		bl	SELECT
 1691              	.LVL169:
 492:Core/Src/fatfs_sd.c **** 
 493:Core/Src/fatfs_sd.c **** 		switch (ctrl)
 1692              		.loc 1 493 3 view .LVU441
 1693 0024 0D2D     		cmp	r5, #13
 1694 0026 00F29680 		bhi	.L179
 1695 002a DFE805F0 		tbb	[pc, r5]
 1696              	.L167:
 1697 002e 5E       		.byte	(.L172-.L167)/2
 1698 002f 1B       		.byte	(.L171-.L167)/2
 1699 0030 5A       		.byte	(.L170-.L167)/2
 1700 0031 94       		.byte	(.L179-.L167)/2
 1701 0032 94       		.byte	(.L179-.L167)/2
 1702 0033 94       		.byte	(.L179-.L167)/2
 1703 0034 94       		.byte	(.L179-.L167)/2
 1704 0035 94       		.byte	(.L179-.L167)/2
 1705 0036 94       		.byte	(.L179-.L167)/2
 1706 0037 94       		.byte	(.L179-.L167)/2
 1707 0038 94       		.byte	(.L179-.L167)/2
 1708 0039 64       		.byte	(.L169-.L167)/2
 1709 003a 73       		.byte	(.L168-.L167)/2
 1710 003b 82       		.byte	(.L166-.L167)/2
 1711              	.LVL170:
 1712              		.p2align 1
 1713              	.L186:
 468:Core/Src/fatfs_sd.c **** 		{
 1714              		.loc 1 468 3 view .LVU442
 468:Core/Src/fatfs_sd.c **** 		{
 1715              		.loc 1 468 11 is_stmt 0 view .LVU443
 1716 003c 1478     		ldrb	r4, [r2]	@ zero_extendqisi2
 468:Core/Src/fatfs_sd.c **** 		{
 1717              		.loc 1 468 3 view .LVU444
 1718 003e 012C     		cmp	r4, #1
 1719 0040 07D0     		beq	.L163
 1720 0042 022C     		cmp	r4, #2
 1721 0044 09D0     		beq	.L164
 1722 0046 0CB1     		cbz	r4, .L187
 1723 0048 0424     		movs	r4, #4
 1724 004a 89E0     		b	.L161
 1725              	.L187:
 471:Core/Src/fatfs_sd.c **** 			res = RES_OK;
 1726              		.loc 1 471 4 is_stmt 1 view .LVU445
 1727 004c FFF7FEFF 		bl	SD_PowerOff
 1728              	.LVL171:
 472:Core/Src/fatfs_sd.c **** 			break;
 1729              		.loc 1 472 4 view .LVU446
 473:Core/Src/fatfs_sd.c **** 		case 1:
ARM GAS  C:\Users\samue\AppData\Local\Temp\ccYpbNyc.s 			page 45


 1730              		.loc 1 473 4 view .LVU447
 1731 0050 86E0     		b	.L161
 1732              	.LVL172:
 1733              	.L163:
 475:Core/Src/fatfs_sd.c **** 			res = RES_OK;
 1734              		.loc 1 475 4 view .LVU448
 1735 0052 FFF7FEFF 		bl	SD_PowerOn
 1736              	.LVL173:
 476:Core/Src/fatfs_sd.c **** 			break;
 1737              		.loc 1 476 4 view .LVU449
 477:Core/Src/fatfs_sd.c **** 		case 2:
 1738              		.loc 1 477 4 view .LVU450
 476:Core/Src/fatfs_sd.c **** 			break;
 1739              		.loc 1 476 8 is_stmt 0 view .LVU451
 1740 0056 3C46     		mov	r4, r7
 477:Core/Src/fatfs_sd.c **** 		case 2:
 1741              		.loc 1 477 4 view .LVU452
 1742 0058 82E0     		b	.L161
 1743              	.LVL174:
 1744              	.L164:
 479:Core/Src/fatfs_sd.c **** 			res = RES_OK;		/* Power Check */
 1745              		.loc 1 479 4 is_stmt 1 view .LVU453
 479:Core/Src/fatfs_sd.c **** 			res = RES_OK;		/* Power Check */
 1746              		.loc 1 479 17 is_stmt 0 view .LVU454
 1747 005a FFF7FEFF 		bl	SD_CheckPower
 1748              	.LVL175:
 479:Core/Src/fatfs_sd.c **** 			res = RES_OK;		/* Power Check */
 1749              		.loc 1 479 15 view .LVU455
 1750 005e 7070     		strb	r0, [r6, #1]
 480:Core/Src/fatfs_sd.c **** 			break;
 1751              		.loc 1 480 4 is_stmt 1 view .LVU456
 1752              	.LVL176:
 481:Core/Src/fatfs_sd.c **** 		default:
 1753              		.loc 1 481 4 view .LVU457
 480:Core/Src/fatfs_sd.c **** 			break;
 1754              		.loc 1 480 8 is_stmt 0 view .LVU458
 1755 0060 3C46     		mov	r4, r7
 481:Core/Src/fatfs_sd.c **** 		default:
 1756              		.loc 1 481 4 view .LVU459
 1757 0062 7DE0     		b	.L161
 1758              	.LVL177:
 1759              	.L171:
 494:Core/Src/fatfs_sd.c **** 		{
 495:Core/Src/fatfs_sd.c **** 		case GET_SECTOR_COUNT:
 496:Core/Src/fatfs_sd.c **** 			/* SEND_CSD */
 497:Core/Src/fatfs_sd.c **** 			if ((SD_SendCmd(CMD9, 0) == 0) && SD_RxDataBlock(csd, 16))
 1760              		.loc 1 497 4 is_stmt 1 view .LVU460
 1761              		.loc 1 497 9 is_stmt 0 view .LVU461
 1762 0064 0021     		movs	r1, #0
 1763 0066 4920     		movs	r0, #73
 1764 0068 FFF7FEFF 		bl	SD_SendCmd
 1765              	.LVL178:
 1766              		.loc 1 497 7 view .LVU462
 1767 006c 0446     		mov	r4, r0
 1768 006e 08B1     		cbz	r0, .L188
 464:Core/Src/fatfs_sd.c **** 
 1769              		.loc 1 464 6 view .LVU463
ARM GAS  C:\Users\samue\AppData\Local\Temp\ccYpbNyc.s 			page 46


 1770 0070 2C46     		mov	r4, r5
 1771 0072 71E0     		b	.L165
 1772              	.L188:
 1773              		.loc 1 497 38 discriminator 1 view .LVU464
 1774 0074 1021     		movs	r1, #16
 1775 0076 6846     		mov	r0, sp
 1776 0078 FFF7FEFF 		bl	SD_RxDataBlock
 1777              	.LVL179:
 1778              		.loc 1 497 35 discriminator 1 view .LVU465
 1779 007c 0028     		cmp	r0, #0
 1780 007e 72D0     		beq	.L181
 498:Core/Src/fatfs_sd.c **** 			{
 499:Core/Src/fatfs_sd.c **** 				if ((csd[0] >> 6) == 1)
 1781              		.loc 1 499 5 is_stmt 1 view .LVU466
 1782              		.loc 1 499 13 is_stmt 0 view .LVU467
 1783 0080 9DF80030 		ldrb	r3, [sp]	@ zero_extendqisi2
 1784              		.loc 1 499 23 view .LVU468
 1785 0084 9B09     		lsrs	r3, r3, #6
 1786              		.loc 1 499 8 view .LVU469
 1787 0086 012B     		cmp	r3, #1
 1788 0088 1FD0     		beq	.L189
 500:Core/Src/fatfs_sd.c **** 				{
 501:Core/Src/fatfs_sd.c **** 					/* SDC V2 */
 502:Core/Src/fatfs_sd.c **** 					csize = csd[9] + ((WORD) csd[8] << 8) + 1;
 503:Core/Src/fatfs_sd.c **** 					*(DWORD*) buff = (DWORD) csize << 10;
 504:Core/Src/fatfs_sd.c **** 				}
 505:Core/Src/fatfs_sd.c **** 				else
 506:Core/Src/fatfs_sd.c **** 				{
 507:Core/Src/fatfs_sd.c **** 					/* MMC or SDC V1 */
 508:Core/Src/fatfs_sd.c **** 					n = (csd[5] & 15) + ((csd[10] & 128) >> 7) + ((csd[9] & 3) << 1) + 2;
 1789              		.loc 1 508 6 is_stmt 1 view .LVU470
 1790              		.loc 1 508 14 is_stmt 0 view .LVU471
 1791 008a 9DF80520 		ldrb	r2, [sp, #5]	@ zero_extendqisi2
 1792              		.loc 1 508 18 view .LVU472
 1793 008e 02F00F02 		and	r2, r2, #15
 1794              		.loc 1 508 31 view .LVU473
 1795 0092 9DF80A30 		ldrb	r3, [sp, #10]	@ zero_extendqisi2
 1796              		.loc 1 508 24 view .LVU474
 1797 0096 02EBD312 		add	r2, r2, r3, lsr #7
 1798              		.loc 1 508 56 view .LVU475
 1799 009a 9DF80930 		ldrb	r3, [sp, #9]	@ zero_extendqisi2
 1800              		.loc 1 508 65 view .LVU476
 1801 009e 5B00     		lsls	r3, r3, #1
 1802 00a0 03F00603 		and	r3, r3, #6
 1803              		.loc 1 508 49 view .LVU477
 1804 00a4 1A44     		add	r2, r2, r3
 1805              	.LVL180:
 509:Core/Src/fatfs_sd.c **** 					csize = (csd[8] >> 6) + ((WORD) csd[7] << 2) + ((WORD) (csd[6] & 3) << 10) + 1;
 1806              		.loc 1 509 6 is_stmt 1 view .LVU478
 1807              		.loc 1 509 18 is_stmt 0 view .LVU479
 1808 00a6 9DF80830 		ldrb	r3, [sp, #8]	@ zero_extendqisi2
 1809              		.loc 1 509 41 view .LVU480
 1810 00aa 9DF80710 		ldrb	r1, [sp, #7]	@ zero_extendqisi2
 1811              		.loc 1 509 28 view .LVU481
 1812 00ae 9B09     		lsrs	r3, r3, #6
 1813 00b0 03EB8103 		add	r3, r3, r1, lsl #2
 1814              		.loc 1 509 65 view .LVU482
ARM GAS  C:\Users\samue\AppData\Local\Temp\ccYpbNyc.s 			page 47


 1815 00b4 9DF80610 		ldrb	r1, [sp, #6]	@ zero_extendqisi2
 1816              		.loc 1 509 74 view .LVU483
 1817 00b8 8902     		lsls	r1, r1, #10
 1818 00ba 01F44061 		and	r1, r1, #3072
 1819              		.loc 1 509 51 view .LVU484
 1820 00be 0B44     		add	r3, r3, r1
 1821              		.loc 1 509 12 view .LVU485
 1822 00c0 0133     		adds	r3, r3, #1
 1823              	.LVL181:
 510:Core/Src/fatfs_sd.c **** 					*(DWORD*) buff = (DWORD) csize << (n - 9);
 1824              		.loc 1 510 6 is_stmt 1 view .LVU486
 1825              		.loc 1 510 43 is_stmt 0 view .LVU487
 1826 00c2 073A     		subs	r2, r2, #7
 1827              	.LVL182:
 1828              		.loc 1 510 37 view .LVU488
 1829 00c4 9340     		lsls	r3, r3, r2
 1830              	.LVL183:
 1831              		.loc 1 510 21 view .LVU489
 1832 00c6 3360     		str	r3, [r6]
 1833              	.LVL184:
 1834              		.loc 1 510 21 view .LVU490
 1835 00c8 46E0     		b	.L165
 1836              	.LVL185:
 1837              	.L189:
 502:Core/Src/fatfs_sd.c **** 					*(DWORD*) buff = (DWORD) csize << 10;
 1838              		.loc 1 502 6 is_stmt 1 view .LVU491
 502:Core/Src/fatfs_sd.c **** 					*(DWORD*) buff = (DWORD) csize << 10;
 1839              		.loc 1 502 17 is_stmt 0 view .LVU492
 1840 00ca 9DF80930 		ldrb	r3, [sp, #9]	@ zero_extendqisi2
 502:Core/Src/fatfs_sd.c **** 					*(DWORD*) buff = (DWORD) csize << 10;
 1841              		.loc 1 502 34 view .LVU493
 1842 00ce 9DF80820 		ldrb	r2, [sp, #8]	@ zero_extendqisi2
 502:Core/Src/fatfs_sd.c **** 					*(DWORD*) buff = (DWORD) csize << 10;
 1843              		.loc 1 502 21 view .LVU494
 1844 00d2 03EB0223 		add	r3, r3, r2, lsl #8
 1845 00d6 9BB2     		uxth	r3, r3
 502:Core/Src/fatfs_sd.c **** 					*(DWORD*) buff = (DWORD) csize << 10;
 1846              		.loc 1 502 12 view .LVU495
 1847 00d8 0133     		adds	r3, r3, #1
 1848 00da 9BB2     		uxth	r3, r3
 1849              	.LVL186:
 503:Core/Src/fatfs_sd.c **** 				}
 1850              		.loc 1 503 6 is_stmt 1 view .LVU496
 503:Core/Src/fatfs_sd.c **** 				}
 1851              		.loc 1 503 37 is_stmt 0 view .LVU497
 1852 00dc 9B02     		lsls	r3, r3, #10
 1853              	.LVL187:
 503:Core/Src/fatfs_sd.c **** 				}
 1854              		.loc 1 503 21 view .LVU498
 1855 00de 3360     		str	r3, [r6]
 1856              	.LVL188:
 503:Core/Src/fatfs_sd.c **** 				}
 1857              		.loc 1 503 21 view .LVU499
 1858 00e0 3AE0     		b	.L165
 1859              	.L170:
 511:Core/Src/fatfs_sd.c **** 				}
 512:Core/Src/fatfs_sd.c **** 				res = RES_OK;
ARM GAS  C:\Users\samue\AppData\Local\Temp\ccYpbNyc.s 			page 48


 513:Core/Src/fatfs_sd.c **** 			}
 514:Core/Src/fatfs_sd.c **** 			break;
 515:Core/Src/fatfs_sd.c **** 		case GET_SECTOR_SIZE:
 516:Core/Src/fatfs_sd.c **** 			*(WORD*) buff = 512;
 1860              		.loc 1 516 4 is_stmt 1 view .LVU500
 1861              		.loc 1 516 18 is_stmt 0 view .LVU501
 1862 00e2 4FF40073 		mov	r3, #512
 1863 00e6 3380     		strh	r3, [r6]	@ movhi
 517:Core/Src/fatfs_sd.c **** 			res = RES_OK;
 1864              		.loc 1 517 4 is_stmt 1 view .LVU502
 1865              	.LVL189:
 518:Core/Src/fatfs_sd.c **** 			break;
 1866              		.loc 1 518 4 view .LVU503
 1867 00e8 36E0     		b	.L165
 1868              	.LVL190:
 1869              	.L172:
 519:Core/Src/fatfs_sd.c **** 		case CTRL_SYNC:
 520:Core/Src/fatfs_sd.c **** 			if (SD_ReadyWait() == 0xFF) res = RES_OK;
 1870              		.loc 1 520 4 view .LVU504
 1871              		.loc 1 520 8 is_stmt 0 view .LVU505
 1872 00ea FFF7FEFF 		bl	SD_ReadyWait
 1873              	.LVL191:
 1874              		.loc 1 520 7 view .LVU506
 1875 00ee FF28     		cmp	r0, #255
 1876 00f0 3BD0     		beq	.L182
 464:Core/Src/fatfs_sd.c **** 
 1877              		.loc 1 464 6 view .LVU507
 1878 00f2 0124     		movs	r4, #1
 1879 00f4 30E0     		b	.L165
 1880              	.L169:
 521:Core/Src/fatfs_sd.c **** 			break;
 522:Core/Src/fatfs_sd.c **** 		case MMC_GET_CSD:
 523:Core/Src/fatfs_sd.c **** 			/* SEND_CSD */
 524:Core/Src/fatfs_sd.c **** 			if (SD_SendCmd(CMD9, 0) == 0 && SD_RxDataBlock(ptr, 16)) res = RES_OK;
 1881              		.loc 1 524 4 is_stmt 1 view .LVU508
 1882              		.loc 1 524 8 is_stmt 0 view .LVU509
 1883 00f6 0021     		movs	r1, #0
 1884 00f8 4920     		movs	r0, #73
 1885 00fa FFF7FEFF 		bl	SD_SendCmd
 1886              	.LVL192:
 1887              		.loc 1 524 7 view .LVU510
 1888 00fe 0446     		mov	r4, r0
 1889 0100 08B1     		cbz	r0, .L190
 464:Core/Src/fatfs_sd.c **** 
 1890              		.loc 1 464 6 view .LVU511
 1891 0102 0124     		movs	r4, #1
 1892 0104 28E0     		b	.L165
 1893              	.L190:
 1894              		.loc 1 524 36 discriminator 1 view .LVU512
 1895 0106 1021     		movs	r1, #16
 1896 0108 3046     		mov	r0, r6
 1897 010a FFF7FEFF 		bl	SD_RxDataBlock
 1898              	.LVL193:
 1899              		.loc 1 524 33 discriminator 1 view .LVU513
 1900 010e 18BB     		cbnz	r0, .L165
 464:Core/Src/fatfs_sd.c **** 
 1901              		.loc 1 464 6 view .LVU514
ARM GAS  C:\Users\samue\AppData\Local\Temp\ccYpbNyc.s 			page 49


 1902 0110 0124     		movs	r4, #1
 1903 0112 21E0     		b	.L165
 1904              	.L168:
 525:Core/Src/fatfs_sd.c **** 			break;
 526:Core/Src/fatfs_sd.c **** 		case MMC_GET_CID:
 527:Core/Src/fatfs_sd.c **** 			/* SEND_CID */
 528:Core/Src/fatfs_sd.c **** 			if (SD_SendCmd(CMD10, 0) == 0 && SD_RxDataBlock(ptr, 16)) res = RES_OK;
 1905              		.loc 1 528 4 is_stmt 1 view .LVU515
 1906              		.loc 1 528 8 is_stmt 0 view .LVU516
 1907 0114 0021     		movs	r1, #0
 1908 0116 4A20     		movs	r0, #74
 1909 0118 FFF7FEFF 		bl	SD_SendCmd
 1910              	.LVL194:
 1911              		.loc 1 528 7 view .LVU517
 1912 011c 0446     		mov	r4, r0
 1913 011e 08B1     		cbz	r0, .L191
 464:Core/Src/fatfs_sd.c **** 
 1914              		.loc 1 464 6 view .LVU518
 1915 0120 0124     		movs	r4, #1
 1916 0122 19E0     		b	.L165
 1917              	.L191:
 1918              		.loc 1 528 37 discriminator 1 view .LVU519
 1919 0124 1021     		movs	r1, #16
 1920 0126 3046     		mov	r0, r6
 1921 0128 FFF7FEFF 		bl	SD_RxDataBlock
 1922              	.LVL195:
 1923              		.loc 1 528 34 discriminator 1 view .LVU520
 1924 012c A0B9     		cbnz	r0, .L165
 464:Core/Src/fatfs_sd.c **** 
 1925              		.loc 1 464 6 view .LVU521
 1926 012e 0124     		movs	r4, #1
 1927 0130 12E0     		b	.L165
 1928              	.L166:
 529:Core/Src/fatfs_sd.c **** 			break;
 530:Core/Src/fatfs_sd.c **** 		case MMC_GET_OCR:
 531:Core/Src/fatfs_sd.c **** 			/* READ_OCR */
 532:Core/Src/fatfs_sd.c **** 			if (SD_SendCmd(CMD58, 0) == 0)
 1929              		.loc 1 532 4 is_stmt 1 view .LVU522
 1930              		.loc 1 532 8 is_stmt 0 view .LVU523
 1931 0132 0021     		movs	r1, #0
 1932 0134 7A20     		movs	r0, #122
 1933 0136 FFF7FEFF 		bl	SD_SendCmd
 1934              	.LVL196:
 1935              		.loc 1 532 7 view .LVU524
 1936 013a 0446     		mov	r4, r0
 1937 013c 38B1     		cbz	r0, .L174
 533:Core/Src/fatfs_sd.c **** 			{
 534:Core/Src/fatfs_sd.c **** 				for (n = 0; n < 4; n++)
 535:Core/Src/fatfs_sd.c **** 				{
 536:Core/Src/fatfs_sd.c **** 					*ptr++ = SPI_RxByte();
 537:Core/Src/fatfs_sd.c **** 				}
 538:Core/Src/fatfs_sd.c **** 				res = RES_OK;
 539:Core/Src/fatfs_sd.c **** 			}
 540:Core/Src/fatfs_sd.c **** 		default:
 541:Core/Src/fatfs_sd.c **** 			res = RES_PARERR;
 1938              		.loc 1 541 8 view .LVU525
 1939 013e 0424     		movs	r4, #4
ARM GAS  C:\Users\samue\AppData\Local\Temp\ccYpbNyc.s 			page 50


 1940 0140 0AE0     		b	.L165
 1941              	.LVL197:
 1942              	.L175:
 536:Core/Src/fatfs_sd.c **** 				}
 1943              		.loc 1 536 6 is_stmt 1 discriminator 3 view .LVU526
 536:Core/Src/fatfs_sd.c **** 				}
 1944              		.loc 1 536 15 is_stmt 0 discriminator 3 view .LVU527
 1945 0142 FFF7FEFF 		bl	SPI_RxByte
 1946              	.LVL198:
 536:Core/Src/fatfs_sd.c **** 				}
 1947              		.loc 1 536 13 discriminator 3 view .LVU528
 1948 0146 06F8010B 		strb	r0, [r6], #1
 1949              	.LVL199:
 534:Core/Src/fatfs_sd.c **** 				{
 1950              		.loc 1 534 24 is_stmt 1 discriminator 3 view .LVU529
 534:Core/Src/fatfs_sd.c **** 				{
 1951              		.loc 1 534 25 is_stmt 0 discriminator 3 view .LVU530
 1952 014a 0134     		adds	r4, r4, #1
 1953              	.LVL200:
 534:Core/Src/fatfs_sd.c **** 				{
 1954              		.loc 1 534 25 discriminator 3 view .LVU531
 1955 014c E4B2     		uxtb	r4, r4
 1956              	.LVL201:
 1957              	.L174:
 534:Core/Src/fatfs_sd.c **** 				{
 1958              		.loc 1 534 17 is_stmt 1 discriminator 1 view .LVU532
 534:Core/Src/fatfs_sd.c **** 				{
 1959              		.loc 1 534 5 is_stmt 0 discriminator 1 view .LVU533
 1960 014e 032C     		cmp	r4, #3
 1961 0150 F7D9     		bls	.L175
 1962              		.loc 1 541 8 view .LVU534
 1963 0152 0424     		movs	r4, #4
 1964              	.LVL202:
 1965              		.loc 1 541 8 view .LVU535
 1966 0154 00E0     		b	.L165
 1967              	.LVL203:
 1968              	.L179:
 493:Core/Src/fatfs_sd.c **** 		{
 1969              		.loc 1 493 3 view .LVU536
 1970 0156 0424     		movs	r4, #4
 1971              	.LVL204:
 1972              	.L165:
 542:Core/Src/fatfs_sd.c **** 		}
 543:Core/Src/fatfs_sd.c **** 
 544:Core/Src/fatfs_sd.c **** 		DESELECT();
 1973              		.loc 1 544 3 is_stmt 1 view .LVU537
 1974 0158 FFF7FEFF 		bl	DESELECT
 1975              	.LVL205:
 545:Core/Src/fatfs_sd.c **** 		SPI_RxByte();
 1976              		.loc 1 545 3 view .LVU538
 1977 015c FFF7FEFF 		bl	SPI_RxByte
 1978              	.LVL206:
 1979              	.L161:
 546:Core/Src/fatfs_sd.c **** 	}
 547:Core/Src/fatfs_sd.c **** 
 548:Core/Src/fatfs_sd.c **** 	return res;
 549:Core/Src/fatfs_sd.c **** }
ARM GAS  C:\Users\samue\AppData\Local\Temp\ccYpbNyc.s 			page 51


 1980              		.loc 1 549 1 is_stmt 0 view .LVU539
 1981 0160 2046     		mov	r0, r4
 1982 0162 05B0     		add	sp, sp, #20
 1983              	.LCFI30:
 1984              		.cfi_remember_state
 1985              		.cfi_def_cfa_offset 20
 1986              		@ sp needed
 1987 0164 F0BD     		pop	{r4, r5, r6, r7, pc}
 1988              	.LVL207:
 1989              	.L181:
 1990              	.LCFI31:
 1991              		.cfi_restore_state
 464:Core/Src/fatfs_sd.c **** 
 1992              		.loc 1 464 6 view .LVU540
 1993 0166 2C46     		mov	r4, r5
 1994 0168 F6E7     		b	.L165
 1995              	.L182:
 520:Core/Src/fatfs_sd.c **** 			break;
 1996              		.loc 1 520 36 view .LVU541
 1997 016a 2C46     		mov	r4, r5
 1998 016c F4E7     		b	.L165
 1999              	.LVL208:
 2000              	.L176:
 463:Core/Src/fatfs_sd.c **** 	res = RES_ERROR;
 2001              		.loc 1 463 18 view .LVU542
 2002 016e 0424     		movs	r4, #4
 2003 0170 F6E7     		b	.L161
 2004              	.LVL209:
 2005              	.L178:
 489:Core/Src/fatfs_sd.c **** 
 2006              		.loc 1 489 33 view .LVU543
 2007 0172 0324     		movs	r4, #3
 2008 0174 F4E7     		b	.L161
 2009              	.L193:
 2010 0176 00BF     		.align	2
 2011              	.L192:
 2012 0178 00000000 		.word	.LANCHOR1
 2013              		.cfi_endproc
 2014              	.LFE147:
 2016              		.section	.bss.CardType,"aw",%nobits
 2017              		.set	.LANCHOR2,. + 0
 2020              	CardType:
 2021 0000 00       		.space	1
 2022              		.section	.bss.PowerFlag,"aw",%nobits
 2023              		.set	.LANCHOR0,. + 0
 2026              	PowerFlag:
 2027 0000 00       		.space	1
 2028              		.section	.data.Stat,"aw"
 2029              		.set	.LANCHOR1,. + 0
 2032              	Stat:
 2033 0000 01       		.byte	1
 2034              		.text
 2035              	.Letext0:
 2036              		.file 2 "c:\\dev_tools\\gcc-arm-none-eabi-10.3-2021.10-win32\\gcc-arm-none-eabi-10.3-2021.10\\arm-
 2037              		.file 3 "c:\\dev_tools\\gcc-arm-none-eabi-10.3-2021.10-win32\\gcc-arm-none-eabi-10.3-2021.10\\arm-
 2038              		.file 4 "Drivers/CMSIS/Device/ST/STM32F4xx/Include/stm32f411xe.h"
 2039              		.file 5 "Drivers/STM32F4xx_HAL_Driver/Inc/stm32f4xx_hal_def.h"
ARM GAS  C:\Users\samue\AppData\Local\Temp\ccYpbNyc.s 			page 52


 2040              		.file 6 "Drivers/STM32F4xx_HAL_Driver/Inc/stm32f4xx_hal_gpio.h"
 2041              		.file 7 "Drivers/STM32F4xx_HAL_Driver/Inc/stm32f4xx_hal_dma.h"
 2042              		.file 8 "Drivers/STM32F4xx_HAL_Driver/Inc/stm32f4xx_hal_spi.h"
 2043              		.file 9 "Middlewares/Third_Party/FatFs/src/integer.h"
 2044              		.file 10 "Middlewares/Third_Party/FatFs/src/diskio.h"
 2045              		.file 11 "Drivers/STM32F4xx_HAL_Driver/Inc/stm32f4xx_hal.h"
ARM GAS  C:\Users\samue\AppData\Local\Temp\ccYpbNyc.s 			page 53

