ARM GAS  C:\Users\samue\AppData\Local\Temp\cc637gki.s 			page 1


   1              		.cpu cortex-m4
   2              		.arch armv7e-m
   3              		.fpu fpv4-sp-d16
   4              		.eabi_attribute 27, 1
   5              		.eabi_attribute 28, 1
   6              		.eabi_attribute 20, 1
   7              		.eabi_attribute 21, 1
   8              		.eabi_attribute 23, 3
   9              		.eabi_attribute 24, 1
  10              		.eabi_attribute 25, 1
  11              		.eabi_attribute 26, 1
  12              		.eabi_attribute 30, 1
  13              		.eabi_attribute 34, 1
  14              		.eabi_attribute 18, 4
  15              		.file	"main_functions.c"
  16              		.text
  17              	.Ltext0:
  18              		.cfi_sections	.debug_frame
  19              		.section	.rodata.accel_cal_prep.str1.4,"aMS",%progbits,1
  20              		.align	2
  21              	.LC0:
  22 0000 506F7369 		.ascii	"Position the\000"
  22      74696F6E 
  22      20746865 
  22      00
  23 000d 000000   		.align	2
  24              	.LC1:
  25 0010 61636365 		.ascii	"accelerometer to its\000"
  25      6C65726F 
  25      6D657465 
  25      7220746F 
  25      20697473 
  26 0025 000000   		.align	2
  27              	.LC2:
  28 0028 7A65726F 		.ascii	"zero position\000"
  28      20706F73 
  28      6974696F 
  28      6E00
  29              		.section	.text.accel_cal_prep,"ax",%progbits
  30              		.align	1
  31              		.global	accel_cal_prep
  32              		.syntax unified
  33              		.thumb
  34              		.thumb_func
  36              	accel_cal_prep:
  37              	.LFB137:
  38              		.file 1 "Core/Src/main_functions.c"
   1:Core/Src/main_functions.c **** /*
   2:Core/Src/main_functions.c ****  * File: main_functions.c
   3:Core/Src/main_functions.c ****  * Purpose: Main source file created to avoid using main.c as much as possible due 
   4:Core/Src/main_functions.c ****  *          to all the generated code by STM32CubeMX making it hard to read.  
   5:Core/Src/main_functions.c ****  * 
   6:Core/Src/main_functions.c ****  * Created on: Sep 20, 2021
   7:Core/Src/main_functions.c ****  * Author: External
   8:Core/Src/main_functions.c ****  */
   9:Core/Src/main_functions.c **** 
  10:Core/Src/main_functions.c **** /* 
ARM GAS  C:\Users\samue\AppData\Local\Temp\cc637gki.s 			page 2


  11:Core/Src/main_functions.c ****  * ---------------------------------------------------------------------------------------------
  12:Core/Src/main_functions.c ****  * Libraries and Header Files
  13:Core/Src/main_functions.c ****  * ---------------------------------------------------------------------------------------------
  14:Core/Src/main_functions.c ****  */
  15:Core/Src/main_functions.c **** 
  16:Core/Src/main_functions.c **** #include <stdio.h>
  17:Core/Src/main_functions.c **** #include <stdlib.h>
  18:Core/Src/main_functions.c **** #include <stdint.h>
  19:Core/Src/main_functions.c **** #include <string.h>
  20:Core/Src/main_functions.c **** 
  21:Core/Src/main_functions.c **** #include "main.h"
  22:Core/Src/main_functions.c **** #include "main_functions.h"
  23:Core/Src/main_functions.c **** #include "i2c-lcd.h"
  24:Core/Src/main_functions.c **** #include "accelerometer_data.h"
  25:Core/Src/main_functions.c **** #include "fatfs_sd.h"
  26:Core/Src/main_functions.c **** #include "sd-card-spi.h"
  27:Core/Src/main_functions.c **** 
  28:Core/Src/main_functions.c **** 
  29:Core/Src/main_functions.c **** /* 
  30:Core/Src/main_functions.c ****  * ---------------------------------------------------------------------------------------------
  31:Core/Src/main_functions.c ****  * Variables
  32:Core/Src/main_functions.c ****  * ---------------------------------------------------------------------------------------------
  33:Core/Src/main_functions.c ****  */
  34:Core/Src/main_functions.c **** 
  35:Core/Src/main_functions.c **** // External global variables 
  36:Core/Src/main_functions.c **** extern SPI_HandleTypeDef hspi2;
  37:Core/Src/main_functions.c **** extern UART_HandleTypeDef huart2;
  38:Core/Src/main_functions.c **** 
  39:Core/Src/main_functions.c **** // Interrupt flag
  40:Core/Src/main_functions.c **** uint8_t flag;
  41:Core/Src/main_functions.c **** 
  42:Core/Src/main_functions.c **** // Current state
  43:Core/Src/main_functions.c **** unsigned long state;  
  44:Core/Src/main_functions.c **** 
  45:Core/Src/main_functions.c **** // Accelerometer data handlers 
  46:Core/Src/main_functions.c **** int accel_data_value[9];
  47:Core/Src/main_functions.c **** float *accel_data_p;
  48:Core/Src/main_functions.c **** float accel_corr[3];
  49:Core/Src/main_functions.c **** float *accel_corr_p;
  50:Core/Src/main_functions.c **** int gyro_data_value[9];
  51:Core/Src/main_functions.c **** float *gyro_data_p;
  52:Core/Src/main_functions.c **** float gyro_corr[3];
  53:Core/Src/main_functions.c **** float *gyro_corr_p;
  54:Core/Src/main_functions.c **** float zero_corr[3] = {0.0, 0.0, 0.0};
  55:Core/Src/main_functions.c **** 
  56:Core/Src/main_functions.c **** // Accelerometer data buffer
  57:Core/Src/main_functions.c **** char buf[6];
  58:Core/Src/main_functions.c **** 
  59:Core/Src/main_functions.c **** // Position of text on LCD display 
  60:Core/Src/main_functions.c **** uint8_t line_pos;
  61:Core/Src/main_functions.c **** 
  62:Core/Src/main_functions.c **** // String to print to the LCD display 
  63:Core/Src/main_functions.c **** char Ax_string[] = "Ax=       ";
  64:Core/Src/main_functions.c **** char Ay_string[] = "Ay=       ";
  65:Core/Src/main_functions.c **** char Az_string[] = "Az=       ";
  66:Core/Src/main_functions.c **** char Gx_string[] = "Gx=       ";
  67:Core/Src/main_functions.c **** char Gy_string[] = "Gy=       ";
ARM GAS  C:\Users\samue\AppData\Local\Temp\cc637gki.s 			page 3


  68:Core/Src/main_functions.c **** char Gz_string[] = "Gz=       ";
  69:Core/Src/main_functions.c **** 
  70:Core/Src/main_functions.c **** 
  71:Core/Src/main_functions.c **** /* 
  72:Core/Src/main_functions.c ****  * ---------------------------------------------------------------------------------------------
  73:Core/Src/main_functions.c ****  * Structures and lists
  74:Core/Src/main_functions.c ****  * ---------------------------------------------------------------------------------------------
  75:Core/Src/main_functions.c ****  */
  76:Core/Src/main_functions.c **** 
  77:Core/Src/main_functions.c **** // Primary state machine structure
  78:Core/Src/main_functions.c **** typedef const struct BSDA {
  79:Core/Src/main_functions.c **** 	void (*output_func)(void);
  80:Core/Src/main_functions.c **** 	unsigned long time_delay;
  81:Core/Src/main_functions.c **** 	unsigned long next_state[NUM_OPTIONS];
  82:Core/Src/main_functions.c **** } BSDA;
  83:Core/Src/main_functions.c **** 
  84:Core/Src/main_functions.c **** // Primary state machine
  85:Core/Src/main_functions.c **** BSDA FSM[NUM_STATES] = {
  86:Core/Src/main_functions.c ****     {&normal,         S1_DELAY, {normal_state,         accel_cal_prep_state }},
  87:Core/Src/main_functions.c ****     {&accel_cal_prep, S2_DELAY, {accel_cal_prep_state, accel_cal_state      }},
  88:Core/Src/main_functions.c ****     {&accel_cal,      S3_DELAY, {normal_state,         normal_state         }}
  89:Core/Src/main_functions.c **** };
  90:Core/Src/main_functions.c **** 
  91:Core/Src/main_functions.c **** 
  92:Core/Src/main_functions.c **** /* 
  93:Core/Src/main_functions.c ****  * ---------------------------------------------------------------------------------------------
  94:Core/Src/main_functions.c ****  * Psudo Main Function 
  95:Core/Src/main_functions.c ****  * ---------------------------------------------------------------------------------------------
  96:Core/Src/main_functions.c ****  */
  97:Core/Src/main_functions.c **** void main_function(void) {
  98:Core/Src/main_functions.c ****      
  99:Core/Src/main_functions.c ****     flag = 0;
 100:Core/Src/main_functions.c ****     state = accel_cal_state;
 101:Core/Src/main_functions.c **** 
 102:Core/Src/main_functions.c ****     lcd_init();
 103:Core/Src/main_functions.c ****     MPU6050_Init();
 104:Core/Src/main_functions.c ****     lcd_send_string("Initialized");
 105:Core/Src/main_functions.c ****     HAL_Delay(1500);
 106:Core/Src/main_functions.c **** 
 107:Core/Src/main_functions.c ****     // SD card test 
 108:Core/Src/main_functions.c ****     sd_card(INIT);
 109:Core/Src/main_functions.c **** 
 110:Core/Src/main_functions.c ****     // sd_card(CREATE);
 111:Core/Src/main_functions.c **** 
 112:Core/Src/main_functions.c ****     // sd_card(UPDATE);
 113:Core/Src/main_functions.c **** 
 114:Core/Src/main_functions.c ****     // sd_card(REMOVE);
 115:Core/Src/main_functions.c ****     
 116:Core/Src/main_functions.c ****     // Main loop 
 117:Core/Src/main_functions.c ****     while(1) {
 118:Core/Src/main_functions.c **** 
 119:Core/Src/main_functions.c ****         // Execute state machine 
 120:Core/Src/main_functions.c ****         (FSM[state].output_func)();
 121:Core/Src/main_functions.c ****         HAL_Delay(FSM[state].time_delay);
 122:Core/Src/main_functions.c ****         state = FSM[state].next_state[flag];
 123:Core/Src/main_functions.c **** 
 124:Core/Src/main_functions.c ****     }
ARM GAS  C:\Users\samue\AppData\Local\Temp\cc637gki.s 			page 4


 125:Core/Src/main_functions.c **** }
 126:Core/Src/main_functions.c **** 
 127:Core/Src/main_functions.c **** 
 128:Core/Src/main_functions.c **** /* 
 129:Core/Src/main_functions.c ****  * ---------------------------------------------------------------------------------------------
 130:Core/Src/main_functions.c ****  * Functions
 131:Core/Src/main_functions.c ****  * ---------------------------------------------------------------------------------------------
 132:Core/Src/main_functions.c ****  */
 133:Core/Src/main_functions.c **** 
 134:Core/Src/main_functions.c **** // External Interrupt
 135:Core/Src/main_functions.c **** void HAL_GPIO_EXTI_Callback(uint16_t GPIO_Pin) {
 136:Core/Src/main_functions.c **** 	flag = 1;
 137:Core/Src/main_functions.c **** }
 138:Core/Src/main_functions.c **** 
 139:Core/Src/main_functions.c **** // Normal run mode
 140:Core/Src/main_functions.c **** void normal(void) {
 141:Core/Src/main_functions.c **** 
 142:Core/Src/main_functions.c ****     // Read linear acceleration data (x, y, z) - in units of gravity (g's)
 143:Core/Src/main_functions.c ****     accel_data_p = MPU6050_read(ACCEL_CONST, MPU6050_ADDR, ACCEL_XOUT_H_REG, accel_corr);	
 144:Core/Src/main_functions.c **** 
 145:Core/Src/main_functions.c ****     // Parse linear acceleration data (x, y, z)
 146:Core/Src/main_functions.c **** 	accel_data_value[0] = abs((int)accel_data_p[0]);
 147:Core/Src/main_functions.c **** 	accel_data_value[1] = abs((int)(10*accel_data_p[0])  % 10);
 148:Core/Src/main_functions.c ****     accel_data_value[2] = abs((int)(100*accel_data_p[0]) % 10);
 149:Core/Src/main_functions.c **** 
 150:Core/Src/main_functions.c **** 	accel_data_value[3] = abs((int)accel_data_p[1]);
 151:Core/Src/main_functions.c **** 	accel_data_value[4] = abs((int)(10*accel_data_p[1])  % 10);
 152:Core/Src/main_functions.c ****     accel_data_value[5] = abs((int)(100*accel_data_p[1]) % 10);
 153:Core/Src/main_functions.c **** 
 154:Core/Src/main_functions.c **** 	accel_data_value[6] = abs((int)accel_data_p[2]);
 155:Core/Src/main_functions.c **** 	accel_data_value[7] = abs((int)(10*accel_data_p[2])  % 10);
 156:Core/Src/main_functions.c ****     accel_data_value[8] = abs((int)(100*accel_data_p[2]) % 10);
 157:Core/Src/main_functions.c **** 
 158:Core/Src/main_functions.c ****     // Read angular acceleration data (alpha, beta, gamma) - in units of deg/s
 159:Core/Src/main_functions.c ****     gyro_data_p  = MPU6050_read(GYRO_CONST, MPU6050_ADDR, GYRO_XOUT_H_REG, gyro_corr);
 160:Core/Src/main_functions.c **** 
 161:Core/Src/main_functions.c ****      // Parse angular acceleration data (alpha, beta, gamma)
 162:Core/Src/main_functions.c ****     gyro_data_value[0] = abs((int)gyro_data_p[0]);
 163:Core/Src/main_functions.c **** 	gyro_data_value[1] = abs((int)(10*gyro_data_p[0])  % 10);
 164:Core/Src/main_functions.c ****     gyro_data_value[2] = abs((int)(100*gyro_data_p[0]) % 10);
 165:Core/Src/main_functions.c **** 
 166:Core/Src/main_functions.c **** 	gyro_data_value[3] = abs((int)gyro_data_p[1]);
 167:Core/Src/main_functions.c **** 	gyro_data_value[4] = abs((int)(10*gyro_data_p[1])  % 10);
 168:Core/Src/main_functions.c ****     gyro_data_value[5] = abs((int)(100*gyro_data_p[1]) % 10);
 169:Core/Src/main_functions.c **** 
 170:Core/Src/main_functions.c **** 	gyro_data_value[6] = abs((int)gyro_data_p[2]);
 171:Core/Src/main_functions.c **** 	gyro_data_value[7] = abs((int)(10*gyro_data_p[2])  % 10);
 172:Core/Src/main_functions.c ****     gyro_data_value[8] = abs((int)(100*gyro_data_p[2]) % 10);
 173:Core/Src/main_functions.c **** 
 174:Core/Src/main_functions.c **** 	// Print parsed data to the screen
 175:Core/Src/main_functions.c ****     // Ax
 176:Core/Src/main_functions.c ****     print_data(0x00, 0x04, 0x03, Ax_string, 0, accel_data_p[0], accel_data_value);
 177:Core/Src/main_functions.c **** 
 178:Core/Src/main_functions.c ****     // Ay
 179:Core/Src/main_functions.c ****     print_data(0x40, 0x44, 0x43, Ay_string, 3, accel_data_p[1], accel_data_value);
 180:Core/Src/main_functions.c **** 
 181:Core/Src/main_functions.c ****     // Az
ARM GAS  C:\Users\samue\AppData\Local\Temp\cc637gki.s 			page 5


 182:Core/Src/main_functions.c ****     print_data(0x14, 0x18, 0x17, Az_string, 6, accel_data_p[2], accel_data_value);
 183:Core/Src/main_functions.c **** 
 184:Core/Src/main_functions.c ****     // Gx
 185:Core/Src/main_functions.c ****     print_data(0x0A, 0x0E, 0x0D, Gx_string, 0, gyro_data_p[0], gyro_data_value);
 186:Core/Src/main_functions.c **** 
 187:Core/Src/main_functions.c ****     // Gy
 188:Core/Src/main_functions.c ****     print_data(0x4A, 0x4E, 0x4D, Gy_string, 3, gyro_data_p[1], gyro_data_value);
 189:Core/Src/main_functions.c **** 
 190:Core/Src/main_functions.c ****     // Gz
 191:Core/Src/main_functions.c ****     print_data(0x1E, 0x22, 0x21, Gz_string, 6, gyro_data_p[2], gyro_data_value);
 192:Core/Src/main_functions.c **** 
 193:Core/Src/main_functions.c ****     // To ensure any additional text that was printed to the screen is cleared
 194:Core/Src/main_functions.c **** 	lcd_send_cmd(0x80|0x54);
 195:Core/Src/main_functions.c **** 	lcd_send_string("                    ");
 196:Core/Src/main_functions.c **** }
 197:Core/Src/main_functions.c **** 
 198:Core/Src/main_functions.c **** // Print parsed data to the LCD display 
 199:Core/Src/main_functions.c **** void print_data(uint8_t pos1, uint8_t pos2, uint8_t pos3, char str[], uint8_t index, float val,
 200:Core/Src/main_functions.c ****     int data[]) {
 201:Core/Src/main_functions.c **** 
 202:Core/Src/main_functions.c ****     lcd_send_cmd(0x80|pos1);
 203:Core/Src/main_functions.c **** 	lcd_send_string(str);
 204:Core/Src/main_functions.c ****     if (val >= 0) {
 205:Core/Src/main_functions.c ****         line_pos = pos2;
 206:Core/Src/main_functions.c ****         sprintf(buf, "%d.%d%d", data[index], data[index+1], data[index+2]);
 207:Core/Src/main_functions.c ****     }
 208:Core/Src/main_functions.c ****     else {
 209:Core/Src/main_functions.c ****         line_pos = pos3;
 210:Core/Src/main_functions.c ****         sprintf(buf, "-%d.%d%d", data[index], data[index+1], data[index+2]);
 211:Core/Src/main_functions.c ****     }
 212:Core/Src/main_functions.c **** 	lcd_send_cmd(0x80|line_pos);
 213:Core/Src/main_functions.c **** 	lcd_send_string(buf);
 214:Core/Src/main_functions.c **** }
 215:Core/Src/main_functions.c **** 
 216:Core/Src/main_functions.c **** // Prepare to calibrate the accelerometer
 217:Core/Src/main_functions.c **** void accel_cal_prep(void) {
  39              		.loc 1 217 27 view -0
  40              		.cfi_startproc
  41              		@ args = 0, pretend = 0, frame = 0
  42              		@ frame_needed = 0, uses_anonymous_args = 0
  43 0000 08B5     		push	{r3, lr}
  44              	.LCFI0:
  45              		.cfi_def_cfa_offset 8
  46              		.cfi_offset 3, -8
  47              		.cfi_offset 14, -4
 218:Core/Src/main_functions.c **** 
 219:Core/Src/main_functions.c ****     if (flag == 1) {
  48              		.loc 1 219 5 view .LVU1
  49              		.loc 1 219 14 is_stmt 0 view .LVU2
  50 0002 0E4B     		ldr	r3, .L5
  51 0004 1B78     		ldrb	r3, [r3]	@ zero_extendqisi2
  52              		.loc 1 219 8 view .LVU3
  53 0006 012B     		cmp	r3, #1
  54 0008 12D0     		beq	.L4
  55              	.L2:
 220:Core/Src/main_functions.c ****         lcd_clear();
 221:Core/Src/main_functions.c ****         flag = 0;
ARM GAS  C:\Users\samue\AppData\Local\Temp\cc637gki.s 			page 6


 222:Core/Src/main_functions.c ****     }
 223:Core/Src/main_functions.c **** 
 224:Core/Src/main_functions.c **** 	lcd_send_cmd(0x80|0x00);
  56              		.loc 1 224 2 is_stmt 1 view .LVU4
  57 000a 8020     		movs	r0, #128
  58 000c FFF7FEFF 		bl	lcd_send_cmd
  59              	.LVL0:
 225:Core/Src/main_functions.c **** 	lcd_send_string("Position the");
  60              		.loc 1 225 2 view .LVU5
  61 0010 0B48     		ldr	r0, .L5+4
  62 0012 FFF7FEFF 		bl	lcd_send_string
  63              	.LVL1:
 226:Core/Src/main_functions.c **** 	lcd_send_cmd(0x80|0x40);
  64              		.loc 1 226 2 view .LVU6
  65 0016 C020     		movs	r0, #192
  66 0018 FFF7FEFF 		bl	lcd_send_cmd
  67              	.LVL2:
 227:Core/Src/main_functions.c **** 	lcd_send_string("accelerometer to its");
  68              		.loc 1 227 2 view .LVU7
  69 001c 0948     		ldr	r0, .L5+8
  70 001e FFF7FEFF 		bl	lcd_send_string
  71              	.LVL3:
 228:Core/Src/main_functions.c **** 	lcd_send_cmd(0x80|0x14);
  72              		.loc 1 228 2 view .LVU8
  73 0022 9420     		movs	r0, #148
  74 0024 FFF7FEFF 		bl	lcd_send_cmd
  75              	.LVL4:
 229:Core/Src/main_functions.c **** 	lcd_send_string("zero position");
  76              		.loc 1 229 2 view .LVU9
  77 0028 0748     		ldr	r0, .L5+12
  78 002a FFF7FEFF 		bl	lcd_send_string
  79              	.LVL5:
 230:Core/Src/main_functions.c **** }
  80              		.loc 1 230 1 is_stmt 0 view .LVU10
  81 002e 08BD     		pop	{r3, pc}
  82              	.L4:
 220:Core/Src/main_functions.c ****         flag = 0;
  83              		.loc 1 220 9 is_stmt 1 view .LVU11
  84 0030 FFF7FEFF 		bl	lcd_clear
  85              	.LVL6:
 221:Core/Src/main_functions.c ****     }
  86              		.loc 1 221 9 view .LVU12
 221:Core/Src/main_functions.c ****     }
  87              		.loc 1 221 14 is_stmt 0 view .LVU13
  88 0034 014B     		ldr	r3, .L5
  89 0036 0022     		movs	r2, #0
  90 0038 1A70     		strb	r2, [r3]
  91 003a E6E7     		b	.L2
  92              	.L6:
  93              		.align	2
  94              	.L5:
  95 003c 00000000 		.word	.LANCHOR0
  96 0040 00000000 		.word	.LC0
  97 0044 10000000 		.word	.LC1
  98 0048 28000000 		.word	.LC2
  99              		.cfi_endproc
 100              	.LFE137:
ARM GAS  C:\Users\samue\AppData\Local\Temp\cc637gki.s 			page 7


 102              		.section	.rodata.accel_cal.str1.4,"aMS",%progbits,1
 103              		.align	2
 104              	.LC3:
 105 0000 43616C69 		.ascii	"Calibration Complete\000"
 105      62726174 
 105      696F6E20 
 105      436F6D70 
 105      6C657465 
 106              		.section	.text.accel_cal,"ax",%progbits
 107              		.align	1
 108              		.global	accel_cal
 109              		.syntax unified
 110              		.thumb
 111              		.thumb_func
 113              	accel_cal:
 114              	.LFB138:
 231:Core/Src/main_functions.c **** 
 232:Core/Src/main_functions.c **** // Calibrate the accelerometer
 233:Core/Src/main_functions.c **** void accel_cal(void) {
 115              		.loc 1 233 22 is_stmt 1 view -0
 116              		.cfi_startproc
 117              		@ args = 0, pretend = 0, frame = 0
 118              		@ frame_needed = 0, uses_anonymous_args = 0
 119 0000 10B5     		push	{r4, lr}
 120              	.LCFI1:
 121              		.cfi_def_cfa_offset 8
 122              		.cfi_offset 4, -8
 123              		.cfi_offset 14, -4
 234:Core/Src/main_functions.c **** 
 235:Core/Src/main_functions.c **** 	lcd_clear();
 124              		.loc 1 235 2 view .LVU15
 125 0002 FFF7FEFF 		bl	lcd_clear
 126              	.LVL7:
 236:Core/Src/main_functions.c ****     flag = 0;
 127              		.loc 1 236 5 view .LVU16
 128              		.loc 1 236 10 is_stmt 0 view .LVU17
 129 0006 154B     		ldr	r3, .L9
 130 0008 0022     		movs	r2, #0
 131 000a 1A70     		strb	r2, [r3]
 237:Core/Src/main_functions.c **** 	
 238:Core/Src/main_functions.c ****     accel_corr_p = MPU6050_read(ACCEL_CONST, MPU6050_ADDR, ACCEL_XOUT_H_REG, zero_corr);
 132              		.loc 1 238 5 is_stmt 1 view .LVU18
 133              		.loc 1 238 20 is_stmt 0 view .LVU19
 134 000c 144C     		ldr	r4, .L9+4
 135 000e 2246     		mov	r2, r4
 136 0010 3B21     		movs	r1, #59
 137 0012 D020     		movs	r0, #208
 138 0014 9FED130A 		vldr.32	s0, .L9+8
 139 0018 FFF7FEFF 		bl	MPU6050_read
 140              	.LVL8:
 141              		.loc 1 238 18 view .LVU20
 142 001c 124B     		ldr	r3, .L9+12
 143 001e 1860     		str	r0, [r3]
 239:Core/Src/main_functions.c **** 
 240:Core/Src/main_functions.c ****     accel_corr[0] = accel_corr_p[0];
 144              		.loc 1 240 5 is_stmt 1 view .LVU21
 145              		.loc 1 240 33 is_stmt 0 view .LVU22
ARM GAS  C:\Users\samue\AppData\Local\Temp\cc637gki.s 			page 8


 146 0020 0268     		ldr	r2, [r0]	@ float
 147              		.loc 1 240 19 view .LVU23
 148 0022 124B     		ldr	r3, .L9+16
 149 0024 1A60     		str	r2, [r3]	@ float
 241:Core/Src/main_functions.c **** 	accel_corr[1] = accel_corr_p[1];
 150              		.loc 1 241 2 is_stmt 1 view .LVU24
 151              		.loc 1 241 16 is_stmt 0 view .LVU25
 152 0026 4268     		ldr	r2, [r0, #4]	@ float
 153 0028 5A60     		str	r2, [r3, #4]	@ float
 242:Core/Src/main_functions.c **** 	accel_corr[2] = accel_corr_p[2];
 154              		.loc 1 242 2 is_stmt 1 view .LVU26
 155              		.loc 1 242 16 is_stmt 0 view .LVU27
 156 002a 8268     		ldr	r2, [r0, #8]	@ float
 157 002c 9A60     		str	r2, [r3, #8]	@ float
 243:Core/Src/main_functions.c **** 
 244:Core/Src/main_functions.c **** 	gyro_corr_p  = MPU6050_read(GYRO_CONST, MPU6050_ADDR, GYRO_XOUT_H_REG, zero_corr);
 158              		.loc 1 244 2 is_stmt 1 view .LVU28
 159              		.loc 1 244 17 is_stmt 0 view .LVU29
 160 002e 2246     		mov	r2, r4
 161 0030 4321     		movs	r1, #67
 162 0032 D020     		movs	r0, #208
 163 0034 9FED0E0A 		vldr.32	s0, .L9+20
 164 0038 FFF7FEFF 		bl	MPU6050_read
 165              	.LVL9:
 166              		.loc 1 244 15 view .LVU30
 167 003c 0D4B     		ldr	r3, .L9+24
 168 003e 1860     		str	r0, [r3]
 245:Core/Src/main_functions.c **** 
 246:Core/Src/main_functions.c **** 	gyro_corr[0]  = gyro_corr_p[0];
 169              		.loc 1 246 2 is_stmt 1 view .LVU31
 170              		.loc 1 246 29 is_stmt 0 view .LVU32
 171 0040 0268     		ldr	r2, [r0]	@ float
 172              		.loc 1 246 16 view .LVU33
 173 0042 0D4B     		ldr	r3, .L9+28
 174 0044 1A60     		str	r2, [r3]	@ float
 247:Core/Src/main_functions.c **** 	gyro_corr[1]  = gyro_corr_p[1];
 175              		.loc 1 247 2 is_stmt 1 view .LVU34
 176              		.loc 1 247 16 is_stmt 0 view .LVU35
 177 0046 4268     		ldr	r2, [r0, #4]	@ float
 178 0048 5A60     		str	r2, [r3, #4]	@ float
 248:Core/Src/main_functions.c **** 	gyro_corr[2]  = gyro_corr_p[2];
 179              		.loc 1 248 2 is_stmt 1 view .LVU36
 180              		.loc 1 248 16 is_stmt 0 view .LVU37
 181 004a 8268     		ldr	r2, [r0, #8]	@ float
 182 004c 9A60     		str	r2, [r3, #8]	@ float
 249:Core/Src/main_functions.c **** 
 250:Core/Src/main_functions.c **** 	lcd_send_cmd(0x80|0x00);
 183              		.loc 1 250 2 is_stmt 1 view .LVU38
 184 004e 8020     		movs	r0, #128
 185 0050 FFF7FEFF 		bl	lcd_send_cmd
 186              	.LVL10:
 251:Core/Src/main_functions.c **** 	lcd_send_string("Calibration Complete");
 187              		.loc 1 251 2 view .LVU39
 188 0054 0948     		ldr	r0, .L9+32
 189 0056 FFF7FEFF 		bl	lcd_send_string
 190              	.LVL11:
 252:Core/Src/main_functions.c **** }
ARM GAS  C:\Users\samue\AppData\Local\Temp\cc637gki.s 			page 9


 191              		.loc 1 252 1 is_stmt 0 view .LVU40
 192 005a 10BD     		pop	{r4, pc}
 193              	.L10:
 194              		.align	2
 195              	.L9:
 196 005c 00000000 		.word	.LANCHOR0
 197 0060 00000000 		.word	.LANCHOR1
 198 0064 00008046 		.word	1182793728
 199 0068 00000000 		.word	.LANCHOR2
 200 006c 00000000 		.word	.LANCHOR3
 201 0070 00000343 		.word	1124270080
 202 0074 00000000 		.word	.LANCHOR4
 203 0078 00000000 		.word	.LANCHOR5
 204 007c 00000000 		.word	.LC3
 205              		.cfi_endproc
 206              	.LFE138:
 208              		.section	.rodata.main_function.str1.4,"aMS",%progbits,1
 209              		.align	2
 210              	.LC4:
 211 0000 496E6974 		.ascii	"Initialized\000"
 211      69616C69 
 211      7A656400 
 212              		.section	.text.main_function,"ax",%progbits
 213              		.align	1
 214              		.global	main_function
 215              		.syntax unified
 216              		.thumb
 217              		.thumb_func
 219              	main_function:
 220              	.LFB133:
  97:Core/Src/main_functions.c ****      
 221              		.loc 1 97 26 is_stmt 1 view -0
 222              		.cfi_startproc
 223              		@ Volatile: function does not return.
 224              		@ args = 0, pretend = 0, frame = 0
 225              		@ frame_needed = 0, uses_anonymous_args = 0
 226 0000 08B5     		push	{r3, lr}
 227              	.LCFI2:
 228              		.cfi_def_cfa_offset 8
 229              		.cfi_offset 3, -8
 230              		.cfi_offset 14, -4
  99:Core/Src/main_functions.c ****     state = accel_cal_state;
 231              		.loc 1 99 5 view .LVU42
  99:Core/Src/main_functions.c ****     state = accel_cal_state;
 232              		.loc 1 99 10 is_stmt 0 view .LVU43
 233 0002 0024     		movs	r4, #0
 234 0004 144B     		ldr	r3, .L14
 235 0006 1C70     		strb	r4, [r3]
 100:Core/Src/main_functions.c **** 
 236              		.loc 1 100 5 is_stmt 1 view .LVU44
 100:Core/Src/main_functions.c **** 
 237              		.loc 1 100 11 is_stmt 0 view .LVU45
 238 0008 144B     		ldr	r3, .L14+4
 239 000a 0222     		movs	r2, #2
 240 000c 1A60     		str	r2, [r3]
 102:Core/Src/main_functions.c ****     MPU6050_Init();
 241              		.loc 1 102 5 is_stmt 1 view .LVU46
ARM GAS  C:\Users\samue\AppData\Local\Temp\cc637gki.s 			page 10


 242 000e FFF7FEFF 		bl	lcd_init
 243              	.LVL12:
 103:Core/Src/main_functions.c ****     lcd_send_string("Initialized");
 244              		.loc 1 103 5 view .LVU47
 245 0012 FFF7FEFF 		bl	MPU6050_Init
 246              	.LVL13:
 104:Core/Src/main_functions.c ****     HAL_Delay(1500);
 247              		.loc 1 104 5 view .LVU48
 248 0016 1248     		ldr	r0, .L14+8
 249 0018 FFF7FEFF 		bl	lcd_send_string
 250              	.LVL14:
 105:Core/Src/main_functions.c **** 
 251              		.loc 1 105 5 view .LVU49
 252 001c 40F2DC50 		movw	r0, #1500
 253 0020 FFF7FEFF 		bl	HAL_Delay
 254              	.LVL15:
 108:Core/Src/main_functions.c **** 
 255              		.loc 1 108 5 view .LVU50
 256 0024 2046     		mov	r0, r4
 257 0026 FFF7FEFF 		bl	sd_card
 258              	.LVL16:
 259              	.L12:
 117:Core/Src/main_functions.c **** 
 260              		.loc 1 117 5 discriminator 1 view .LVU51
 120:Core/Src/main_functions.c ****         HAL_Delay(FSM[state].time_delay);
 261              		.loc 1 120 9 discriminator 1 view .LVU52
 120:Core/Src/main_functions.c ****         HAL_Delay(FSM[state].time_delay);
 262              		.loc 1 120 20 is_stmt 0 discriminator 1 view .LVU53
 263 002a 0E4D     		ldr	r5, .L14+12
 264 002c 0B4C     		ldr	r4, .L14+4
 265 002e 2368     		ldr	r3, [r4]
 266 0030 1B01     		lsls	r3, r3, #4
 267 0032 EB58     		ldr	r3, [r5, r3]
 268 0034 9847     		blx	r3
 269              	.LVL17:
 121:Core/Src/main_functions.c ****         state = FSM[state].next_state[flag];
 270              		.loc 1 121 9 is_stmt 1 discriminator 1 view .LVU54
 271 0036 2368     		ldr	r3, [r4]
 272 0038 05EB0313 		add	r3, r5, r3, lsl #4
 273 003c 5868     		ldr	r0, [r3, #4]
 274 003e FFF7FEFF 		bl	HAL_Delay
 275              	.LVL18:
 122:Core/Src/main_functions.c **** 
 276              		.loc 1 122 9 discriminator 1 view .LVU55
 122:Core/Src/main_functions.c **** 
 277              		.loc 1 122 38 is_stmt 0 discriminator 1 view .LVU56
 278 0042 2268     		ldr	r2, [r4]
 279 0044 044B     		ldr	r3, .L14
 280 0046 1B78     		ldrb	r3, [r3]	@ zero_extendqisi2
 281 0048 03EB8203 		add	r3, r3, r2, lsl #2
 282 004c 0233     		adds	r3, r3, #2
 283 004e 55F82330 		ldr	r3, [r5, r3, lsl #2]
 122:Core/Src/main_functions.c **** 
 284              		.loc 1 122 15 discriminator 1 view .LVU57
 285 0052 2360     		str	r3, [r4]
 117:Core/Src/main_functions.c **** 
 286              		.loc 1 117 10 is_stmt 1 discriminator 1 view .LVU58
ARM GAS  C:\Users\samue\AppData\Local\Temp\cc637gki.s 			page 11


 287 0054 E9E7     		b	.L12
 288              	.L15:
 289 0056 00BF     		.align	2
 290              	.L14:
 291 0058 00000000 		.word	.LANCHOR0
 292 005c 00000000 		.word	.LANCHOR6
 293 0060 00000000 		.word	.LC4
 294 0064 00000000 		.word	.LANCHOR7
 295              		.cfi_endproc
 296              	.LFE133:
 298              		.section	.text.HAL_GPIO_EXTI_Callback,"ax",%progbits
 299              		.align	1
 300              		.global	HAL_GPIO_EXTI_Callback
 301              		.syntax unified
 302              		.thumb
 303              		.thumb_func
 305              	HAL_GPIO_EXTI_Callback:
 306              	.LVL19:
 307              	.LFB134:
 135:Core/Src/main_functions.c **** 	flag = 1;
 308              		.loc 1 135 48 view -0
 309              		.cfi_startproc
 310              		@ args = 0, pretend = 0, frame = 0
 311              		@ frame_needed = 0, uses_anonymous_args = 0
 312              		@ link register save eliminated.
 136:Core/Src/main_functions.c **** }
 313              		.loc 1 136 2 view .LVU60
 136:Core/Src/main_functions.c **** }
 314              		.loc 1 136 7 is_stmt 0 view .LVU61
 315 0000 014B     		ldr	r3, .L17
 316 0002 0122     		movs	r2, #1
 317 0004 1A70     		strb	r2, [r3]
 137:Core/Src/main_functions.c **** 
 318              		.loc 1 137 1 view .LVU62
 319 0006 7047     		bx	lr
 320              	.L18:
 321              		.align	2
 322              	.L17:
 323 0008 00000000 		.word	.LANCHOR0
 324              		.cfi_endproc
 325              	.LFE134:
 327              		.section	.rodata.print_data.str1.4,"aMS",%progbits,1
 328              		.align	2
 329              	.LC5:
 330 0000 25642E25 		.ascii	"%d.%d%d\000"
 330      64256400 
 331              		.align	2
 332              	.LC6:
 333 0008 2D25642E 		.ascii	"-%d.%d%d\000"
 333      25642564 
 333      00
 334              		.section	.text.print_data,"ax",%progbits
 335              		.align	1
 336              		.global	print_data
 337              		.syntax unified
 338              		.thumb
 339              		.thumb_func
ARM GAS  C:\Users\samue\AppData\Local\Temp\cc637gki.s 			page 12


 341              	print_data:
 342              	.LVL20:
 343              	.LFB136:
 200:Core/Src/main_functions.c **** 
 344              		.loc 1 200 17 is_stmt 1 view -0
 345              		.cfi_startproc
 346              		@ args = 8, pretend = 0, frame = 0
 347              		@ frame_needed = 0, uses_anonymous_args = 0
 200:Core/Src/main_functions.c **** 
 348              		.loc 1 200 17 is_stmt 0 view .LVU64
 349 0000 2DE9F041 		push	{r4, r5, r6, r7, r8, lr}
 350              	.LCFI3:
 351              		.cfi_def_cfa_offset 24
 352              		.cfi_offset 4, -24
 353              		.cfi_offset 5, -20
 354              		.cfi_offset 6, -16
 355              		.cfi_offset 7, -12
 356              		.cfi_offset 8, -8
 357              		.cfi_offset 14, -4
 358 0004 2DED028B 		vpush.64	{d8}
 359              	.LCFI4:
 360              		.cfi_def_cfa_offset 32
 361              		.cfi_offset 80, -32
 362              		.cfi_offset 81, -28
 363 0008 82B0     		sub	sp, sp, #8
 364              	.LCFI5:
 365              		.cfi_def_cfa_offset 40
 366 000a 8846     		mov	r8, r1
 367 000c 1746     		mov	r7, r2
 368 000e 1E46     		mov	r6, r3
 369 0010 9DF82850 		ldrb	r5, [sp, #40]	@ zero_extendqisi2
 370 0014 B0EE408A 		vmov.f32	s16, s0
 371 0018 0B9C     		ldr	r4, [sp, #44]
 202:Core/Src/main_functions.c **** 	lcd_send_string(str);
 372              		.loc 1 202 5 is_stmt 1 view .LVU65
 373 001a 40F08000 		orr	r0, r0, #128
 374              	.LVL21:
 202:Core/Src/main_functions.c **** 	lcd_send_string(str);
 375              		.loc 1 202 5 is_stmt 0 view .LVU66
 376 001e FFF7FEFF 		bl	lcd_send_cmd
 377              	.LVL22:
 203:Core/Src/main_functions.c ****     if (val >= 0) {
 378              		.loc 1 203 2 is_stmt 1 view .LVU67
 379 0022 3046     		mov	r0, r6
 380 0024 FFF7FEFF 		bl	lcd_send_string
 381              	.LVL23:
 204:Core/Src/main_functions.c ****         line_pos = pos2;
 382              		.loc 1 204 5 view .LVU68
 204:Core/Src/main_functions.c ****         line_pos = pos2;
 383              		.loc 1 204 8 is_stmt 0 view .LVU69
 384 0028 B5EEC08A 		vcmpe.f32	s16, #0
 385 002c F1EE10FA 		vmrs	APSR_nzcv, FPSCR
 386 0030 1DDB     		blt	.L24
 205:Core/Src/main_functions.c ****         sprintf(buf, "%d.%d%d", data[index], data[index+1], data[index+2]);
 387              		.loc 1 205 9 is_stmt 1 view .LVU70
 205:Core/Src/main_functions.c ****         sprintf(buf, "%d.%d%d", data[index], data[index+1], data[index+2]);
 388              		.loc 1 205 18 is_stmt 0 view .LVU71
ARM GAS  C:\Users\samue\AppData\Local\Temp\cc637gki.s 			page 13


 389 0032 174B     		ldr	r3, .L26
 390 0034 83F80080 		strb	r8, [r3]
 206:Core/Src/main_functions.c ****     }
 391              		.loc 1 206 9 is_stmt 1 view .LVU72
 206:Core/Src/main_functions.c ****     }
 392              		.loc 1 206 50 is_stmt 0 view .LVU73
 393 0038 6B1C     		adds	r3, r5, #1
 206:Core/Src/main_functions.c ****     }
 394              		.loc 1 206 65 view .LVU74
 395 003a AA1C     		adds	r2, r5, #2
 206:Core/Src/main_functions.c ****     }
 396              		.loc 1 206 9 view .LVU75
 397 003c 54F82220 		ldr	r2, [r4, r2, lsl #2]
 398 0040 0092     		str	r2, [sp]
 399 0042 54F82330 		ldr	r3, [r4, r3, lsl #2]
 400 0046 54F82520 		ldr	r2, [r4, r5, lsl #2]
 401 004a 1249     		ldr	r1, .L26+4
 402 004c 1248     		ldr	r0, .L26+8
 403 004e FFF7FEFF 		bl	sprintf
 404              	.LVL24:
 405              	.L22:
 212:Core/Src/main_functions.c **** 	lcd_send_string(buf);
 406              		.loc 1 212 2 is_stmt 1 view .LVU76
 407 0052 0F4B     		ldr	r3, .L26
 408 0054 1878     		ldrb	r0, [r3]	@ zero_extendqisi2
 409 0056 40F08000 		orr	r0, r0, #128
 410 005a FFF7FEFF 		bl	lcd_send_cmd
 411              	.LVL25:
 213:Core/Src/main_functions.c **** }
 412              		.loc 1 213 2 view .LVU77
 413 005e 0E48     		ldr	r0, .L26+8
 414 0060 FFF7FEFF 		bl	lcd_send_string
 415              	.LVL26:
 214:Core/Src/main_functions.c **** 
 416              		.loc 1 214 1 is_stmt 0 view .LVU78
 417 0064 02B0     		add	sp, sp, #8
 418              	.LCFI6:
 419              		.cfi_remember_state
 420              		.cfi_def_cfa_offset 32
 421              		@ sp needed
 422 0066 BDEC028B 		vldm	sp!, {d8}
 423              	.LCFI7:
 424              		.cfi_restore 80
 425              		.cfi_restore 81
 426              		.cfi_def_cfa_offset 24
 427              	.LVL27:
 214:Core/Src/main_functions.c **** 
 428              		.loc 1 214 1 view .LVU79
 429 006a BDE8F081 		pop	{r4, r5, r6, r7, r8, pc}
 430              	.LVL28:
 431              	.L24:
 432              	.LCFI8:
 433              		.cfi_restore_state
 209:Core/Src/main_functions.c ****         sprintf(buf, "-%d.%d%d", data[index], data[index+1], data[index+2]);
 434              		.loc 1 209 9 is_stmt 1 view .LVU80
 209:Core/Src/main_functions.c ****         sprintf(buf, "-%d.%d%d", data[index], data[index+1], data[index+2]);
 435              		.loc 1 209 18 is_stmt 0 view .LVU81
ARM GAS  C:\Users\samue\AppData\Local\Temp\cc637gki.s 			page 14


 436 006e 084B     		ldr	r3, .L26
 437 0070 1F70     		strb	r7, [r3]
 210:Core/Src/main_functions.c ****     }
 438              		.loc 1 210 9 is_stmt 1 view .LVU82
 210:Core/Src/main_functions.c ****     }
 439              		.loc 1 210 51 is_stmt 0 view .LVU83
 440 0072 6B1C     		adds	r3, r5, #1
 210:Core/Src/main_functions.c ****     }
 441              		.loc 1 210 66 view .LVU84
 442 0074 AA1C     		adds	r2, r5, #2
 210:Core/Src/main_functions.c ****     }
 443              		.loc 1 210 9 view .LVU85
 444 0076 54F82220 		ldr	r2, [r4, r2, lsl #2]
 445 007a 0092     		str	r2, [sp]
 446 007c 54F82330 		ldr	r3, [r4, r3, lsl #2]
 447 0080 54F82520 		ldr	r2, [r4, r5, lsl #2]
 448 0084 0549     		ldr	r1, .L26+12
 449 0086 0448     		ldr	r0, .L26+8
 450 0088 FFF7FEFF 		bl	sprintf
 451              	.LVL29:
 452 008c E1E7     		b	.L22
 453              	.L27:
 454 008e 00BF     		.align	2
 455              	.L26:
 456 0090 00000000 		.word	.LANCHOR8
 457 0094 00000000 		.word	.LC5
 458 0098 00000000 		.word	.LANCHOR9
 459 009c 08000000 		.word	.LC6
 460              		.cfi_endproc
 461              	.LFE136:
 463              		.section	.rodata.normal.str1.4,"aMS",%progbits,1
 464              		.align	2
 465              	.LC7:
 466 0000 20202020 		.ascii	"                    \000"
 466      20202020 
 466      20202020 
 466      20202020 
 466      20202020 
 467              		.section	.text.normal,"ax",%progbits
 468              		.align	1
 469              		.global	normal
 470              		.syntax unified
 471              		.thumb
 472              		.thumb_func
 474              	normal:
 475              	.LFB135:
 140:Core/Src/main_functions.c **** 
 476              		.loc 1 140 19 is_stmt 1 view -0
 477              		.cfi_startproc
 478              		@ args = 0, pretend = 0, frame = 0
 479              		@ frame_needed = 0, uses_anonymous_args = 0
 480 0000 2DE9F043 		push	{r4, r5, r6, r7, r8, r9, lr}
 481              	.LCFI9:
 482              		.cfi_def_cfa_offset 28
 483              		.cfi_offset 4, -28
 484              		.cfi_offset 5, -24
 485              		.cfi_offset 6, -20
ARM GAS  C:\Users\samue\AppData\Local\Temp\cc637gki.s 			page 15


 486              		.cfi_offset 7, -16
 487              		.cfi_offset 8, -12
 488              		.cfi_offset 9, -8
 489              		.cfi_offset 14, -4
 490 0004 2DED028B 		vpush.64	{d8}
 491              	.LCFI10:
 492              		.cfi_def_cfa_offset 36
 493              		.cfi_offset 80, -36
 494              		.cfi_offset 81, -32
 495 0008 83B0     		sub	sp, sp, #12
 496              	.LCFI11:
 497              		.cfi_def_cfa_offset 48
 143:Core/Src/main_functions.c **** 
 498              		.loc 1 143 5 view .LVU87
 143:Core/Src/main_functions.c **** 
 499              		.loc 1 143 20 is_stmt 0 view .LVU88
 500 000a D44A     		ldr	r2, .L30
 501 000c 3B21     		movs	r1, #59
 502 000e D020     		movs	r0, #208
 503 0010 9FEDD30A 		vldr.32	s0, .L30+4
 504 0014 FFF7FEFF 		bl	MPU6050_read
 505              	.LVL30:
 143:Core/Src/main_functions.c **** 
 506              		.loc 1 143 18 view .LVU89
 507 0018 D24F     		ldr	r7, .L30+8
 508 001a 3860     		str	r0, [r7]
 146:Core/Src/main_functions.c **** 	accel_data_value[1] = abs((int)(10*accel_data_p[0])  % 10);
 509              		.loc 1 146 2 is_stmt 1 view .LVU90
 146:Core/Src/main_functions.c **** 	accel_data_value[1] = abs((int)(10*accel_data_p[0])  % 10);
 510              		.loc 1 146 45 is_stmt 0 view .LVU91
 511 001c D0ED007A 		vldr.32	s15, [r0]
 146:Core/Src/main_functions.c **** 	accel_data_value[1] = abs((int)(10*accel_data_p[0])  % 10);
 512              		.loc 1 146 28 view .LVU92
 513 0020 FDEEE77A 		vcvt.s32.f32	s15, s15
 514 0024 17EE903A 		vmov	r3, s15	@ int
 146:Core/Src/main_functions.c **** 	accel_data_value[1] = abs((int)(10*accel_data_p[0])  % 10);
 515              		.loc 1 146 24 view .LVU93
 516 0028 002B     		cmp	r3, #0
 517 002a B8BF     		it	lt
 518 002c 5B42     		rsblt	r3, r3, #0
 146:Core/Src/main_functions.c **** 	accel_data_value[1] = abs((int)(10*accel_data_p[0])  % 10);
 519              		.loc 1 146 22 view .LVU94
 520 002e CE4E     		ldr	r6, .L30+12
 521 0030 3360     		str	r3, [r6]
 147:Core/Src/main_functions.c ****     accel_data_value[2] = abs((int)(100*accel_data_p[0]) % 10);
 522              		.loc 1 147 2 is_stmt 1 view .LVU95
 147:Core/Src/main_functions.c ****     accel_data_value[2] = abs((int)(100*accel_data_p[0]) % 10);
 523              		.loc 1 147 49 is_stmt 0 view .LVU96
 524 0032 D0ED007A 		vldr.32	s15, [r0]
 147:Core/Src/main_functions.c ****     accel_data_value[2] = abs((int)(100*accel_data_p[0]) % 10);
 525              		.loc 1 147 36 view .LVU97
 526 0036 F2EE048A 		vmov.f32	s17, #1.0e+1
 527 003a 67EEA87A 		vmul.f32	s15, s15, s17
 147:Core/Src/main_functions.c ****     accel_data_value[2] = abs((int)(100*accel_data_p[0]) % 10);
 528              		.loc 1 147 28 view .LVU98
 529 003e FDEEE77A 		vcvt.s32.f32	s15, s15
 530 0042 17EE902A 		vmov	r2, s15	@ int
ARM GAS  C:\Users\samue\AppData\Local\Temp\cc637gki.s 			page 16


 147:Core/Src/main_functions.c ****     accel_data_value[2] = abs((int)(100*accel_data_p[0]) % 10);
 531              		.loc 1 147 55 view .LVU99
 532 0046 C94C     		ldr	r4, .L30+16
 533 0048 84FB0231 		smull	r3, r1, r4, r2
 534 004c D317     		asrs	r3, r2, #31
 535 004e C3EBA103 		rsb	r3, r3, r1, asr #2
 536 0052 03EB8303 		add	r3, r3, r3, lsl #2
 537 0056 A2EB4303 		sub	r3, r2, r3, lsl #1
 147:Core/Src/main_functions.c ****     accel_data_value[2] = abs((int)(100*accel_data_p[0]) % 10);
 538              		.loc 1 147 24 view .LVU100
 539 005a 002B     		cmp	r3, #0
 540 005c B8BF     		it	lt
 541 005e 5B42     		rsblt	r3, r3, #0
 147:Core/Src/main_functions.c ****     accel_data_value[2] = abs((int)(100*accel_data_p[0]) % 10);
 542              		.loc 1 147 22 view .LVU101
 543 0060 7360     		str	r3, [r6, #4]
 148:Core/Src/main_functions.c **** 
 544              		.loc 1 148 5 is_stmt 1 view .LVU102
 148:Core/Src/main_functions.c **** 
 545              		.loc 1 148 53 is_stmt 0 view .LVU103
 546 0062 D0ED007A 		vldr.32	s15, [r0]
 148:Core/Src/main_functions.c **** 
 547              		.loc 1 148 40 view .LVU104
 548 0066 9FEDC28A 		vldr.32	s16, .L30+20
 549 006a 67EE887A 		vmul.f32	s15, s15, s16
 148:Core/Src/main_functions.c **** 
 550              		.loc 1 148 31 view .LVU105
 551 006e FDEEE77A 		vcvt.s32.f32	s15, s15
 552 0072 17EE902A 		vmov	r2, s15	@ int
 148:Core/Src/main_functions.c **** 
 553              		.loc 1 148 58 view .LVU106
 554 0076 84FB0231 		smull	r3, r1, r4, r2
 555 007a D317     		asrs	r3, r2, #31
 556 007c C3EBA103 		rsb	r3, r3, r1, asr #2
 557 0080 03EB8303 		add	r3, r3, r3, lsl #2
 558 0084 A2EB4303 		sub	r3, r2, r3, lsl #1
 148:Core/Src/main_functions.c **** 
 559              		.loc 1 148 27 view .LVU107
 560 0088 002B     		cmp	r3, #0
 561 008a B8BF     		it	lt
 562 008c 5B42     		rsblt	r3, r3, #0
 148:Core/Src/main_functions.c **** 
 563              		.loc 1 148 25 view .LVU108
 564 008e B360     		str	r3, [r6, #8]
 150:Core/Src/main_functions.c **** 	accel_data_value[4] = abs((int)(10*accel_data_p[1])  % 10);
 565              		.loc 1 150 2 is_stmt 1 view .LVU109
 150:Core/Src/main_functions.c **** 	accel_data_value[4] = abs((int)(10*accel_data_p[1])  % 10);
 566              		.loc 1 150 45 is_stmt 0 view .LVU110
 567 0090 D0ED017A 		vldr.32	s15, [r0, #4]
 150:Core/Src/main_functions.c **** 	accel_data_value[4] = abs((int)(10*accel_data_p[1])  % 10);
 568              		.loc 1 150 28 view .LVU111
 569 0094 FDEEE77A 		vcvt.s32.f32	s15, s15
 570 0098 17EE903A 		vmov	r3, s15	@ int
 150:Core/Src/main_functions.c **** 	accel_data_value[4] = abs((int)(10*accel_data_p[1])  % 10);
 571              		.loc 1 150 24 view .LVU112
 572 009c 002B     		cmp	r3, #0
 573 009e B8BF     		it	lt
ARM GAS  C:\Users\samue\AppData\Local\Temp\cc637gki.s 			page 17


 574 00a0 5B42     		rsblt	r3, r3, #0
 150:Core/Src/main_functions.c **** 	accel_data_value[4] = abs((int)(10*accel_data_p[1])  % 10);
 575              		.loc 1 150 22 view .LVU113
 576 00a2 F360     		str	r3, [r6, #12]
 151:Core/Src/main_functions.c ****     accel_data_value[5] = abs((int)(100*accel_data_p[1]) % 10);
 577              		.loc 1 151 2 is_stmt 1 view .LVU114
 151:Core/Src/main_functions.c ****     accel_data_value[5] = abs((int)(100*accel_data_p[1]) % 10);
 578              		.loc 1 151 49 is_stmt 0 view .LVU115
 579 00a4 D0ED017A 		vldr.32	s15, [r0, #4]
 151:Core/Src/main_functions.c ****     accel_data_value[5] = abs((int)(100*accel_data_p[1]) % 10);
 580              		.loc 1 151 36 view .LVU116
 581 00a8 67EEA87A 		vmul.f32	s15, s15, s17
 151:Core/Src/main_functions.c ****     accel_data_value[5] = abs((int)(100*accel_data_p[1]) % 10);
 582              		.loc 1 151 28 view .LVU117
 583 00ac FDEEE77A 		vcvt.s32.f32	s15, s15
 584 00b0 17EE902A 		vmov	r2, s15	@ int
 151:Core/Src/main_functions.c ****     accel_data_value[5] = abs((int)(100*accel_data_p[1]) % 10);
 585              		.loc 1 151 55 view .LVU118
 586 00b4 84FB0231 		smull	r3, r1, r4, r2
 587 00b8 D317     		asrs	r3, r2, #31
 588 00ba C3EBA103 		rsb	r3, r3, r1, asr #2
 589 00be 03EB8303 		add	r3, r3, r3, lsl #2
 590 00c2 A2EB4303 		sub	r3, r2, r3, lsl #1
 151:Core/Src/main_functions.c ****     accel_data_value[5] = abs((int)(100*accel_data_p[1]) % 10);
 591              		.loc 1 151 24 view .LVU119
 592 00c6 002B     		cmp	r3, #0
 593 00c8 B8BF     		it	lt
 594 00ca 5B42     		rsblt	r3, r3, #0
 151:Core/Src/main_functions.c ****     accel_data_value[5] = abs((int)(100*accel_data_p[1]) % 10);
 595              		.loc 1 151 22 view .LVU120
 596 00cc 3361     		str	r3, [r6, #16]
 152:Core/Src/main_functions.c **** 
 597              		.loc 1 152 5 is_stmt 1 view .LVU121
 152:Core/Src/main_functions.c **** 
 598              		.loc 1 152 53 is_stmt 0 view .LVU122
 599 00ce D0ED017A 		vldr.32	s15, [r0, #4]
 152:Core/Src/main_functions.c **** 
 600              		.loc 1 152 40 view .LVU123
 601 00d2 67EE887A 		vmul.f32	s15, s15, s16
 152:Core/Src/main_functions.c **** 
 602              		.loc 1 152 31 view .LVU124
 603 00d6 FDEEE77A 		vcvt.s32.f32	s15, s15
 604 00da 17EE902A 		vmov	r2, s15	@ int
 152:Core/Src/main_functions.c **** 
 605              		.loc 1 152 58 view .LVU125
 606 00de 84FB0231 		smull	r3, r1, r4, r2
 607 00e2 D317     		asrs	r3, r2, #31
 608 00e4 C3EBA103 		rsb	r3, r3, r1, asr #2
 609 00e8 03EB8303 		add	r3, r3, r3, lsl #2
 610 00ec A2EB4303 		sub	r3, r2, r3, lsl #1
 152:Core/Src/main_functions.c **** 
 611              		.loc 1 152 27 view .LVU126
 612 00f0 002B     		cmp	r3, #0
 613 00f2 B8BF     		it	lt
 614 00f4 5B42     		rsblt	r3, r3, #0
 152:Core/Src/main_functions.c **** 
 615              		.loc 1 152 25 view .LVU127
ARM GAS  C:\Users\samue\AppData\Local\Temp\cc637gki.s 			page 18


 616 00f6 7361     		str	r3, [r6, #20]
 154:Core/Src/main_functions.c **** 	accel_data_value[7] = abs((int)(10*accel_data_p[2])  % 10);
 617              		.loc 1 154 2 is_stmt 1 view .LVU128
 154:Core/Src/main_functions.c **** 	accel_data_value[7] = abs((int)(10*accel_data_p[2])  % 10);
 618              		.loc 1 154 45 is_stmt 0 view .LVU129
 619 00f8 D0ED027A 		vldr.32	s15, [r0, #8]
 154:Core/Src/main_functions.c **** 	accel_data_value[7] = abs((int)(10*accel_data_p[2])  % 10);
 620              		.loc 1 154 28 view .LVU130
 621 00fc FDEEE77A 		vcvt.s32.f32	s15, s15
 622 0100 17EE903A 		vmov	r3, s15	@ int
 154:Core/Src/main_functions.c **** 	accel_data_value[7] = abs((int)(10*accel_data_p[2])  % 10);
 623              		.loc 1 154 24 view .LVU131
 624 0104 002B     		cmp	r3, #0
 625 0106 B8BF     		it	lt
 626 0108 5B42     		rsblt	r3, r3, #0
 154:Core/Src/main_functions.c **** 	accel_data_value[7] = abs((int)(10*accel_data_p[2])  % 10);
 627              		.loc 1 154 22 view .LVU132
 628 010a B361     		str	r3, [r6, #24]
 155:Core/Src/main_functions.c ****     accel_data_value[8] = abs((int)(100*accel_data_p[2]) % 10);
 629              		.loc 1 155 2 is_stmt 1 view .LVU133
 155:Core/Src/main_functions.c ****     accel_data_value[8] = abs((int)(100*accel_data_p[2]) % 10);
 630              		.loc 1 155 49 is_stmt 0 view .LVU134
 631 010c D0ED027A 		vldr.32	s15, [r0, #8]
 155:Core/Src/main_functions.c ****     accel_data_value[8] = abs((int)(100*accel_data_p[2]) % 10);
 632              		.loc 1 155 36 view .LVU135
 633 0110 67EEA87A 		vmul.f32	s15, s15, s17
 155:Core/Src/main_functions.c ****     accel_data_value[8] = abs((int)(100*accel_data_p[2]) % 10);
 634              		.loc 1 155 28 view .LVU136
 635 0114 FDEEE77A 		vcvt.s32.f32	s15, s15
 636 0118 17EE902A 		vmov	r2, s15	@ int
 155:Core/Src/main_functions.c ****     accel_data_value[8] = abs((int)(100*accel_data_p[2]) % 10);
 637              		.loc 1 155 55 view .LVU137
 638 011c 84FB0231 		smull	r3, r1, r4, r2
 639 0120 D317     		asrs	r3, r2, #31
 640 0122 C3EBA103 		rsb	r3, r3, r1, asr #2
 641 0126 03EB8303 		add	r3, r3, r3, lsl #2
 642 012a A2EB4303 		sub	r3, r2, r3, lsl #1
 155:Core/Src/main_functions.c ****     accel_data_value[8] = abs((int)(100*accel_data_p[2]) % 10);
 643              		.loc 1 155 24 view .LVU138
 644 012e 002B     		cmp	r3, #0
 645 0130 B8BF     		it	lt
 646 0132 5B42     		rsblt	r3, r3, #0
 155:Core/Src/main_functions.c ****     accel_data_value[8] = abs((int)(100*accel_data_p[2]) % 10);
 647              		.loc 1 155 22 view .LVU139
 648 0134 F361     		str	r3, [r6, #28]
 156:Core/Src/main_functions.c **** 
 649              		.loc 1 156 5 is_stmt 1 view .LVU140
 156:Core/Src/main_functions.c **** 
 650              		.loc 1 156 53 is_stmt 0 view .LVU141
 651 0136 D0ED027A 		vldr.32	s15, [r0, #8]
 156:Core/Src/main_functions.c **** 
 652              		.loc 1 156 40 view .LVU142
 653 013a 67EE887A 		vmul.f32	s15, s15, s16
 156:Core/Src/main_functions.c **** 
 654              		.loc 1 156 31 view .LVU143
 655 013e FDEEE77A 		vcvt.s32.f32	s15, s15
 656 0142 17EE902A 		vmov	r2, s15	@ int
ARM GAS  C:\Users\samue\AppData\Local\Temp\cc637gki.s 			page 19


 156:Core/Src/main_functions.c **** 
 657              		.loc 1 156 58 view .LVU144
 658 0146 84FB0231 		smull	r3, r1, r4, r2
 659 014a D317     		asrs	r3, r2, #31
 660 014c C3EBA103 		rsb	r3, r3, r1, asr #2
 661 0150 03EB8303 		add	r3, r3, r3, lsl #2
 662 0154 A2EB4303 		sub	r3, r2, r3, lsl #1
 156:Core/Src/main_functions.c **** 
 663              		.loc 1 156 27 view .LVU145
 664 0158 002B     		cmp	r3, #0
 665 015a B8BF     		it	lt
 666 015c 5B42     		rsblt	r3, r3, #0
 156:Core/Src/main_functions.c **** 
 667              		.loc 1 156 25 view .LVU146
 668 015e 3362     		str	r3, [r6, #32]
 159:Core/Src/main_functions.c **** 
 669              		.loc 1 159 5 is_stmt 1 view .LVU147
 159:Core/Src/main_functions.c **** 
 670              		.loc 1 159 20 is_stmt 0 view .LVU148
 671 0160 844A     		ldr	r2, .L30+24
 672 0162 4321     		movs	r1, #67
 673 0164 D020     		movs	r0, #208
 674 0166 9FED840A 		vldr.32	s0, .L30+28
 675 016a FFF7FEFF 		bl	MPU6050_read
 676              	.LVL31:
 159:Core/Src/main_functions.c **** 
 677              		.loc 1 159 18 view .LVU149
 678 016e DFF82C82 		ldr	r8, .L30+64
 679 0172 C8F80000 		str	r0, [r8]
 162:Core/Src/main_functions.c **** 	gyro_data_value[1] = abs((int)(10*gyro_data_p[0])  % 10);
 680              		.loc 1 162 5 is_stmt 1 view .LVU150
 162:Core/Src/main_functions.c **** 	gyro_data_value[1] = abs((int)(10*gyro_data_p[0])  % 10);
 681              		.loc 1 162 46 is_stmt 0 view .LVU151
 682 0176 D0ED007A 		vldr.32	s15, [r0]
 162:Core/Src/main_functions.c **** 	gyro_data_value[1] = abs((int)(10*gyro_data_p[0])  % 10);
 683              		.loc 1 162 30 view .LVU152
 684 017a FDEEE77A 		vcvt.s32.f32	s15, s15
 685 017e 17EE903A 		vmov	r3, s15	@ int
 162:Core/Src/main_functions.c **** 	gyro_data_value[1] = abs((int)(10*gyro_data_p[0])  % 10);
 686              		.loc 1 162 26 view .LVU153
 687 0182 002B     		cmp	r3, #0
 688 0184 B8BF     		it	lt
 689 0186 5B42     		rsblt	r3, r3, #0
 162:Core/Src/main_functions.c **** 	gyro_data_value[1] = abs((int)(10*gyro_data_p[0])  % 10);
 690              		.loc 1 162 24 view .LVU154
 691 0188 7C4D     		ldr	r5, .L30+32
 692 018a 2B60     		str	r3, [r5]
 163:Core/Src/main_functions.c ****     gyro_data_value[2] = abs((int)(100*gyro_data_p[0]) % 10);
 693              		.loc 1 163 2 is_stmt 1 view .LVU155
 163:Core/Src/main_functions.c ****     gyro_data_value[2] = abs((int)(100*gyro_data_p[0]) % 10);
 694              		.loc 1 163 47 is_stmt 0 view .LVU156
 695 018c D0ED007A 		vldr.32	s15, [r0]
 163:Core/Src/main_functions.c ****     gyro_data_value[2] = abs((int)(100*gyro_data_p[0]) % 10);
 696              		.loc 1 163 35 view .LVU157
 697 0190 67EEA87A 		vmul.f32	s15, s15, s17
 163:Core/Src/main_functions.c ****     gyro_data_value[2] = abs((int)(100*gyro_data_p[0]) % 10);
 698              		.loc 1 163 27 view .LVU158
ARM GAS  C:\Users\samue\AppData\Local\Temp\cc637gki.s 			page 20


 699 0194 FDEEE77A 		vcvt.s32.f32	s15, s15
 700 0198 17EE902A 		vmov	r2, s15	@ int
 163:Core/Src/main_functions.c ****     gyro_data_value[2] = abs((int)(100*gyro_data_p[0]) % 10);
 701              		.loc 1 163 53 view .LVU159
 702 019c 84FB0231 		smull	r3, r1, r4, r2
 703 01a0 D317     		asrs	r3, r2, #31
 704 01a2 C3EBA103 		rsb	r3, r3, r1, asr #2
 705 01a6 03EB8303 		add	r3, r3, r3, lsl #2
 706 01aa A2EB4303 		sub	r3, r2, r3, lsl #1
 163:Core/Src/main_functions.c ****     gyro_data_value[2] = abs((int)(100*gyro_data_p[0]) % 10);
 707              		.loc 1 163 23 view .LVU160
 708 01ae 002B     		cmp	r3, #0
 709 01b0 B8BF     		it	lt
 710 01b2 5B42     		rsblt	r3, r3, #0
 163:Core/Src/main_functions.c ****     gyro_data_value[2] = abs((int)(100*gyro_data_p[0]) % 10);
 711              		.loc 1 163 21 view .LVU161
 712 01b4 6B60     		str	r3, [r5, #4]
 164:Core/Src/main_functions.c **** 
 713              		.loc 1 164 5 is_stmt 1 view .LVU162
 164:Core/Src/main_functions.c **** 
 714              		.loc 1 164 51 is_stmt 0 view .LVU163
 715 01b6 D0ED007A 		vldr.32	s15, [r0]
 164:Core/Src/main_functions.c **** 
 716              		.loc 1 164 39 view .LVU164
 717 01ba 67EE887A 		vmul.f32	s15, s15, s16
 164:Core/Src/main_functions.c **** 
 718              		.loc 1 164 30 view .LVU165
 719 01be FDEEE77A 		vcvt.s32.f32	s15, s15
 720 01c2 17EE902A 		vmov	r2, s15	@ int
 164:Core/Src/main_functions.c **** 
 721              		.loc 1 164 56 view .LVU166
 722 01c6 84FB0231 		smull	r3, r1, r4, r2
 723 01ca D317     		asrs	r3, r2, #31
 724 01cc C3EBA103 		rsb	r3, r3, r1, asr #2
 725 01d0 03EB8303 		add	r3, r3, r3, lsl #2
 726 01d4 A2EB4303 		sub	r3, r2, r3, lsl #1
 164:Core/Src/main_functions.c **** 
 727              		.loc 1 164 26 view .LVU167
 728 01d8 002B     		cmp	r3, #0
 729 01da B8BF     		it	lt
 730 01dc 5B42     		rsblt	r3, r3, #0
 164:Core/Src/main_functions.c **** 
 731              		.loc 1 164 24 view .LVU168
 732 01de AB60     		str	r3, [r5, #8]
 166:Core/Src/main_functions.c **** 	gyro_data_value[4] = abs((int)(10*gyro_data_p[1])  % 10);
 733              		.loc 1 166 2 is_stmt 1 view .LVU169
 166:Core/Src/main_functions.c **** 	gyro_data_value[4] = abs((int)(10*gyro_data_p[1])  % 10);
 734              		.loc 1 166 43 is_stmt 0 view .LVU170
 735 01e0 D0ED017A 		vldr.32	s15, [r0, #4]
 166:Core/Src/main_functions.c **** 	gyro_data_value[4] = abs((int)(10*gyro_data_p[1])  % 10);
 736              		.loc 1 166 27 view .LVU171
 737 01e4 FDEEE77A 		vcvt.s32.f32	s15, s15
 738 01e8 17EE903A 		vmov	r3, s15	@ int
 166:Core/Src/main_functions.c **** 	gyro_data_value[4] = abs((int)(10*gyro_data_p[1])  % 10);
 739              		.loc 1 166 23 view .LVU172
 740 01ec 002B     		cmp	r3, #0
 741 01ee B8BF     		it	lt
ARM GAS  C:\Users\samue\AppData\Local\Temp\cc637gki.s 			page 21


 742 01f0 5B42     		rsblt	r3, r3, #0
 166:Core/Src/main_functions.c **** 	gyro_data_value[4] = abs((int)(10*gyro_data_p[1])  % 10);
 743              		.loc 1 166 21 view .LVU173
 744 01f2 EB60     		str	r3, [r5, #12]
 167:Core/Src/main_functions.c ****     gyro_data_value[5] = abs((int)(100*gyro_data_p[1]) % 10);
 745              		.loc 1 167 2 is_stmt 1 view .LVU174
 167:Core/Src/main_functions.c ****     gyro_data_value[5] = abs((int)(100*gyro_data_p[1]) % 10);
 746              		.loc 1 167 47 is_stmt 0 view .LVU175
 747 01f4 D0ED017A 		vldr.32	s15, [r0, #4]
 167:Core/Src/main_functions.c ****     gyro_data_value[5] = abs((int)(100*gyro_data_p[1]) % 10);
 748              		.loc 1 167 35 view .LVU176
 749 01f8 67EEA87A 		vmul.f32	s15, s15, s17
 167:Core/Src/main_functions.c ****     gyro_data_value[5] = abs((int)(100*gyro_data_p[1]) % 10);
 750              		.loc 1 167 27 view .LVU177
 751 01fc FDEEE77A 		vcvt.s32.f32	s15, s15
 752 0200 17EE902A 		vmov	r2, s15	@ int
 167:Core/Src/main_functions.c ****     gyro_data_value[5] = abs((int)(100*gyro_data_p[1]) % 10);
 753              		.loc 1 167 53 view .LVU178
 754 0204 84FB0231 		smull	r3, r1, r4, r2
 755 0208 D317     		asrs	r3, r2, #31
 756 020a C3EBA103 		rsb	r3, r3, r1, asr #2
 757 020e 03EB8303 		add	r3, r3, r3, lsl #2
 758 0212 A2EB4303 		sub	r3, r2, r3, lsl #1
 167:Core/Src/main_functions.c ****     gyro_data_value[5] = abs((int)(100*gyro_data_p[1]) % 10);
 759              		.loc 1 167 23 view .LVU179
 760 0216 002B     		cmp	r3, #0
 761 0218 B8BF     		it	lt
 762 021a 5B42     		rsblt	r3, r3, #0
 167:Core/Src/main_functions.c ****     gyro_data_value[5] = abs((int)(100*gyro_data_p[1]) % 10);
 763              		.loc 1 167 21 view .LVU180
 764 021c 2B61     		str	r3, [r5, #16]
 168:Core/Src/main_functions.c **** 
 765              		.loc 1 168 5 is_stmt 1 view .LVU181
 168:Core/Src/main_functions.c **** 
 766              		.loc 1 168 51 is_stmt 0 view .LVU182
 767 021e D0ED017A 		vldr.32	s15, [r0, #4]
 168:Core/Src/main_functions.c **** 
 768              		.loc 1 168 39 view .LVU183
 769 0222 67EE887A 		vmul.f32	s15, s15, s16
 168:Core/Src/main_functions.c **** 
 770              		.loc 1 168 30 view .LVU184
 771 0226 FDEEE77A 		vcvt.s32.f32	s15, s15
 772 022a 17EE902A 		vmov	r2, s15	@ int
 168:Core/Src/main_functions.c **** 
 773              		.loc 1 168 56 view .LVU185
 774 022e 84FB0231 		smull	r3, r1, r4, r2
 775 0232 D317     		asrs	r3, r2, #31
 776 0234 C3EBA103 		rsb	r3, r3, r1, asr #2
 777 0238 03EB8303 		add	r3, r3, r3, lsl #2
 778 023c A2EB4303 		sub	r3, r2, r3, lsl #1
 168:Core/Src/main_functions.c **** 
 779              		.loc 1 168 26 view .LVU186
 780 0240 002B     		cmp	r3, #0
 781 0242 B8BF     		it	lt
 782 0244 5B42     		rsblt	r3, r3, #0
 168:Core/Src/main_functions.c **** 
 783              		.loc 1 168 24 view .LVU187
ARM GAS  C:\Users\samue\AppData\Local\Temp\cc637gki.s 			page 22


 784 0246 6B61     		str	r3, [r5, #20]
 170:Core/Src/main_functions.c **** 	gyro_data_value[7] = abs((int)(10*gyro_data_p[2])  % 10);
 785              		.loc 1 170 2 is_stmt 1 view .LVU188
 170:Core/Src/main_functions.c **** 	gyro_data_value[7] = abs((int)(10*gyro_data_p[2])  % 10);
 786              		.loc 1 170 43 is_stmt 0 view .LVU189
 787 0248 D0ED027A 		vldr.32	s15, [r0, #8]
 170:Core/Src/main_functions.c **** 	gyro_data_value[7] = abs((int)(10*gyro_data_p[2])  % 10);
 788              		.loc 1 170 27 view .LVU190
 789 024c FDEEE77A 		vcvt.s32.f32	s15, s15
 790 0250 17EE903A 		vmov	r3, s15	@ int
 170:Core/Src/main_functions.c **** 	gyro_data_value[7] = abs((int)(10*gyro_data_p[2])  % 10);
 791              		.loc 1 170 23 view .LVU191
 792 0254 002B     		cmp	r3, #0
 793 0256 B8BF     		it	lt
 794 0258 5B42     		rsblt	r3, r3, #0
 170:Core/Src/main_functions.c **** 	gyro_data_value[7] = abs((int)(10*gyro_data_p[2])  % 10);
 795              		.loc 1 170 21 view .LVU192
 796 025a AB61     		str	r3, [r5, #24]
 171:Core/Src/main_functions.c ****     gyro_data_value[8] = abs((int)(100*gyro_data_p[2]) % 10);
 797              		.loc 1 171 2 is_stmt 1 view .LVU193
 171:Core/Src/main_functions.c ****     gyro_data_value[8] = abs((int)(100*gyro_data_p[2]) % 10);
 798              		.loc 1 171 47 is_stmt 0 view .LVU194
 799 025c D0ED027A 		vldr.32	s15, [r0, #8]
 171:Core/Src/main_functions.c ****     gyro_data_value[8] = abs((int)(100*gyro_data_p[2]) % 10);
 800              		.loc 1 171 35 view .LVU195
 801 0260 67EEA87A 		vmul.f32	s15, s15, s17
 171:Core/Src/main_functions.c ****     gyro_data_value[8] = abs((int)(100*gyro_data_p[2]) % 10);
 802              		.loc 1 171 27 view .LVU196
 803 0264 FDEEE77A 		vcvt.s32.f32	s15, s15
 804 0268 17EE902A 		vmov	r2, s15	@ int
 171:Core/Src/main_functions.c ****     gyro_data_value[8] = abs((int)(100*gyro_data_p[2]) % 10);
 805              		.loc 1 171 53 view .LVU197
 806 026c 84FB0231 		smull	r3, r1, r4, r2
 807 0270 D317     		asrs	r3, r2, #31
 808 0272 C3EBA103 		rsb	r3, r3, r1, asr #2
 809 0276 03EB8303 		add	r3, r3, r3, lsl #2
 810 027a A2EB4303 		sub	r3, r2, r3, lsl #1
 171:Core/Src/main_functions.c ****     gyro_data_value[8] = abs((int)(100*gyro_data_p[2]) % 10);
 811              		.loc 1 171 23 view .LVU198
 812 027e 002B     		cmp	r3, #0
 813 0280 B8BF     		it	lt
 814 0282 5B42     		rsblt	r3, r3, #0
 171:Core/Src/main_functions.c ****     gyro_data_value[8] = abs((int)(100*gyro_data_p[2]) % 10);
 815              		.loc 1 171 21 view .LVU199
 816 0284 EB61     		str	r3, [r5, #28]
 172:Core/Src/main_functions.c **** 
 817              		.loc 1 172 5 is_stmt 1 view .LVU200
 172:Core/Src/main_functions.c **** 
 818              		.loc 1 172 51 is_stmt 0 view .LVU201
 819 0286 D0ED027A 		vldr.32	s15, [r0, #8]
 172:Core/Src/main_functions.c **** 
 820              		.loc 1 172 39 view .LVU202
 821 028a 67EE887A 		vmul.f32	s15, s15, s16
 172:Core/Src/main_functions.c **** 
 822              		.loc 1 172 30 view .LVU203
 823 028e FDEEE77A 		vcvt.s32.f32	s15, s15
 824 0292 17EE902A 		vmov	r2, s15	@ int
ARM GAS  C:\Users\samue\AppData\Local\Temp\cc637gki.s 			page 23


 172:Core/Src/main_functions.c **** 
 825              		.loc 1 172 56 view .LVU204
 826 0296 84FB0234 		smull	r3, r4, r4, r2
 827 029a D317     		asrs	r3, r2, #31
 828 029c C3EBA404 		rsb	r4, r3, r4, asr #2
 829 02a0 04EB8404 		add	r4, r4, r4, lsl #2
 830 02a4 A2EB4404 		sub	r4, r2, r4, lsl #1
 172:Core/Src/main_functions.c **** 
 831              		.loc 1 172 26 view .LVU205
 832 02a8 002C     		cmp	r4, #0
 833 02aa B8BF     		it	lt
 834 02ac 6442     		rsblt	r4, r4, #0
 172:Core/Src/main_functions.c **** 
 835              		.loc 1 172 24 view .LVU206
 836 02ae 2C62     		str	r4, [r5, #32]
 176:Core/Src/main_functions.c **** 
 837              		.loc 1 176 5 is_stmt 1 view .LVU207
 838 02b0 3B68     		ldr	r3, [r7]
 839 02b2 93ED000A 		vldr.32	s0, [r3]
 840 02b6 0196     		str	r6, [sp, #4]
 841 02b8 0024     		movs	r4, #0
 842 02ba 0094     		str	r4, [sp]
 843 02bc 304B     		ldr	r3, .L30+36
 844 02be 0322     		movs	r2, #3
 845 02c0 0421     		movs	r1, #4
 846 02c2 2046     		mov	r0, r4
 847 02c4 FFF7FEFF 		bl	print_data
 848              	.LVL32:
 179:Core/Src/main_functions.c **** 
 849              		.loc 1 179 5 view .LVU208
 179:Core/Src/main_functions.c **** 
 850              		.loc 1 179 60 is_stmt 0 view .LVU209
 851 02c8 3B68     		ldr	r3, [r7]
 179:Core/Src/main_functions.c **** 
 852              		.loc 1 179 5 view .LVU210
 853 02ca 93ED010A 		vldr.32	s0, [r3, #4]
 854 02ce 0196     		str	r6, [sp, #4]
 855 02d0 4FF00309 		mov	r9, #3
 856 02d4 CDF80090 		str	r9, [sp]
 857 02d8 2A4B     		ldr	r3, .L30+40
 858 02da 4322     		movs	r2, #67
 859 02dc 4421     		movs	r1, #68
 860 02de 4020     		movs	r0, #64
 861 02e0 FFF7FEFF 		bl	print_data
 862              	.LVL33:
 182:Core/Src/main_functions.c **** 
 863              		.loc 1 182 5 is_stmt 1 view .LVU211
 182:Core/Src/main_functions.c **** 
 864              		.loc 1 182 60 is_stmt 0 view .LVU212
 865 02e4 3B68     		ldr	r3, [r7]
 182:Core/Src/main_functions.c **** 
 866              		.loc 1 182 5 view .LVU213
 867 02e6 93ED020A 		vldr.32	s0, [r3, #8]
 868 02ea 0196     		str	r6, [sp, #4]
 869 02ec 0626     		movs	r6, #6
 870 02ee 0096     		str	r6, [sp]
 871 02f0 254B     		ldr	r3, .L30+44
ARM GAS  C:\Users\samue\AppData\Local\Temp\cc637gki.s 			page 24


 872 02f2 1722     		movs	r2, #23
 873 02f4 1821     		movs	r1, #24
 874 02f6 1420     		movs	r0, #20
 875 02f8 FFF7FEFF 		bl	print_data
 876              	.LVL34:
 185:Core/Src/main_functions.c **** 
 877              		.loc 1 185 5 is_stmt 1 view .LVU214
 878 02fc D8F80030 		ldr	r3, [r8]
 879 0300 93ED000A 		vldr.32	s0, [r3]
 880 0304 0195     		str	r5, [sp, #4]
 881 0306 0094     		str	r4, [sp]
 882 0308 204B     		ldr	r3, .L30+48
 883 030a 0D22     		movs	r2, #13
 884 030c 0E21     		movs	r1, #14
 885 030e 0A20     		movs	r0, #10
 886 0310 FFF7FEFF 		bl	print_data
 887              	.LVL35:
 188:Core/Src/main_functions.c **** 
 888              		.loc 1 188 5 view .LVU215
 188:Core/Src/main_functions.c **** 
 889              		.loc 1 188 59 is_stmt 0 view .LVU216
 890 0314 D8F80030 		ldr	r3, [r8]
 188:Core/Src/main_functions.c **** 
 891              		.loc 1 188 5 view .LVU217
 892 0318 93ED010A 		vldr.32	s0, [r3, #4]
 893 031c 0195     		str	r5, [sp, #4]
 894 031e CDF80090 		str	r9, [sp]
 895 0322 1B4B     		ldr	r3, .L30+52
 896 0324 4D22     		movs	r2, #77
 897 0326 4E21     		movs	r1, #78
 898 0328 4A20     		movs	r0, #74
 899 032a FFF7FEFF 		bl	print_data
 900              	.LVL36:
 191:Core/Src/main_functions.c **** 
 901              		.loc 1 191 5 is_stmt 1 view .LVU218
 191:Core/Src/main_functions.c **** 
 902              		.loc 1 191 59 is_stmt 0 view .LVU219
 903 032e D8F80030 		ldr	r3, [r8]
 191:Core/Src/main_functions.c **** 
 904              		.loc 1 191 5 view .LVU220
 905 0332 93ED020A 		vldr.32	s0, [r3, #8]
 906 0336 0195     		str	r5, [sp, #4]
 907 0338 0096     		str	r6, [sp]
 908 033a 164B     		ldr	r3, .L30+56
 909 033c 2122     		movs	r2, #33
 910 033e 2221     		movs	r1, #34
 911 0340 1E20     		movs	r0, #30
 912 0342 FFF7FEFF 		bl	print_data
 913              	.LVL37:
 194:Core/Src/main_functions.c **** 	lcd_send_string("                    ");
 914              		.loc 1 194 2 is_stmt 1 view .LVU221
 915 0346 D420     		movs	r0, #212
 916 0348 FFF7FEFF 		bl	lcd_send_cmd
 917              	.LVL38:
 195:Core/Src/main_functions.c **** }
 918              		.loc 1 195 2 view .LVU222
 919 034c 1248     		ldr	r0, .L30+60
ARM GAS  C:\Users\samue\AppData\Local\Temp\cc637gki.s 			page 25


 920 034e FFF7FEFF 		bl	lcd_send_string
 921              	.LVL39:
 196:Core/Src/main_functions.c **** 
 922              		.loc 1 196 1 is_stmt 0 view .LVU223
 923 0352 03B0     		add	sp, sp, #12
 924              	.LCFI12:
 925              		.cfi_def_cfa_offset 36
 926              		@ sp needed
 927 0354 BDEC028B 		vldm	sp!, {d8}
 928              	.LCFI13:
 929              		.cfi_restore 80
 930              		.cfi_restore 81
 931              		.cfi_def_cfa_offset 28
 932 0358 BDE8F083 		pop	{r4, r5, r6, r7, r8, r9, pc}
 933              	.L31:
 934              		.align	2
 935              	.L30:
 936 035c 00000000 		.word	.LANCHOR3
 937 0360 00008046 		.word	1182793728
 938 0364 00000000 		.word	.LANCHOR10
 939 0368 00000000 		.word	.LANCHOR11
 940 036c 67666666 		.word	1717986919
 941 0370 0000C842 		.word	1120403456
 942 0374 00000000 		.word	.LANCHOR5
 943 0378 00000343 		.word	1124270080
 944 037c 00000000 		.word	.LANCHOR13
 945 0380 00000000 		.word	.LANCHOR14
 946 0384 00000000 		.word	.LANCHOR15
 947 0388 00000000 		.word	.LANCHOR16
 948 038c 00000000 		.word	.LANCHOR17
 949 0390 00000000 		.word	.LANCHOR18
 950 0394 00000000 		.word	.LANCHOR19
 951 0398 00000000 		.word	.LC7
 952 039c 00000000 		.word	.LANCHOR12
 953              		.cfi_endproc
 954              	.LFE135:
 956              		.section	.text.send_uart,"ax",%progbits
 957              		.align	1
 958              		.global	send_uart
 959              		.syntax unified
 960              		.thumb
 961              		.thumb_func
 963              	send_uart:
 964              	.LVL40:
 965              	.LFB139:
 253:Core/Src/main_functions.c **** 
 254:Core/Src/main_functions.c **** 
 255:Core/Src/main_functions.c **** // Send information over uart 
 256:Core/Src/main_functions.c **** void send_uart(char *string) {
 966              		.loc 1 256 30 is_stmt 1 view -0
 967              		.cfi_startproc
 968              		@ args = 0, pretend = 0, frame = 0
 969              		@ frame_needed = 0, uses_anonymous_args = 0
 970              		.loc 1 256 30 is_stmt 0 view .LVU225
 971 0000 10B5     		push	{r4, lr}
 972              	.LCFI14:
 973              		.cfi_def_cfa_offset 8
ARM GAS  C:\Users\samue\AppData\Local\Temp\cc637gki.s 			page 26


 974              		.cfi_offset 4, -8
 975              		.cfi_offset 14, -4
 976 0002 0446     		mov	r4, r0
 257:Core/Src/main_functions.c ****     uint8_t len = strlen(string);
 977              		.loc 1 257 5 is_stmt 1 view .LVU226
 978              		.loc 1 257 19 is_stmt 0 view .LVU227
 979 0004 FFF7FEFF 		bl	strlen
 980              	.LVL41:
 258:Core/Src/main_functions.c ****     // Transmit in blocking mode
 259:Core/Src/main_functions.c ****     HAL_UART_Transmit(&huart2, (uint8_t*)string, len, 2000);
 981              		.loc 1 259 5 is_stmt 1 view .LVU228
 982 0008 4FF4FA63 		mov	r3, #2000
 983 000c C2B2     		uxtb	r2, r0
 984 000e 2146     		mov	r1, r4
 985 0010 0148     		ldr	r0, .L34
 986              	.LVL42:
 987              		.loc 1 259 5 is_stmt 0 view .LVU229
 988 0012 FFF7FEFF 		bl	HAL_UART_Transmit
 989              	.LVL43:
 260:Core/Src/main_functions.c **** }
 990              		.loc 1 260 1 view .LVU230
 991 0016 10BD     		pop	{r4, pc}
 992              	.LVL44:
 993              	.L35:
 994              		.loc 1 260 1 view .LVU231
 995              		.align	2
 996              	.L34:
 997 0018 00000000 		.word	huart2
 998              		.cfi_endproc
 999              	.LFE139:
 1001              		.global	FSM
 1002              		.global	Gz_string
 1003              		.global	Gy_string
 1004              		.global	Gx_string
 1005              		.global	Az_string
 1006              		.global	Ay_string
 1007              		.global	Ax_string
 1008              		.global	line_pos
 1009              		.global	buf
 1010              		.global	zero_corr
 1011              		.global	gyro_corr_p
 1012              		.global	gyro_corr
 1013              		.global	gyro_data_p
 1014              		.global	gyro_data_value
 1015              		.global	accel_corr_p
 1016              		.global	accel_corr
 1017              		.global	accel_data_p
 1018              		.global	accel_data_value
 1019              		.global	state
 1020              		.global	flag
 1021              		.section	.bss.accel_corr,"aw",%nobits
 1022              		.align	2
 1023              		.set	.LANCHOR3,. + 0
 1026              	accel_corr:
 1027 0000 00000000 		.space	12
 1027      00000000 
 1027      00000000 
ARM GAS  C:\Users\samue\AppData\Local\Temp\cc637gki.s 			page 27


 1028              		.section	.bss.accel_corr_p,"aw",%nobits
 1029              		.align	2
 1030              		.set	.LANCHOR2,. + 0
 1033              	accel_corr_p:
 1034 0000 00000000 		.space	4
 1035              		.section	.bss.accel_data_p,"aw",%nobits
 1036              		.align	2
 1037              		.set	.LANCHOR10,. + 0
 1040              	accel_data_p:
 1041 0000 00000000 		.space	4
 1042              		.section	.bss.accel_data_value,"aw",%nobits
 1043              		.align	2
 1044              		.set	.LANCHOR11,. + 0
 1047              	accel_data_value:
 1048 0000 00000000 		.space	36
 1048      00000000 
 1048      00000000 
 1048      00000000 
 1048      00000000 
 1049              		.section	.bss.buf,"aw",%nobits
 1050              		.align	2
 1051              		.set	.LANCHOR9,. + 0
 1054              	buf:
 1055 0000 00000000 		.space	6
 1055      0000
 1056              		.section	.bss.flag,"aw",%nobits
 1057              		.set	.LANCHOR0,. + 0
 1060              	flag:
 1061 0000 00       		.space	1
 1062              		.section	.bss.gyro_corr,"aw",%nobits
 1063              		.align	2
 1064              		.set	.LANCHOR5,. + 0
 1067              	gyro_corr:
 1068 0000 00000000 		.space	12
 1068      00000000 
 1068      00000000 
 1069              		.section	.bss.gyro_corr_p,"aw",%nobits
 1070              		.align	2
 1071              		.set	.LANCHOR4,. + 0
 1074              	gyro_corr_p:
 1075 0000 00000000 		.space	4
 1076              		.section	.bss.gyro_data_p,"aw",%nobits
 1077              		.align	2
 1078              		.set	.LANCHOR12,. + 0
 1081              	gyro_data_p:
 1082 0000 00000000 		.space	4
 1083              		.section	.bss.gyro_data_value,"aw",%nobits
 1084              		.align	2
 1085              		.set	.LANCHOR13,. + 0
 1088              	gyro_data_value:
 1089 0000 00000000 		.space	36
 1089      00000000 
 1089      00000000 
 1089      00000000 
 1089      00000000 
 1090              		.section	.bss.line_pos,"aw",%nobits
 1091              		.set	.LANCHOR8,. + 0
ARM GAS  C:\Users\samue\AppData\Local\Temp\cc637gki.s 			page 28


 1094              	line_pos:
 1095 0000 00       		.space	1
 1096              		.section	.bss.state,"aw",%nobits
 1097              		.align	2
 1098              		.set	.LANCHOR6,. + 0
 1101              	state:
 1102 0000 00000000 		.space	4
 1103              		.section	.bss.zero_corr,"aw",%nobits
 1104              		.align	2
 1105              		.set	.LANCHOR1,. + 0
 1108              	zero_corr:
 1109 0000 00000000 		.space	12
 1109      00000000 
 1109      00000000 
 1110              		.section	.data.Ax_string,"aw"
 1111              		.align	2
 1112              		.set	.LANCHOR14,. + 0
 1115              	Ax_string:
 1116 0000 41783D20 		.ascii	"Ax=       \000"
 1116      20202020 
 1116      202000
 1117              		.section	.data.Ay_string,"aw"
 1118              		.align	2
 1119              		.set	.LANCHOR15,. + 0
 1122              	Ay_string:
 1123 0000 41793D20 		.ascii	"Ay=       \000"
 1123      20202020 
 1123      202000
 1124              		.section	.data.Az_string,"aw"
 1125              		.align	2
 1126              		.set	.LANCHOR16,. + 0
 1129              	Az_string:
 1130 0000 417A3D20 		.ascii	"Az=       \000"
 1130      20202020 
 1130      202000
 1131              		.section	.data.Gx_string,"aw"
 1132              		.align	2
 1133              		.set	.LANCHOR17,. + 0
 1136              	Gx_string:
 1137 0000 47783D20 		.ascii	"Gx=       \000"
 1137      20202020 
 1137      202000
 1138              		.section	.data.Gy_string,"aw"
 1139              		.align	2
 1140              		.set	.LANCHOR18,. + 0
 1143              	Gy_string:
 1144 0000 47793D20 		.ascii	"Gy=       \000"
 1144      20202020 
 1144      202000
 1145              		.section	.data.Gz_string,"aw"
 1146              		.align	2
 1147              		.set	.LANCHOR19,. + 0
 1150              	Gz_string:
 1151 0000 477A3D20 		.ascii	"Gz=       \000"
 1151      20202020 
 1151      202000
 1152              		.section	.rodata.FSM,"a"
ARM GAS  C:\Users\samue\AppData\Local\Temp\cc637gki.s 			page 29


 1153              		.align	2
 1154              		.set	.LANCHOR7,. + 0
 1157              	FSM:
 1158 0000 00000000 		.word	normal
 1159 0004 F4010000 		.word	500
 1160 0008 00000000 		.word	0
 1161 000c 01000000 		.word	1
 1162 0010 00000000 		.word	accel_cal_prep
 1163 0014 E8030000 		.word	1000
 1164 0018 01000000 		.word	1
 1165 001c 02000000 		.word	2
 1166 0020 00000000 		.word	accel_cal
 1167 0024 D0070000 		.word	2000
 1168 0028 00000000 		.word	0
 1169 002c 00000000 		.word	0
 1170              		.text
 1171              	.Letext0:
 1172              		.file 2 "c:\\dev_tools\\gcc-arm-none-eabi-10.3-2021.10-win32\\gcc-arm-none-eabi-10.3-2021.10\\arm-
 1173              		.file 3 "c:\\dev_tools\\gcc-arm-none-eabi-10.3-2021.10-win32\\gcc-arm-none-eabi-10.3-2021.10\\arm-
 1174              		.file 4 "Drivers/CMSIS/Device/ST/STM32F4xx/Include/stm32f411xe.h"
 1175              		.file 5 "Drivers/STM32F4xx_HAL_Driver/Inc/stm32f4xx_hal_def.h"
 1176              		.file 6 "Drivers/STM32F4xx_HAL_Driver/Inc/stm32f4xx_hal_dma.h"
 1177              		.file 7 "Drivers/STM32F4xx_HAL_Driver/Inc/stm32f4xx_hal_uart.h"
 1178              		.file 8 "Device-Drivers/Inc/sd-card-spi.h"
 1179              		.file 9 "c:\\dev_tools\\gcc-arm-none-eabi-10.3-2021.10-win32\\gcc-arm-none-eabi-10.3-2021.10\\arm-
 1180              		.file 10 "Core/Inc/i2c-lcd.h"
 1181              		.file 11 "Core/Inc/accelerometer_data.h"
 1182              		.file 12 "c:\\dev_tools\\gcc-arm-none-eabi-10.3-2021.10-win32\\gcc-arm-none-eabi-10.3-2021.10\\arm
 1183              		.file 13 "Drivers/STM32F4xx_HAL_Driver/Inc/stm32f4xx_hal.h"
ARM GAS  C:\Users\samue\AppData\Local\Temp\cc637gki.s 			page 30


DEFINED SYMBOLS
                            *ABS*:00000000 main_functions.c
C:\Users\samue\AppData\Local\Temp\cc637gki.s:20     .rodata.accel_cal_prep.str1.4:00000000 $d
C:\Users\samue\AppData\Local\Temp\cc637gki.s:30     .text.accel_cal_prep:00000000 $t
C:\Users\samue\AppData\Local\Temp\cc637gki.s:36     .text.accel_cal_prep:00000000 accel_cal_prep
C:\Users\samue\AppData\Local\Temp\cc637gki.s:95     .text.accel_cal_prep:0000003c $d
C:\Users\samue\AppData\Local\Temp\cc637gki.s:103    .rodata.accel_cal.str1.4:00000000 $d
C:\Users\samue\AppData\Local\Temp\cc637gki.s:107    .text.accel_cal:00000000 $t
C:\Users\samue\AppData\Local\Temp\cc637gki.s:113    .text.accel_cal:00000000 accel_cal
C:\Users\samue\AppData\Local\Temp\cc637gki.s:196    .text.accel_cal:0000005c $d
C:\Users\samue\AppData\Local\Temp\cc637gki.s:209    .rodata.main_function.str1.4:00000000 $d
C:\Users\samue\AppData\Local\Temp\cc637gki.s:213    .text.main_function:00000000 $t
C:\Users\samue\AppData\Local\Temp\cc637gki.s:219    .text.main_function:00000000 main_function
C:\Users\samue\AppData\Local\Temp\cc637gki.s:291    .text.main_function:00000058 $d
C:\Users\samue\AppData\Local\Temp\cc637gki.s:299    .text.HAL_GPIO_EXTI_Callback:00000000 $t
C:\Users\samue\AppData\Local\Temp\cc637gki.s:305    .text.HAL_GPIO_EXTI_Callback:00000000 HAL_GPIO_EXTI_Callback
C:\Users\samue\AppData\Local\Temp\cc637gki.s:323    .text.HAL_GPIO_EXTI_Callback:00000008 $d
C:\Users\samue\AppData\Local\Temp\cc637gki.s:328    .rodata.print_data.str1.4:00000000 $d
C:\Users\samue\AppData\Local\Temp\cc637gki.s:335    .text.print_data:00000000 $t
C:\Users\samue\AppData\Local\Temp\cc637gki.s:341    .text.print_data:00000000 print_data
C:\Users\samue\AppData\Local\Temp\cc637gki.s:456    .text.print_data:00000090 $d
C:\Users\samue\AppData\Local\Temp\cc637gki.s:464    .rodata.normal.str1.4:00000000 $d
C:\Users\samue\AppData\Local\Temp\cc637gki.s:468    .text.normal:00000000 $t
C:\Users\samue\AppData\Local\Temp\cc637gki.s:474    .text.normal:00000000 normal
C:\Users\samue\AppData\Local\Temp\cc637gki.s:936    .text.normal:0000035c $d
C:\Users\samue\AppData\Local\Temp\cc637gki.s:957    .text.send_uart:00000000 $t
C:\Users\samue\AppData\Local\Temp\cc637gki.s:963    .text.send_uart:00000000 send_uart
C:\Users\samue\AppData\Local\Temp\cc637gki.s:997    .text.send_uart:00000018 $d
C:\Users\samue\AppData\Local\Temp\cc637gki.s:1157   .rodata.FSM:00000000 FSM
C:\Users\samue\AppData\Local\Temp\cc637gki.s:1150   .data.Gz_string:00000000 Gz_string
C:\Users\samue\AppData\Local\Temp\cc637gki.s:1143   .data.Gy_string:00000000 Gy_string
C:\Users\samue\AppData\Local\Temp\cc637gki.s:1136   .data.Gx_string:00000000 Gx_string
C:\Users\samue\AppData\Local\Temp\cc637gki.s:1129   .data.Az_string:00000000 Az_string
C:\Users\samue\AppData\Local\Temp\cc637gki.s:1122   .data.Ay_string:00000000 Ay_string
C:\Users\samue\AppData\Local\Temp\cc637gki.s:1115   .data.Ax_string:00000000 Ax_string
C:\Users\samue\AppData\Local\Temp\cc637gki.s:1094   .bss.line_pos:00000000 line_pos
C:\Users\samue\AppData\Local\Temp\cc637gki.s:1054   .bss.buf:00000000 buf
C:\Users\samue\AppData\Local\Temp\cc637gki.s:1108   .bss.zero_corr:00000000 zero_corr
C:\Users\samue\AppData\Local\Temp\cc637gki.s:1074   .bss.gyro_corr_p:00000000 gyro_corr_p
C:\Users\samue\AppData\Local\Temp\cc637gki.s:1067   .bss.gyro_corr:00000000 gyro_corr
C:\Users\samue\AppData\Local\Temp\cc637gki.s:1081   .bss.gyro_data_p:00000000 gyro_data_p
C:\Users\samue\AppData\Local\Temp\cc637gki.s:1088   .bss.gyro_data_value:00000000 gyro_data_value
C:\Users\samue\AppData\Local\Temp\cc637gki.s:1033   .bss.accel_corr_p:00000000 accel_corr_p
C:\Users\samue\AppData\Local\Temp\cc637gki.s:1026   .bss.accel_corr:00000000 accel_corr
C:\Users\samue\AppData\Local\Temp\cc637gki.s:1040   .bss.accel_data_p:00000000 accel_data_p
C:\Users\samue\AppData\Local\Temp\cc637gki.s:1047   .bss.accel_data_value:00000000 accel_data_value
C:\Users\samue\AppData\Local\Temp\cc637gki.s:1101   .bss.state:00000000 state
C:\Users\samue\AppData\Local\Temp\cc637gki.s:1060   .bss.flag:00000000 flag
C:\Users\samue\AppData\Local\Temp\cc637gki.s:1022   .bss.accel_corr:00000000 $d
C:\Users\samue\AppData\Local\Temp\cc637gki.s:1029   .bss.accel_corr_p:00000000 $d
C:\Users\samue\AppData\Local\Temp\cc637gki.s:1036   .bss.accel_data_p:00000000 $d
C:\Users\samue\AppData\Local\Temp\cc637gki.s:1043   .bss.accel_data_value:00000000 $d
C:\Users\samue\AppData\Local\Temp\cc637gki.s:1050   .bss.buf:00000000 $d
C:\Users\samue\AppData\Local\Temp\cc637gki.s:1061   .bss.flag:00000000 $d
C:\Users\samue\AppData\Local\Temp\cc637gki.s:1063   .bss.gyro_corr:00000000 $d
C:\Users\samue\AppData\Local\Temp\cc637gki.s:1070   .bss.gyro_corr_p:00000000 $d
C:\Users\samue\AppData\Local\Temp\cc637gki.s:1077   .bss.gyro_data_p:00000000 $d
ARM GAS  C:\Users\samue\AppData\Local\Temp\cc637gki.s 			page 31


C:\Users\samue\AppData\Local\Temp\cc637gki.s:1084   .bss.gyro_data_value:00000000 $d
C:\Users\samue\AppData\Local\Temp\cc637gki.s:1095   .bss.line_pos:00000000 $d
C:\Users\samue\AppData\Local\Temp\cc637gki.s:1097   .bss.state:00000000 $d
C:\Users\samue\AppData\Local\Temp\cc637gki.s:1104   .bss.zero_corr:00000000 $d
C:\Users\samue\AppData\Local\Temp\cc637gki.s:1111   .data.Ax_string:00000000 $d
C:\Users\samue\AppData\Local\Temp\cc637gki.s:1118   .data.Ay_string:00000000 $d
C:\Users\samue\AppData\Local\Temp\cc637gki.s:1125   .data.Az_string:00000000 $d
C:\Users\samue\AppData\Local\Temp\cc637gki.s:1132   .data.Gx_string:00000000 $d
C:\Users\samue\AppData\Local\Temp\cc637gki.s:1139   .data.Gy_string:00000000 $d
C:\Users\samue\AppData\Local\Temp\cc637gki.s:1146   .data.Gz_string:00000000 $d
C:\Users\samue\AppData\Local\Temp\cc637gki.s:1153   .rodata.FSM:00000000 $d

UNDEFINED SYMBOLS
lcd_send_cmd
lcd_send_string
lcd_clear
MPU6050_read
lcd_init
MPU6050_Init
HAL_Delay
sd_card
sprintf
strlen
HAL_UART_Transmit
huart2
