ARM GAS  C:\Users\samue\AppData\Local\Temp\ccPE45pB.s 			page 1


   1              		.cpu cortex-m4
   2              		.arch armv7e-m
   3              		.fpu fpv4-sp-d16
   4              		.eabi_attribute 27, 1
   5              		.eabi_attribute 28, 1
   6              		.eabi_attribute 20, 1
   7              		.eabi_attribute 21, 1
   8              		.eabi_attribute 23, 3
   9              		.eabi_attribute 24, 1
  10              		.eabi_attribute 25, 1
  11              		.eabi_attribute 26, 1
  12              		.eabi_attribute 30, 1
  13              		.eabi_attribute 34, 1
  14              		.eabi_attribute 18, 4
  15              		.file	"main.c"
  16              		.text
  17              	.Ltext0:
  18              		.cfi_sections	.debug_frame
  19              		.section	.text.MX_GPIO_Init,"ax",%progbits
  20              		.align	1
  21              		.syntax unified
  22              		.thumb
  23              		.thumb_func
  25              	MX_GPIO_Init:
  26              	.LFB152:
  27              		.file 1 "Core/Src/main.c"
   1:Core/Src/main.c **** /* USER CODE BEGIN Header */
   2:Core/Src/main.c **** /**
   3:Core/Src/main.c ****   ******************************************************************************
   4:Core/Src/main.c ****   * @file           : main.c
   5:Core/Src/main.c ****   * @brief          : Main program body
   6:Core/Src/main.c ****   ******************************************************************************
   7:Core/Src/main.c ****   * @attention
   8:Core/Src/main.c ****   *
   9:Core/Src/main.c ****   * <h2><center>&copy; Copyright (c) 2021 STMicroelectronics.
  10:Core/Src/main.c ****   * All rights reserved.</center></h2>
  11:Core/Src/main.c ****   *
  12:Core/Src/main.c ****   * This software component is licensed by ST under BSD 3-Clause license,
  13:Core/Src/main.c ****   * the "License"; You may not use this file except in compliance with the
  14:Core/Src/main.c ****   * License. You may obtain a copy of the License at:
  15:Core/Src/main.c ****   *                        opensource.org/licenses/BSD-3-Clause
  16:Core/Src/main.c ****   *
  17:Core/Src/main.c ****   ******************************************************************************
  18:Core/Src/main.c ****   */
  19:Core/Src/main.c **** /* USER CODE END Header */
  20:Core/Src/main.c **** /* Includes ------------------------------------------------------------------*/
  21:Core/Src/main.c **** #include "main.h"
  22:Core/Src/main.c **** 
  23:Core/Src/main.c **** /* Private includes ----------------------------------------------------------*/
  24:Core/Src/main.c **** /* USER CODE BEGIN Includes */
  25:Core/Src/main.c **** 
  26:Core/Src/main.c **** #include "i2c-lcd.h"
  27:Core/Src/main.c **** 
  28:Core/Src/main.c **** // Libraries
  29:Core/Src/main.c **** #include <stdlib.h>
  30:Core/Src/main.c **** #include <stdio.h>
  31:Core/Src/main.c **** 
ARM GAS  C:\Users\samue\AppData\Local\Temp\ccPE45pB.s 			page 2


  32:Core/Src/main.c **** /* USER CODE END Includes */
  33:Core/Src/main.c **** 
  34:Core/Src/main.c **** /* Private typedef -----------------------------------------------------------*/
  35:Core/Src/main.c **** /* USER CODE BEGIN PTD */
  36:Core/Src/main.c **** 
  37:Core/Src/main.c **** /* USER CODE END PTD */
  38:Core/Src/main.c **** 
  39:Core/Src/main.c **** /* Private define ------------------------------------------------------------*/
  40:Core/Src/main.c **** /* USER CODE BEGIN PD */
  41:Core/Src/main.c **** 
  42:Core/Src/main.c **** /* USER CODE END PD */
  43:Core/Src/main.c **** 
  44:Core/Src/main.c **** /* Private macro -------------------------------------------------------------*/
  45:Core/Src/main.c **** /* USER CODE BEGIN PM */
  46:Core/Src/main.c **** 
  47:Core/Src/main.c **** /* USER CODE END PM */
  48:Core/Src/main.c **** 
  49:Core/Src/main.c **** /* Private variables ---------------------------------------------------------*/
  50:Core/Src/main.c **** I2C_HandleTypeDef hi2c1;
  51:Core/Src/main.c **** 
  52:Core/Src/main.c **** UART_HandleTypeDef huart2;
  53:Core/Src/main.c **** DMA_HandleTypeDef hdma_usart2_tx;
  54:Core/Src/main.c **** 
  55:Core/Src/main.c **** /* USER CODE BEGIN PV */
  56:Core/Src/main.c **** 
  57:Core/Src/main.c **** /* USER CODE END PV */
  58:Core/Src/main.c **** 
  59:Core/Src/main.c **** /* Private function prototypes -----------------------------------------------*/
  60:Core/Src/main.c **** void SystemClock_Config(void);
  61:Core/Src/main.c **** static void MX_GPIO_Init(void);
  62:Core/Src/main.c **** static void MX_DMA_Init(void);
  63:Core/Src/main.c **** static void MX_USART2_UART_Init(void);
  64:Core/Src/main.c **** static void MX_I2C1_Init(void);
  65:Core/Src/main.c **** /* USER CODE BEGIN PFP */
  66:Core/Src/main.c **** 
  67:Core/Src/main.c **** /* USER CODE END PFP */
  68:Core/Src/main.c **** 
  69:Core/Src/main.c **** /* Private user code ---------------------------------------------------------*/
  70:Core/Src/main.c **** /* USER CODE BEGIN 0 */
  71:Core/Src/main.c **** 
  72:Core/Src/main.c **** // Structures ----------------------------------------------------------------------------------
  73:Core/Src/main.c **** 
  74:Core/Src/main.c **** // Primary state machine structure
  75:Core/Src/main.c **** typedef const struct BSDA {
  76:Core/Src/main.c **** 	void (*output_func)(void);
  77:Core/Src/main.c **** 	unsigned long time_delay;
  78:Core/Src/main.c **** 	unsigned long next_state[NUM_OPTIONS];
  79:Core/Src/main.c **** } BSDA;
  80:Core/Src/main.c **** 
  81:Core/Src/main.c **** // State Machines
  82:Core/Src/main.c **** 
  83:Core/Src/main.c **** // Primary state machine
  84:Core/Src/main.c **** BSDA FSM[NUM_STATES] = {
  85:Core/Src/main.c **** 		{&startup,        S0_DELAY, {normal_state,         normal_state         }},
  86:Core/Src/main.c **** 		{&normal,         S1_DELAY, {normal_state,         accel_cal_prep_state }},
  87:Core/Src/main.c **** 		{&accel_cal_prep, S2_DELAY, {accel_cal_prep_state, accel_cal_state      }},
  88:Core/Src/main.c **** 		{&accel_cal,      S3_DELAY, {normal_state,         normal_state         }}
ARM GAS  C:\Users\samue\AppData\Local\Temp\ccPE45pB.s 			page 3


  89:Core/Src/main.c **** };
  90:Core/Src/main.c **** 
  91:Core/Src/main.c **** 
  92:Core/Src/main.c **** // Global variables ----------------------------------------------------------------------------
  93:Core/Src/main.c **** 
  94:Core/Src/main.c **** uint8_t flag = 0;     // Interrupt flag
  95:Core/Src/main.c **** unsigned long state;  // Current state
  96:Core/Src/main.c **** unsigned long input;  // For various inputs
  97:Core/Src/main.c **** 
  98:Core/Src/main.c **** float accel_data[3];
  99:Core/Src/main.c **** float *accel_data_p;
 100:Core/Src/main.c **** float accel_corr[3];
 101:Core/Src/main.c **** float *accel_corr_p;
 102:Core/Src/main.c **** float gyro_data[3];
 103:Core/Src/main.c **** float *gyro_data_p;
 104:Core/Src/main.c **** float gyro_corr[3];
 105:Core/Src/main.c **** float *gyro_corr_p;
 106:Core/Src/main.c **** 
 107:Core/Src/main.c **** char buf[5];      // Accelerometer data buffer
 108:Core/Src/main.c **** 
 109:Core/Src/main.c **** 
 110:Core/Src/main.c **** // Functions -----------------------------------------------------------------------------------
 111:Core/Src/main.c **** 
 112:Core/Src/main.c **** // Accelerometer initialization
 113:Core/Src/main.c **** void MPU6050_Init(void) {
 114:Core/Src/main.c **** 
 115:Core/Src/main.c **** 	uint8_t check;
 116:Core/Src/main.c **** 	uint8_t Data;
 117:Core/Src/main.c **** 
 118:Core/Src/main.c **** 	// check ID WHO_AM_I
 119:Core/Src/main.c **** 	HAL_I2C_Mem_Read(&hi2c1, MPU6050_ADDR, WHO_AM_I_REG, 1, &check, 1, 1000);
 120:Core/Src/main.c **** 
 121:Core/Src/main.c **** 	// If the device is present
 122:Core/Src/main.c **** 	if (check == 104) {  // 104 -> 0x68
 123:Core/Src/main.c **** 		// Power management register 0x6B we should write all 0's to wake the sensor up
 124:Core/Src/main.c **** 		Data = 0;
 125:Core/Src/main.c **** 		HAL_I2C_Mem_Write(&hi2c1, MPU6050_ADDR, PWR_MGMT_1_REG, 1, &Data, 1, 1000);
 126:Core/Src/main.c **** 
 127:Core/Src/main.c **** 		// Set DATA RATE of 1kHz by writing SMPLRT_DIV register
 128:Core/Src/main.c **** 		Data = 0x07;
 129:Core/Src/main.c **** 		HAL_I2C_Mem_Write(&hi2c1, MPU6050_ADDR, SMPLRT_DIV_REG, 1, &Data, 1, 1000);
 130:Core/Src/main.c **** 
 131:Core/Src/main.c **** 		// Set accelerometer configuration in ACCEL_CONFIG register
 132:Core/Src/main.c **** 		// XA_ST = 0, YA_ST = 0, ZA_ST = 0, FS_SEL = 0 -> +/- 2g
 133:Core/Src/main.c **** 		Data = 0x00;
 134:Core/Src/main.c **** 		HAL_I2C_Mem_Write(&hi2c1, MPU6050_ADDR, ACCEL_CONFIG_REG, 1, &Data, 1, 1000);
 135:Core/Src/main.c **** 
 136:Core/Src/main.c **** 		// Set gyroscope configuration in GYRO_CONFIG register
 137:Core/Src/main.c **** 		// XG_ST = 0, YG_ST = 0, ZG_ST = 0, FS_SEL = 0 -> +/- 250 deg/s
 138:Core/Src/main.c **** 		Data = 0x00;
 139:Core/Src/main.c **** 		HAL_I2C_Mem_Write(&hi2c1, MPU6050_ADDR, GYRO_CONFIG_REG, 1, &Data, 1, 1000);
 140:Core/Src/main.c **** 	}
 141:Core/Src/main.c **** 
 142:Core/Src/main.c **** 	else {
 143:Core/Src/main.c **** 		lcd_send_string("Sensor Not Resp");
 144:Core/Src/main.c **** 		HAL_Delay(5000);
 145:Core/Src/main.c **** 	}
ARM GAS  C:\Users\samue\AppData\Local\Temp\ccPE45pB.s 			page 4


 146:Core/Src/main.c **** }
 147:Core/Src/main.c **** 
 148:Core/Src/main.c **** 
 149:Core/Src/main.c **** void startup(void) {
 150:Core/Src/main.c **** 	// Initialize everything on startup
 151:Core/Src/main.c **** 	lcd_init();
 152:Core/Src/main.c **** 	MPU6050_Init();
 153:Core/Src/main.c **** 
 154:Core/Src/main.c **** 	accel_corr_p = MPU6050_read_accel_raw(ACCEL_CONST, MPU6050_ADDR, ACCEL_XOUT_H_REG, accel_corr);
 155:Core/Src/main.c **** 	gyro_corr_p  = MPU6050_read_gyro_raw(GYRO_CONST, MPU6050_ADDR, GYRO_XOUT_H_REG, gyro_corr);
 156:Core/Src/main.c **** 
 157:Core/Src/main.c **** 	accel_corr[0] = accel_corr_p[0];
 158:Core/Src/main.c **** 	accel_corr[1] = accel_corr_p[1];
 159:Core/Src/main.c **** 	accel_corr[2] = accel_corr_p[2];
 160:Core/Src/main.c **** 	gyro_corr[0]  = gyro_corr_p[0];
 161:Core/Src/main.c **** 	gyro_corr[1]  = gyro_corr_p[1];
 162:Core/Src/main.c **** 	gyro_corr[2]  = gyro_corr_p[2];
 163:Core/Src/main.c **** 
 164:Core/Src/main.c **** 	lcd_send_string("Initialized");
 165:Core/Src/main.c **** }
 166:Core/Src/main.c **** 
 167:Core/Src/main.c **** void normal(void) {
 168:Core/Src/main.c **** 	// Normal run mode
 169:Core/Src/main.c **** 	uint8_t line_pos;
 170:Core/Src/main.c **** 
 171:Core/Src/main.c **** 	accel_data_p = MPU6050_read_accel(ACCEL_CONST, MPU6050_ADDR, ACCEL_XOUT_H_REG, accel_data, 
 172:Core/Src/main.c **** 		accel_corr);
 173:Core/Src/main.c **** 	gyro_data_p  = MPU6050_read_gyro(GYRO_CONST, MPU6050_ADDR, GYRO_XOUT_H_REG, gyro_data, 
 174:Core/Src/main.c **** 		gyro_corr);
 175:Core/Src/main.c **** 
 176:Core/Src/main.c **** 	accel_data[0] = accel_data_p[0];
 177:Core/Src/main.c **** 	accel_data[1] = accel_data_p[1];
 178:Core/Src/main.c **** 	accel_data[2] = accel_data_p[2];
 179:Core/Src/main.c **** 	gyro_data[0]  = gyro_data_p[0];
 180:Core/Src/main.c **** 	gyro_data[1]  = gyro_data_p[1];
 181:Core/Src/main.c **** 	gyro_data[2]  = gyro_data_p[2];
 182:Core/Src/main.c **** 
 183:Core/Src/main.c **** 	// Print on the screen
 184:Core/Src/main.c **** 	lcd_send_cmd(0x80|0x00);
 185:Core/Src/main.c **** 	lcd_send_string("Ax=       ");
 186:Core/Src/main.c **** 	sprintf(buf, "%.2f", (double)accel_data[0]);
 187:Core/Src/main.c **** 	line_pos = (accel_data[0] >= 0) ? (0x04):(0x03);
 188:Core/Src/main.c **** 	lcd_send_cmd(0x80|line_pos);
 189:Core/Src/main.c **** 	lcd_send_string(buf);
 190:Core/Src/main.c **** 	lcd_send_string("g ");
 191:Core/Src/main.c **** 
 192:Core/Src/main.c **** 	lcd_send_cmd(0x80|0x40);
 193:Core/Src/main.c **** 	lcd_send_string("Ay=       ");
 194:Core/Src/main.c **** 	sprintf(buf, "%.2f", (double)accel_data[1]);
 195:Core/Src/main.c **** 	line_pos = (accel_data[1] >= 0) ? (0x44):(0x43);
 196:Core/Src/main.c **** 	lcd_send_cmd(0x80|line_pos);
 197:Core/Src/main.c **** 	lcd_send_string(buf);
 198:Core/Src/main.c **** 	lcd_send_string("g ");
 199:Core/Src/main.c **** 
 200:Core/Src/main.c **** 	lcd_send_cmd(0x80|0x14);
 201:Core/Src/main.c **** 	lcd_send_string("Az=       ");
 202:Core/Src/main.c **** 	sprintf(buf, "%.2f", (double)accel_data[2]);
ARM GAS  C:\Users\samue\AppData\Local\Temp\ccPE45pB.s 			page 5


 203:Core/Src/main.c **** 	line_pos = (accel_data[2] >= 0) ? (0x18):(0x17);
 204:Core/Src/main.c **** 	lcd_send_cmd(0x80|line_pos);
 205:Core/Src/main.c **** 	lcd_send_string(buf);
 206:Core/Src/main.c **** 	lcd_send_string("g ");
 207:Core/Src/main.c **** 
 208:Core/Src/main.c **** 	lcd_send_cmd(0x80|0x0A);
 209:Core/Src/main.c **** 	lcd_send_string("Gx=       ");
 210:Core/Src/main.c **** 	sprintf(buf, "%.2f", (double)gyro_data[0]);
 211:Core/Src/main.c **** 	line_pos = (gyro_data[0] >= 0) ? (0x0E):(0x0D);
 212:Core/Src/main.c **** 	lcd_send_cmd(0x80|line_pos);
 213:Core/Src/main.c **** 	lcd_send_string(buf);
 214:Core/Src/main.c **** 
 215:Core/Src/main.c **** 	lcd_send_cmd(0x80|0x4A);
 216:Core/Src/main.c **** 	lcd_send_string("Gy=       ");
 217:Core/Src/main.c **** 	sprintf(buf, "%.2f", (double)gyro_data[1]);
 218:Core/Src/main.c **** 	line_pos = (gyro_data[1] >= 0) ? (0x4E):(0x4D);
 219:Core/Src/main.c **** 	lcd_send_cmd(0x80|line_pos);
 220:Core/Src/main.c **** 	lcd_send_string(buf);
 221:Core/Src/main.c **** 
 222:Core/Src/main.c **** 	lcd_send_cmd(0x80|0x1E);
 223:Core/Src/main.c **** 	lcd_send_string("Gz=       ");
 224:Core/Src/main.c **** 	sprintf(buf, "%.2f", (double)gyro_data[2]);
 225:Core/Src/main.c **** 	line_pos = (gyro_data[2] >= 0) ? (0x22):(0x21);
 226:Core/Src/main.c **** 	lcd_send_cmd(0x80|line_pos);
 227:Core/Src/main.c **** 	lcd_send_string(buf);
 228:Core/Src/main.c **** 
 229:Core/Src/main.c **** 	lcd_send_cmd(0x80|0x54);
 230:Core/Src/main.c **** 	lcd_send_string("                    ");
 231:Core/Src/main.c **** }
 232:Core/Src/main.c **** 
 233:Core/Src/main.c **** void accel_cal_prep(void) {
 234:Core/Src/main.c **** 	// Prepare to calibrate the accelerometer
 235:Core/Src/main.c **** 	flag = 0;
 236:Core/Src/main.c **** 
 237:Core/Src/main.c **** 	lcd_clear();
 238:Core/Src/main.c **** 
 239:Core/Src/main.c **** 	lcd_send_cmd(0x80|0x00);
 240:Core/Src/main.c **** 	lcd_send_string("Position the");
 241:Core/Src/main.c **** 	lcd_send_cmd(0x80|0x40);
 242:Core/Src/main.c **** 	lcd_send_string("accelerometer to its");
 243:Core/Src/main.c **** 	lcd_send_cmd(0x80|0x14);
 244:Core/Src/main.c **** 	lcd_send_string("zero position");
 245:Core/Src/main.c **** }
 246:Core/Src/main.c **** 
 247:Core/Src/main.c **** void accel_cal(void) {
 248:Core/Src/main.c **** 	// Calibrate the accelerometer
 249:Core/Src/main.c **** 	flag = 0;
 250:Core/Src/main.c **** 
 251:Core/Src/main.c **** 	lcd_clear();
 252:Core/Src/main.c **** 
 253:Core/Src/main.c **** 	accel_corr_p = MPU6050_read_accel_raw(ACCEL_CONST, MPU6050_ADDR, ACCEL_XOUT_H_REG, accel_corr);
 254:Core/Src/main.c **** 	gyro_corr_p  = MPU6050_read_gyro_raw(GYRO_CONST, MPU6050_ADDR, GYRO_XOUT_H_REG, gyro_corr);
 255:Core/Src/main.c **** 
 256:Core/Src/main.c **** 	accel_corr[0] = accel_corr_p[0];
 257:Core/Src/main.c **** 	accel_corr[1] = accel_corr_p[1];
 258:Core/Src/main.c **** 	accel_corr[2] = accel_corr_p[2];
 259:Core/Src/main.c **** 	gyro_corr[0]  = gyro_corr_p[0];
ARM GAS  C:\Users\samue\AppData\Local\Temp\ccPE45pB.s 			page 6


 260:Core/Src/main.c **** 	gyro_corr[1]  = gyro_corr_p[1];
 261:Core/Src/main.c **** 	gyro_corr[2]  = gyro_corr_p[2];
 262:Core/Src/main.c **** 
 263:Core/Src/main.c **** 	lcd_send_cmd(0x80|0x00);
 264:Core/Src/main.c **** 	lcd_send_string("Calibration Complete");
 265:Core/Src/main.c **** }
 266:Core/Src/main.c **** 
 267:Core/Src/main.c **** void lcd_send_cmd (char cmd)
 268:Core/Src/main.c **** {
 269:Core/Src/main.c ****   char data_u, data_l;
 270:Core/Src/main.c **** 	uint8_t data_t[4];
 271:Core/Src/main.c **** 	data_u = (cmd&0xf0);
 272:Core/Src/main.c **** 	data_l = ((cmd<<4)&0xf0);
 273:Core/Src/main.c **** 	data_t[0] = data_u|0x0C;  //en=1, rs=0
 274:Core/Src/main.c **** 	data_t[1] = data_u|0x08;  //en=0, rs=0
 275:Core/Src/main.c **** 	data_t[2] = data_l|0x0C;  //en=1, rs=0
 276:Core/Src/main.c **** 	data_t[3] = data_l|0x08;  //en=0, rs=0
 277:Core/Src/main.c **** 	HAL_I2C_Master_Transmit (&hi2c1, SLAVE_ADDRESS_LCD,(uint8_t *) data_t, 4, 100);
 278:Core/Src/main.c **** }
 279:Core/Src/main.c **** 
 280:Core/Src/main.c **** void lcd_send_data (char data)
 281:Core/Src/main.c **** {
 282:Core/Src/main.c **** 	char data_u, data_l;
 283:Core/Src/main.c **** 	uint8_t data_t[4];
 284:Core/Src/main.c **** 	data_u = (data&0xf0);
 285:Core/Src/main.c **** 	data_l = ((data<<4)&0xf0);
 286:Core/Src/main.c **** 	data_t[0] = data_u|0x0D;  //en=1, rs=1
 287:Core/Src/main.c **** 	data_t[1] = data_u|0x09;  //en=0, rs=1
 288:Core/Src/main.c **** 	data_t[2] = data_l|0x0D;  //en=1, rs=1
 289:Core/Src/main.c **** 	data_t[3] = data_l|0x09;  //en=0, rs=1
 290:Core/Src/main.c **** 	HAL_I2C_Master_Transmit (&hi2c1, SLAVE_ADDRESS_LCD,(uint8_t *) data_t, 4, 100);
 291:Core/Src/main.c **** }
 292:Core/Src/main.c **** 
 293:Core/Src/main.c **** // void lcd_clear (void)
 294:Core/Src/main.c **** // {
 295:Core/Src/main.c **** // 	lcd_send_cmd (0x00);
 296:Core/Src/main.c **** // 	for (int i=0; i<100; i++)
 297:Core/Src/main.c **** // 	{
 298:Core/Src/main.c **** // 		lcd_send_data (' ');
 299:Core/Src/main.c **** // 	}
 300:Core/Src/main.c **** // }
 301:Core/Src/main.c **** 
 302:Core/Src/main.c **** void lcd_init (void)
 303:Core/Src/main.c **** {
 304:Core/Src/main.c **** 	// 4 bit initialisation
 305:Core/Src/main.c **** 	HAL_Delay(50);  // wait for >40ms
 306:Core/Src/main.c **** 	lcd_send_cmd (0x30);
 307:Core/Src/main.c **** 	HAL_Delay(5);  // wait for >4.1ms
 308:Core/Src/main.c **** 	lcd_send_cmd (0x30);
 309:Core/Src/main.c **** 	HAL_Delay(1);  // wait for >100us
 310:Core/Src/main.c **** 	lcd_send_cmd (0x30);
 311:Core/Src/main.c **** 	HAL_Delay(10);
 312:Core/Src/main.c **** 	lcd_send_cmd (0x20);  // 4bit mode
 313:Core/Src/main.c **** 	HAL_Delay(10);
 314:Core/Src/main.c **** 
 315:Core/Src/main.c ****   // display initialization
 316:Core/Src/main.c **** 	lcd_send_cmd (0x28);   // Function set --> DL=0 (4 bit mode), N = 1 (2 line display) F = 0 
ARM GAS  C:\Users\samue\AppData\Local\Temp\ccPE45pB.s 			page 7


 317:Core/Src/main.c **** 	                       // (5x8 characters)
 318:Core/Src/main.c **** 	HAL_Delay(1);
 319:Core/Src/main.c **** 	lcd_send_cmd (0x08);   // Display on/off control --> D=0,C=0, B=0  ---> display off
 320:Core/Src/main.c **** 	HAL_Delay(1);
 321:Core/Src/main.c **** 	lcd_send_cmd (0x01);   // clear display
 322:Core/Src/main.c **** 	HAL_Delay(1);
 323:Core/Src/main.c **** 	lcd_send_cmd (0x06);   // Entry mode set --> I/D = 1 (increment cursor) & S = 0 (no shift)
 324:Core/Src/main.c **** 	HAL_Delay(1);
 325:Core/Src/main.c **** 	lcd_send_cmd (0x0C);   // Display on/off control --> D = 1, C and B = 0. (Cursor and blink, 
 326:Core/Src/main.c **** 	                       // last two bits)
 327:Core/Src/main.c **** }
 328:Core/Src/main.c **** 
 329:Core/Src/main.c **** void lcd_send_string (char *str)
 330:Core/Src/main.c **** {
 331:Core/Src/main.c **** 	while (*str) lcd_send_data (*str++);
 332:Core/Src/main.c **** }
 333:Core/Src/main.c **** 
 334:Core/Src/main.c **** float* MPU6050_read_accel_raw(float accel_con, uint8_t MPU_ADDR, uint8_t ACCEL_REG, 
 335:Core/Src/main.c **** 	float accel_corr[]) {
 336:Core/Src/main.c **** 	uint8_t data[6];
 337:Core/Src/main.c **** 
 338:Core/Src/main.c **** 	// Read 6 bytes of data starting from ACCEL_XOUT_H register
 339:Core/Src/main.c **** 	HAL_I2C_Mem_Read(&hi2c1, MPU_ADDR, ACCEL_REG, 1, data, 6, 1000);
 340:Core/Src/main.c **** 
 341:Core/Src/main.c **** 	accel_corr[0] = ((int16_t)(data[0] << 8 | data[1]))/accel_con;
 342:Core/Src/main.c **** 	accel_corr[1] = ((int16_t)(data[2] << 8 | data[3]))/accel_con;
 343:Core/Src/main.c **** 	accel_corr[2] = ((int16_t)(data[4] << 8 | data[5]))/accel_con;
 344:Core/Src/main.c **** 
 345:Core/Src/main.c **** 	return accel_corr;
 346:Core/Src/main.c **** }
 347:Core/Src/main.c **** 
 348:Core/Src/main.c **** float* MPU6050_read_accel(float accel_con, uint8_t MPU_ADDR, uint8_t ACCEL_REG, 
 349:Core/Src/main.c **** 	float accel_data[], float accel_corr[]) {
 350:Core/Src/main.c **** 	uint8_t data[6];
 351:Core/Src/main.c **** 
 352:Core/Src/main.c **** 	// Read 6 bytes of data starting from ACCEL_XOUT_H register
 353:Core/Src/main.c **** 	HAL_I2C_Mem_Read(&hi2c1, MPU_ADDR, ACCEL_REG, 1, data, 6, 1000);
 354:Core/Src/main.c **** 
 355:Core/Src/main.c **** 	accel_data[0] = ((int16_t)(data[0] << 8 | data[1]))/accel_con - accel_corr[0];
 356:Core/Src/main.c **** 	accel_data[1] = ((int16_t)(data[2] << 8 | data[3]))/accel_con - accel_corr[1];
 357:Core/Src/main.c **** 	accel_data[2] = ((int16_t)(data[4] << 8 | data[5]))/accel_con - accel_corr[2];
 358:Core/Src/main.c **** 
 359:Core/Src/main.c **** 	return accel_data;
 360:Core/Src/main.c **** }
 361:Core/Src/main.c **** 
 362:Core/Src/main.c **** float* MPU6050_read_gyro_raw(float gyro_con, uint8_t MPU_ADDR, uint8_t GYRO_REG, 
 363:Core/Src/main.c **** 	float gyro_corr[]) {
 364:Core/Src/main.c **** 	uint8_t data[6];
 365:Core/Src/main.c **** 
 366:Core/Src/main.c **** 	// Read 6 bytes of data starting from ACCEL_XOUT_H register
 367:Core/Src/main.c **** 	HAL_I2C_Mem_Read(&hi2c1, MPU_ADDR, GYRO_REG, 1, data, 6, 1000);
 368:Core/Src/main.c **** 
 369:Core/Src/main.c **** 	gyro_corr[0] = ((int16_t)(data[0] << 8 | data[1]))/gyro_con;
 370:Core/Src/main.c **** 	gyro_corr[1] = ((int16_t)(data[2] << 8 | data[3]))/gyro_con;
 371:Core/Src/main.c **** 	gyro_corr[2] = ((int16_t)(data[4] << 8 | data[5]))/gyro_con;
 372:Core/Src/main.c **** 
 373:Core/Src/main.c **** 	return gyro_corr;
ARM GAS  C:\Users\samue\AppData\Local\Temp\ccPE45pB.s 			page 8


 374:Core/Src/main.c **** }
 375:Core/Src/main.c **** 
 376:Core/Src/main.c **** float* MPU6050_read_gyro(float gyro_con, uint8_t MPU_ADDR, uint8_t GYRO_REG, float gyro_data[], 
 377:Core/Src/main.c **** 	float gyro_corr[]) {
 378:Core/Src/main.c **** 	uint8_t data[6];
 379:Core/Src/main.c **** 
 380:Core/Src/main.c **** 	// Read 6 bytes of data starting from ACCEL_XOUT_H register
 381:Core/Src/main.c **** 	HAL_I2C_Mem_Read(&hi2c1, MPU_ADDR, GYRO_REG, 1, data, 6, 1000);
 382:Core/Src/main.c **** 
 383:Core/Src/main.c **** 	gyro_data[0] = ((int16_t)(data[0] << 8 | data[1]))/gyro_con - gyro_corr[0];
 384:Core/Src/main.c **** 	gyro_data[1] = ((int16_t)(data[2] << 8 | data[3]))/gyro_con - gyro_corr[1];
 385:Core/Src/main.c **** 	gyro_data[2] = ((int16_t)(data[4] << 8 | data[5]))/gyro_con - gyro_corr[2];
 386:Core/Src/main.c **** 
 387:Core/Src/main.c **** 	return gyro_data;
 388:Core/Src/main.c **** }
 389:Core/Src/main.c **** 
 390:Core/Src/main.c **** 
 391:Core/Src/main.c **** // Interrupt
 392:Core/Src/main.c **** void HAL_GPIO_EXTI_Callback(uint16_t GPIO_Pin) {
 393:Core/Src/main.c **** 	flag = 1;
 394:Core/Src/main.c **** }
 395:Core/Src/main.c **** 
 396:Core/Src/main.c **** 
 397:Core/Src/main.c **** /* USER CODE END 0 */
 398:Core/Src/main.c **** 
 399:Core/Src/main.c **** /**
 400:Core/Src/main.c ****   * @brief  The application entry point.
 401:Core/Src/main.c ****   * @retval int
 402:Core/Src/main.c ****   */
 403:Core/Src/main.c **** int main(void)
 404:Core/Src/main.c **** {
 405:Core/Src/main.c ****   /* USER CODE BEGIN 1 */
 406:Core/Src/main.c **** 
 407:Core/Src/main.c **** 	state = startup_state;   // Initialize to state 0
 408:Core/Src/main.c **** 
 409:Core/Src/main.c ****   /* USER CODE END 1 */
 410:Core/Src/main.c **** 
 411:Core/Src/main.c ****   /* MCU Configuration--------------------------------------------------------*/
 412:Core/Src/main.c **** 
 413:Core/Src/main.c ****   /* Reset of all peripherals, Initializes the Flash interface and the Systick. */
 414:Core/Src/main.c ****   HAL_Init();
 415:Core/Src/main.c **** 
 416:Core/Src/main.c ****   /* USER CODE BEGIN Init */
 417:Core/Src/main.c **** 
 418:Core/Src/main.c ****   // lcd_init();
 419:Core/Src/main.c ****   // MPU6050_Init();
 420:Core/Src/main.c **** 
 421:Core/Src/main.c ****   /* USER CODE END Init */
 422:Core/Src/main.c **** 
 423:Core/Src/main.c ****   /* Configure the system clock */
 424:Core/Src/main.c ****   SystemClock_Config();
 425:Core/Src/main.c **** 
 426:Core/Src/main.c ****   /* USER CODE BEGIN SysInit */
 427:Core/Src/main.c **** 
 428:Core/Src/main.c ****   /* USER CODE END SysInit */
 429:Core/Src/main.c **** 
 430:Core/Src/main.c ****   /* Initialize all configured peripherals */
ARM GAS  C:\Users\samue\AppData\Local\Temp\ccPE45pB.s 			page 9


 431:Core/Src/main.c ****   MX_GPIO_Init();
 432:Core/Src/main.c ****   MX_DMA_Init();
 433:Core/Src/main.c ****   MX_USART2_UART_Init();
 434:Core/Src/main.c ****   MX_I2C1_Init();
 435:Core/Src/main.c ****   /* USER CODE BEGIN 2 */
 436:Core/Src/main.c **** 
 437:Core/Src/main.c ****   // HAL_UART_Transmit_DMA(&huart2, (uint8_t*)msg, sizeof(msg)/sizeof(msg[0]));
 438:Core/Src/main.c **** 
 439:Core/Src/main.c ****   /* USER CODE END 2 */
 440:Core/Src/main.c **** 
 441:Core/Src/main.c ****   /* Infinite loop */
 442:Core/Src/main.c ****   /* USER CODE BEGIN WHILE */
 443:Core/Src/main.c ****   while (1)
 444:Core/Src/main.c ****   {
 445:Core/Src/main.c ****     /* USER CODE END WHILE */
 446:Core/Src/main.c **** 
 447:Core/Src/main.c ****     /* USER CODE BEGIN 3 */
 448:Core/Src/main.c **** 
 449:Core/Src/main.c **** 	  (FSM[state].output_func)();
 450:Core/Src/main.c **** 	  HAL_Delay(FSM[state].time_delay);
 451:Core/Src/main.c **** 	  state = FSM[state].next_state[flag];
 452:Core/Src/main.c **** 
 453:Core/Src/main.c ****   }
 454:Core/Src/main.c ****   /* USER CODE END 3 */
 455:Core/Src/main.c **** }
 456:Core/Src/main.c **** 
 457:Core/Src/main.c **** /**
 458:Core/Src/main.c ****   * @brief System Clock Configuration
 459:Core/Src/main.c ****   * @retval None
 460:Core/Src/main.c ****   */
 461:Core/Src/main.c **** void SystemClock_Config(void)
 462:Core/Src/main.c **** {
 463:Core/Src/main.c ****   RCC_OscInitTypeDef RCC_OscInitStruct = {0};
 464:Core/Src/main.c ****   RCC_ClkInitTypeDef RCC_ClkInitStruct = {0};
 465:Core/Src/main.c **** 
 466:Core/Src/main.c ****   /** Configure the main internal regulator output voltage
 467:Core/Src/main.c ****   */
 468:Core/Src/main.c ****   __HAL_RCC_PWR_CLK_ENABLE();
 469:Core/Src/main.c ****   __HAL_PWR_VOLTAGESCALING_CONFIG(PWR_REGULATOR_VOLTAGE_SCALE1);
 470:Core/Src/main.c ****   /** Initializes the RCC Oscillators according to the specified parameters
 471:Core/Src/main.c ****   * in the RCC_OscInitTypeDef structure.
 472:Core/Src/main.c ****   */
 473:Core/Src/main.c ****   RCC_OscInitStruct.OscillatorType = RCC_OSCILLATORTYPE_HSI;
 474:Core/Src/main.c ****   RCC_OscInitStruct.HSIState = RCC_HSI_ON;
 475:Core/Src/main.c ****   RCC_OscInitStruct.HSICalibrationValue = RCC_HSICALIBRATION_DEFAULT;
 476:Core/Src/main.c ****   RCC_OscInitStruct.PLL.PLLState = RCC_PLL_ON;
 477:Core/Src/main.c ****   RCC_OscInitStruct.PLL.PLLSource = RCC_PLLSOURCE_HSI;
 478:Core/Src/main.c ****   RCC_OscInitStruct.PLL.PLLM = 16;
 479:Core/Src/main.c ****   RCC_OscInitStruct.PLL.PLLN = 336;
 480:Core/Src/main.c ****   RCC_OscInitStruct.PLL.PLLP = RCC_PLLP_DIV4;
 481:Core/Src/main.c ****   RCC_OscInitStruct.PLL.PLLQ = 4;
 482:Core/Src/main.c ****   if (HAL_RCC_OscConfig(&RCC_OscInitStruct) != HAL_OK)
 483:Core/Src/main.c ****   {
 484:Core/Src/main.c ****     Error_Handler();
 485:Core/Src/main.c ****   }
 486:Core/Src/main.c ****   /** Initializes the CPU, AHB and APB buses clocks
 487:Core/Src/main.c ****   */
ARM GAS  C:\Users\samue\AppData\Local\Temp\ccPE45pB.s 			page 10


 488:Core/Src/main.c ****   RCC_ClkInitStruct.ClockType = RCC_CLOCKTYPE_HCLK|RCC_CLOCKTYPE_SYSCLK
 489:Core/Src/main.c ****                               |RCC_CLOCKTYPE_PCLK1|RCC_CLOCKTYPE_PCLK2;
 490:Core/Src/main.c ****   RCC_ClkInitStruct.SYSCLKSource = RCC_SYSCLKSOURCE_PLLCLK;
 491:Core/Src/main.c ****   RCC_ClkInitStruct.AHBCLKDivider = RCC_SYSCLK_DIV1;
 492:Core/Src/main.c ****   RCC_ClkInitStruct.APB1CLKDivider = RCC_HCLK_DIV2;
 493:Core/Src/main.c ****   RCC_ClkInitStruct.APB2CLKDivider = RCC_HCLK_DIV1;
 494:Core/Src/main.c **** 
 495:Core/Src/main.c ****   if (HAL_RCC_ClockConfig(&RCC_ClkInitStruct, FLASH_LATENCY_2) != HAL_OK)
 496:Core/Src/main.c ****   {
 497:Core/Src/main.c ****     Error_Handler();
 498:Core/Src/main.c ****   }
 499:Core/Src/main.c **** }
 500:Core/Src/main.c **** 
 501:Core/Src/main.c **** /**
 502:Core/Src/main.c ****   * @brief I2C1 Initialization Function
 503:Core/Src/main.c ****   * @param None
 504:Core/Src/main.c ****   * @retval None
 505:Core/Src/main.c ****   */
 506:Core/Src/main.c **** static void MX_I2C1_Init(void)
 507:Core/Src/main.c **** {
 508:Core/Src/main.c **** 
 509:Core/Src/main.c ****   /* USER CODE BEGIN I2C1_Init 0 */
 510:Core/Src/main.c **** 
 511:Core/Src/main.c ****   /* USER CODE END I2C1_Init 0 */
 512:Core/Src/main.c **** 
 513:Core/Src/main.c ****   /* USER CODE BEGIN I2C1_Init 1 */
 514:Core/Src/main.c **** 
 515:Core/Src/main.c ****   /* USER CODE END I2C1_Init 1 */
 516:Core/Src/main.c ****   hi2c1.Instance = I2C1;
 517:Core/Src/main.c ****   hi2c1.Init.ClockSpeed = 100000;
 518:Core/Src/main.c ****   hi2c1.Init.DutyCycle = I2C_DUTYCYCLE_2;
 519:Core/Src/main.c ****   hi2c1.Init.OwnAddress1 = 0;
 520:Core/Src/main.c ****   hi2c1.Init.AddressingMode = I2C_ADDRESSINGMODE_7BIT;
 521:Core/Src/main.c ****   hi2c1.Init.DualAddressMode = I2C_DUALADDRESS_DISABLE;
 522:Core/Src/main.c ****   hi2c1.Init.OwnAddress2 = 0;
 523:Core/Src/main.c ****   hi2c1.Init.GeneralCallMode = I2C_GENERALCALL_DISABLE;
 524:Core/Src/main.c ****   hi2c1.Init.NoStretchMode = I2C_NOSTRETCH_DISABLE;
 525:Core/Src/main.c ****   if (HAL_I2C_Init(&hi2c1) != HAL_OK)
 526:Core/Src/main.c ****   {
 527:Core/Src/main.c ****     Error_Handler();
 528:Core/Src/main.c ****   }
 529:Core/Src/main.c ****   /* USER CODE BEGIN I2C1_Init 2 */
 530:Core/Src/main.c **** 
 531:Core/Src/main.c ****   /* USER CODE END I2C1_Init 2 */
 532:Core/Src/main.c **** 
 533:Core/Src/main.c **** }
 534:Core/Src/main.c **** 
 535:Core/Src/main.c **** /**
 536:Core/Src/main.c ****   * @brief USART2 Initialization Function
 537:Core/Src/main.c ****   * @param None
 538:Core/Src/main.c ****   * @retval None
 539:Core/Src/main.c ****   */
 540:Core/Src/main.c **** static void MX_USART2_UART_Init(void)
 541:Core/Src/main.c **** {
 542:Core/Src/main.c **** 
 543:Core/Src/main.c ****   /* USER CODE BEGIN USART2_Init 0 */
 544:Core/Src/main.c **** 
ARM GAS  C:\Users\samue\AppData\Local\Temp\ccPE45pB.s 			page 11


 545:Core/Src/main.c ****   /* USER CODE END USART2_Init 0 */
 546:Core/Src/main.c **** 
 547:Core/Src/main.c ****   /* USER CODE BEGIN USART2_Init 1 */
 548:Core/Src/main.c **** 
 549:Core/Src/main.c ****   /* USER CODE END USART2_Init 1 */
 550:Core/Src/main.c ****   huart2.Instance = USART2;
 551:Core/Src/main.c ****   huart2.Init.BaudRate = 115200;
 552:Core/Src/main.c ****   huart2.Init.WordLength = UART_WORDLENGTH_8B;
 553:Core/Src/main.c ****   huart2.Init.StopBits = UART_STOPBITS_1;
 554:Core/Src/main.c ****   huart2.Init.Parity = UART_PARITY_NONE;
 555:Core/Src/main.c ****   huart2.Init.Mode = UART_MODE_TX_RX;
 556:Core/Src/main.c ****   huart2.Init.HwFlowCtl = UART_HWCONTROL_NONE;
 557:Core/Src/main.c ****   huart2.Init.OverSampling = UART_OVERSAMPLING_16;
 558:Core/Src/main.c ****   if (HAL_UART_Init(&huart2) != HAL_OK)
 559:Core/Src/main.c ****   {
 560:Core/Src/main.c ****     Error_Handler();
 561:Core/Src/main.c ****   }
 562:Core/Src/main.c ****   /* USER CODE BEGIN USART2_Init 2 */
 563:Core/Src/main.c **** 
 564:Core/Src/main.c ****   /* USER CODE END USART2_Init 2 */
 565:Core/Src/main.c **** 
 566:Core/Src/main.c **** }
 567:Core/Src/main.c **** 
 568:Core/Src/main.c **** /**
 569:Core/Src/main.c ****   * Enable DMA controller clock
 570:Core/Src/main.c ****   */
 571:Core/Src/main.c **** static void MX_DMA_Init(void)
 572:Core/Src/main.c **** {
 573:Core/Src/main.c **** 
 574:Core/Src/main.c ****   /* DMA controller clock enable */
 575:Core/Src/main.c ****   __HAL_RCC_DMA1_CLK_ENABLE();
 576:Core/Src/main.c **** 
 577:Core/Src/main.c ****   /* DMA interrupt init */
 578:Core/Src/main.c ****   /* DMA1_Stream6_IRQn interrupt configuration */
 579:Core/Src/main.c ****   HAL_NVIC_SetPriority(DMA1_Stream6_IRQn, 0, 0);
 580:Core/Src/main.c ****   HAL_NVIC_EnableIRQ(DMA1_Stream6_IRQn);
 581:Core/Src/main.c **** 
 582:Core/Src/main.c **** }
 583:Core/Src/main.c **** 
 584:Core/Src/main.c **** /**
 585:Core/Src/main.c ****   * @brief GPIO Initialization Function
 586:Core/Src/main.c ****   * @param None
 587:Core/Src/main.c ****   * @retval None
 588:Core/Src/main.c ****   */
 589:Core/Src/main.c **** static void MX_GPIO_Init(void)
 590:Core/Src/main.c **** {
  28              		.loc 1 590 1 view -0
  29              		.cfi_startproc
  30              		@ args = 0, pretend = 0, frame = 40
  31              		@ frame_needed = 0, uses_anonymous_args = 0
  32 0000 70B5     		push	{r4, r5, r6, lr}
  33              	.LCFI0:
  34              		.cfi_def_cfa_offset 16
  35              		.cfi_offset 4, -16
  36              		.cfi_offset 5, -12
  37              		.cfi_offset 6, -8
  38              		.cfi_offset 14, -4
ARM GAS  C:\Users\samue\AppData\Local\Temp\ccPE45pB.s 			page 12


  39 0002 8AB0     		sub	sp, sp, #40
  40              	.LCFI1:
  41              		.cfi_def_cfa_offset 56
 591:Core/Src/main.c ****   GPIO_InitTypeDef GPIO_InitStruct = {0};
  42              		.loc 1 591 3 view .LVU1
  43              		.loc 1 591 20 is_stmt 0 view .LVU2
  44 0004 0024     		movs	r4, #0
  45 0006 0594     		str	r4, [sp, #20]
  46 0008 0694     		str	r4, [sp, #24]
  47 000a 0794     		str	r4, [sp, #28]
  48 000c 0894     		str	r4, [sp, #32]
  49 000e 0994     		str	r4, [sp, #36]
 592:Core/Src/main.c **** 
 593:Core/Src/main.c ****   /* GPIO Ports Clock Enable */
 594:Core/Src/main.c ****   __HAL_RCC_GPIOC_CLK_ENABLE();
  50              		.loc 1 594 3 is_stmt 1 view .LVU3
  51              	.LBB4:
  52              		.loc 1 594 3 view .LVU4
  53 0010 0194     		str	r4, [sp, #4]
  54              		.loc 1 594 3 view .LVU5
  55 0012 2C4B     		ldr	r3, .L3
  56 0014 1A6B     		ldr	r2, [r3, #48]
  57 0016 42F00402 		orr	r2, r2, #4
  58 001a 1A63     		str	r2, [r3, #48]
  59              		.loc 1 594 3 view .LVU6
  60 001c 1A6B     		ldr	r2, [r3, #48]
  61 001e 02F00402 		and	r2, r2, #4
  62 0022 0192     		str	r2, [sp, #4]
  63              		.loc 1 594 3 view .LVU7
  64 0024 019A     		ldr	r2, [sp, #4]
  65              	.LBE4:
  66              		.loc 1 594 3 view .LVU8
 595:Core/Src/main.c ****   __HAL_RCC_GPIOH_CLK_ENABLE();
  67              		.loc 1 595 3 view .LVU9
  68              	.LBB5:
  69              		.loc 1 595 3 view .LVU10
  70 0026 0294     		str	r4, [sp, #8]
  71              		.loc 1 595 3 view .LVU11
  72 0028 1A6B     		ldr	r2, [r3, #48]
  73 002a 42F08002 		orr	r2, r2, #128
  74 002e 1A63     		str	r2, [r3, #48]
  75              		.loc 1 595 3 view .LVU12
  76 0030 1A6B     		ldr	r2, [r3, #48]
  77 0032 02F08002 		and	r2, r2, #128
  78 0036 0292     		str	r2, [sp, #8]
  79              		.loc 1 595 3 view .LVU13
  80 0038 029A     		ldr	r2, [sp, #8]
  81              	.LBE5:
  82              		.loc 1 595 3 view .LVU14
 596:Core/Src/main.c ****   __HAL_RCC_GPIOA_CLK_ENABLE();
  83              		.loc 1 596 3 view .LVU15
  84              	.LBB6:
  85              		.loc 1 596 3 view .LVU16
  86 003a 0394     		str	r4, [sp, #12]
  87              		.loc 1 596 3 view .LVU17
  88 003c 1A6B     		ldr	r2, [r3, #48]
  89 003e 42F00102 		orr	r2, r2, #1
ARM GAS  C:\Users\samue\AppData\Local\Temp\ccPE45pB.s 			page 13


  90 0042 1A63     		str	r2, [r3, #48]
  91              		.loc 1 596 3 view .LVU18
  92 0044 1A6B     		ldr	r2, [r3, #48]
  93 0046 02F00102 		and	r2, r2, #1
  94 004a 0392     		str	r2, [sp, #12]
  95              		.loc 1 596 3 view .LVU19
  96 004c 039A     		ldr	r2, [sp, #12]
  97              	.LBE6:
  98              		.loc 1 596 3 view .LVU20
 597:Core/Src/main.c ****   __HAL_RCC_GPIOB_CLK_ENABLE();
  99              		.loc 1 597 3 view .LVU21
 100              	.LBB7:
 101              		.loc 1 597 3 view .LVU22
 102 004e 0494     		str	r4, [sp, #16]
 103              		.loc 1 597 3 view .LVU23
 104 0050 1A6B     		ldr	r2, [r3, #48]
 105 0052 42F00202 		orr	r2, r2, #2
 106 0056 1A63     		str	r2, [r3, #48]
 107              		.loc 1 597 3 view .LVU24
 108 0058 1B6B     		ldr	r3, [r3, #48]
 109 005a 03F00203 		and	r3, r3, #2
 110 005e 0493     		str	r3, [sp, #16]
 111              		.loc 1 597 3 view .LVU25
 112 0060 049B     		ldr	r3, [sp, #16]
 113              	.LBE7:
 114              		.loc 1 597 3 view .LVU26
 598:Core/Src/main.c **** 
 599:Core/Src/main.c ****   /*Configure GPIO pin Output Level */
 600:Core/Src/main.c ****   HAL_GPIO_WritePin(LD2_GPIO_Port, LD2_Pin, GPIO_PIN_RESET);
 115              		.loc 1 600 3 view .LVU27
 116 0062 194D     		ldr	r5, .L3+4
 117 0064 2246     		mov	r2, r4
 118 0066 2021     		movs	r1, #32
 119 0068 2846     		mov	r0, r5
 120 006a FFF7FEFF 		bl	HAL_GPIO_WritePin
 121              	.LVL0:
 601:Core/Src/main.c **** 
 602:Core/Src/main.c ****   /*Configure GPIO pin : B1_Pin */
 603:Core/Src/main.c ****   GPIO_InitStruct.Pin = B1_Pin;
 122              		.loc 1 603 3 view .LVU28
 123              		.loc 1 603 23 is_stmt 0 view .LVU29
 124 006e 4FF40053 		mov	r3, #8192
 125 0072 0593     		str	r3, [sp, #20]
 604:Core/Src/main.c ****   GPIO_InitStruct.Mode = GPIO_MODE_IT_FALLING;
 126              		.loc 1 604 3 is_stmt 1 view .LVU30
 127              		.loc 1 604 24 is_stmt 0 view .LVU31
 128 0074 4FF40413 		mov	r3, #2162688
 129 0078 0693     		str	r3, [sp, #24]
 605:Core/Src/main.c ****   GPIO_InitStruct.Pull = GPIO_NOPULL;
 130              		.loc 1 605 3 is_stmt 1 view .LVU32
 131              		.loc 1 605 24 is_stmt 0 view .LVU33
 132 007a 0794     		str	r4, [sp, #28]
 606:Core/Src/main.c ****   HAL_GPIO_Init(B1_GPIO_Port, &GPIO_InitStruct);
 133              		.loc 1 606 3 is_stmt 1 view .LVU34
 134 007c 134E     		ldr	r6, .L3+8
 135 007e 05A9     		add	r1, sp, #20
 136 0080 3046     		mov	r0, r6
ARM GAS  C:\Users\samue\AppData\Local\Temp\ccPE45pB.s 			page 14


 137 0082 FFF7FEFF 		bl	HAL_GPIO_Init
 138              	.LVL1:
 607:Core/Src/main.c **** 
 608:Core/Src/main.c ****   /*Configure GPIO pin : PC2 */
 609:Core/Src/main.c ****   GPIO_InitStruct.Pin = GPIO_PIN_2;
 139              		.loc 1 609 3 view .LVU35
 140              		.loc 1 609 23 is_stmt 0 view .LVU36
 141 0086 0423     		movs	r3, #4
 142 0088 0593     		str	r3, [sp, #20]
 610:Core/Src/main.c ****   GPIO_InitStruct.Mode = GPIO_MODE_IT_RISING;
 143              		.loc 1 610 3 is_stmt 1 view .LVU37
 144              		.loc 1 610 24 is_stmt 0 view .LVU38
 145 008a 4FF48813 		mov	r3, #1114112
 146 008e 0693     		str	r3, [sp, #24]
 611:Core/Src/main.c ****   GPIO_InitStruct.Pull = GPIO_NOPULL;
 147              		.loc 1 611 3 is_stmt 1 view .LVU39
 148              		.loc 1 611 24 is_stmt 0 view .LVU40
 149 0090 0794     		str	r4, [sp, #28]
 612:Core/Src/main.c ****   HAL_GPIO_Init(GPIOC, &GPIO_InitStruct);
 150              		.loc 1 612 3 is_stmt 1 view .LVU41
 151 0092 05A9     		add	r1, sp, #20
 152 0094 3046     		mov	r0, r6
 153 0096 FFF7FEFF 		bl	HAL_GPIO_Init
 154              	.LVL2:
 613:Core/Src/main.c **** 
 614:Core/Src/main.c ****   /*Configure GPIO pin : LD2_Pin */
 615:Core/Src/main.c ****   GPIO_InitStruct.Pin = LD2_Pin;
 155              		.loc 1 615 3 view .LVU42
 156              		.loc 1 615 23 is_stmt 0 view .LVU43
 157 009a 2023     		movs	r3, #32
 158 009c 0593     		str	r3, [sp, #20]
 616:Core/Src/main.c ****   GPIO_InitStruct.Mode = GPIO_MODE_OUTPUT_PP;
 159              		.loc 1 616 3 is_stmt 1 view .LVU44
 160              		.loc 1 616 24 is_stmt 0 view .LVU45
 161 009e 0123     		movs	r3, #1
 162 00a0 0693     		str	r3, [sp, #24]
 617:Core/Src/main.c ****   GPIO_InitStruct.Pull = GPIO_NOPULL;
 163              		.loc 1 617 3 is_stmt 1 view .LVU46
 164              		.loc 1 617 24 is_stmt 0 view .LVU47
 165 00a2 0794     		str	r4, [sp, #28]
 618:Core/Src/main.c ****   GPIO_InitStruct.Speed = GPIO_SPEED_FREQ_LOW;
 166              		.loc 1 618 3 is_stmt 1 view .LVU48
 167              		.loc 1 618 25 is_stmt 0 view .LVU49
 168 00a4 0894     		str	r4, [sp, #32]
 619:Core/Src/main.c ****   HAL_GPIO_Init(LD2_GPIO_Port, &GPIO_InitStruct);
 169              		.loc 1 619 3 is_stmt 1 view .LVU50
 170 00a6 05A9     		add	r1, sp, #20
 171 00a8 2846     		mov	r0, r5
 172 00aa FFF7FEFF 		bl	HAL_GPIO_Init
 173              	.LVL3:
 620:Core/Src/main.c **** 
 621:Core/Src/main.c ****   /* EXTI interrupt init*/
 622:Core/Src/main.c ****   HAL_NVIC_SetPriority(EXTI2_IRQn, 0, 0);
 174              		.loc 1 622 3 view .LVU51
 175 00ae 2246     		mov	r2, r4
 176 00b0 2146     		mov	r1, r4
 177 00b2 0820     		movs	r0, #8
ARM GAS  C:\Users\samue\AppData\Local\Temp\ccPE45pB.s 			page 15


 178 00b4 FFF7FEFF 		bl	HAL_NVIC_SetPriority
 179              	.LVL4:
 623:Core/Src/main.c ****   HAL_NVIC_EnableIRQ(EXTI2_IRQn);
 180              		.loc 1 623 3 view .LVU52
 181 00b8 0820     		movs	r0, #8
 182 00ba FFF7FEFF 		bl	HAL_NVIC_EnableIRQ
 183              	.LVL5:
 624:Core/Src/main.c **** 
 625:Core/Src/main.c **** }
 184              		.loc 1 625 1 is_stmt 0 view .LVU53
 185 00be 0AB0     		add	sp, sp, #40
 186              	.LCFI2:
 187              		.cfi_def_cfa_offset 16
 188              		@ sp needed
 189 00c0 70BD     		pop	{r4, r5, r6, pc}
 190              	.L4:
 191 00c2 00BF     		.align	2
 192              	.L3:
 193 00c4 00380240 		.word	1073887232
 194 00c8 00000240 		.word	1073872896
 195 00cc 00080240 		.word	1073874944
 196              		.cfi_endproc
 197              	.LFE152:
 199              		.section	.text.MX_DMA_Init,"ax",%progbits
 200              		.align	1
 201              		.syntax unified
 202              		.thumb
 203              		.thumb_func
 205              	MX_DMA_Init:
 206              	.LFB151:
 572:Core/Src/main.c **** 
 207              		.loc 1 572 1 is_stmt 1 view -0
 208              		.cfi_startproc
 209              		@ args = 0, pretend = 0, frame = 8
 210              		@ frame_needed = 0, uses_anonymous_args = 0
 211 0000 00B5     		push	{lr}
 212              	.LCFI3:
 213              		.cfi_def_cfa_offset 4
 214              		.cfi_offset 14, -4
 215 0002 83B0     		sub	sp, sp, #12
 216              	.LCFI4:
 217              		.cfi_def_cfa_offset 16
 575:Core/Src/main.c **** 
 218              		.loc 1 575 3 view .LVU55
 219              	.LBB8:
 575:Core/Src/main.c **** 
 220              		.loc 1 575 3 view .LVU56
 221 0004 0021     		movs	r1, #0
 222 0006 0191     		str	r1, [sp, #4]
 575:Core/Src/main.c **** 
 223              		.loc 1 575 3 view .LVU57
 224 0008 094B     		ldr	r3, .L7
 225 000a 1A6B     		ldr	r2, [r3, #48]
 226 000c 42F40012 		orr	r2, r2, #2097152
 227 0010 1A63     		str	r2, [r3, #48]
 575:Core/Src/main.c **** 
 228              		.loc 1 575 3 view .LVU58
ARM GAS  C:\Users\samue\AppData\Local\Temp\ccPE45pB.s 			page 16


 229 0012 1B6B     		ldr	r3, [r3, #48]
 230 0014 03F40013 		and	r3, r3, #2097152
 231 0018 0193     		str	r3, [sp, #4]
 575:Core/Src/main.c **** 
 232              		.loc 1 575 3 view .LVU59
 233 001a 019B     		ldr	r3, [sp, #4]
 234              	.LBE8:
 575:Core/Src/main.c **** 
 235              		.loc 1 575 3 view .LVU60
 579:Core/Src/main.c ****   HAL_NVIC_EnableIRQ(DMA1_Stream6_IRQn);
 236              		.loc 1 579 3 view .LVU61
 237 001c 0A46     		mov	r2, r1
 238 001e 1120     		movs	r0, #17
 239 0020 FFF7FEFF 		bl	HAL_NVIC_SetPriority
 240              	.LVL6:
 580:Core/Src/main.c **** 
 241              		.loc 1 580 3 view .LVU62
 242 0024 1120     		movs	r0, #17
 243 0026 FFF7FEFF 		bl	HAL_NVIC_EnableIRQ
 244              	.LVL7:
 582:Core/Src/main.c **** 
 245              		.loc 1 582 1 is_stmt 0 view .LVU63
 246 002a 03B0     		add	sp, sp, #12
 247              	.LCFI5:
 248              		.cfi_def_cfa_offset 4
 249              		@ sp needed
 250 002c 5DF804FB 		ldr	pc, [sp], #4
 251              	.L8:
 252              		.align	2
 253              	.L7:
 254 0030 00380240 		.word	1073887232
 255              		.cfi_endproc
 256              	.LFE151:
 258              		.section	.text.lcd_send_cmd,"ax",%progbits
 259              		.align	1
 260              		.global	lcd_send_cmd
 261              		.syntax unified
 262              		.thumb
 263              		.thumb_func
 265              	lcd_send_cmd:
 266              	.LVL8:
 267              	.LFB138:
 268:Core/Src/main.c ****   char data_u, data_l;
 268              		.loc 1 268 1 is_stmt 1 view -0
 269              		.cfi_startproc
 270              		@ args = 0, pretend = 0, frame = 8
 271              		@ frame_needed = 0, uses_anonymous_args = 0
 268:Core/Src/main.c ****   char data_u, data_l;
 272              		.loc 1 268 1 is_stmt 0 view .LVU65
 273 0000 00B5     		push	{lr}
 274              	.LCFI6:
 275              		.cfi_def_cfa_offset 4
 276              		.cfi_offset 14, -4
 277 0002 85B0     		sub	sp, sp, #20
 278              	.LCFI7:
 279              		.cfi_def_cfa_offset 24
 269:Core/Src/main.c **** 	uint8_t data_t[4];
ARM GAS  C:\Users\samue\AppData\Local\Temp\ccPE45pB.s 			page 17


 280              		.loc 1 269 3 is_stmt 1 view .LVU66
 270:Core/Src/main.c **** 	data_u = (cmd&0xf0);
 281              		.loc 1 270 2 view .LVU67
 271:Core/Src/main.c **** 	data_l = ((cmd<<4)&0xf0);
 282              		.loc 1 271 2 view .LVU68
 271:Core/Src/main.c **** 	data_l = ((cmd<<4)&0xf0);
 283              		.loc 1 271 9 is_stmt 0 view .LVU69
 284 0004 00F0F003 		and	r3, r0, #240
 285              	.LVL9:
 272:Core/Src/main.c **** 	data_t[0] = data_u|0x0C;  //en=1, rs=0
 286              		.loc 1 272 2 is_stmt 1 view .LVU70
 272:Core/Src/main.c **** 	data_t[0] = data_u|0x0C;  //en=1, rs=0
 287              		.loc 1 272 16 is_stmt 0 view .LVU71
 288 0008 0001     		lsls	r0, r0, #4
 289              	.LVL10:
 272:Core/Src/main.c **** 	data_t[0] = data_u|0x0C;  //en=1, rs=0
 290              		.loc 1 272 9 view .LVU72
 291 000a C0B2     		uxtb	r0, r0
 292              	.LVL11:
 273:Core/Src/main.c **** 	data_t[1] = data_u|0x08;  //en=0, rs=0
 293              		.loc 1 273 2 is_stmt 1 view .LVU73
 273:Core/Src/main.c **** 	data_t[1] = data_u|0x08;  //en=0, rs=0
 294              		.loc 1 273 12 is_stmt 0 view .LVU74
 295 000c 43F00C02 		orr	r2, r3, #12
 296 0010 8DF80C20 		strb	r2, [sp, #12]
 274:Core/Src/main.c **** 	data_t[2] = data_l|0x0C;  //en=1, rs=0
 297              		.loc 1 274 2 is_stmt 1 view .LVU75
 274:Core/Src/main.c **** 	data_t[2] = data_l|0x0C;  //en=1, rs=0
 298              		.loc 1 274 12 is_stmt 0 view .LVU76
 299 0014 43F00803 		orr	r3, r3, #8
 300              	.LVL12:
 274:Core/Src/main.c **** 	data_t[2] = data_l|0x0C;  //en=1, rs=0
 301              		.loc 1 274 12 view .LVU77
 302 0018 8DF80D30 		strb	r3, [sp, #13]
 275:Core/Src/main.c **** 	data_t[3] = data_l|0x08;  //en=0, rs=0
 303              		.loc 1 275 2 is_stmt 1 view .LVU78
 275:Core/Src/main.c **** 	data_t[3] = data_l|0x08;  //en=0, rs=0
 304              		.loc 1 275 12 is_stmt 0 view .LVU79
 305 001c 40F00C03 		orr	r3, r0, #12
 306 0020 8DF80E30 		strb	r3, [sp, #14]
 276:Core/Src/main.c **** 	HAL_I2C_Master_Transmit (&hi2c1, SLAVE_ADDRESS_LCD,(uint8_t *) data_t, 4, 100);
 307              		.loc 1 276 2 is_stmt 1 view .LVU80
 276:Core/Src/main.c **** 	HAL_I2C_Master_Transmit (&hi2c1, SLAVE_ADDRESS_LCD,(uint8_t *) data_t, 4, 100);
 308              		.loc 1 276 12 is_stmt 0 view .LVU81
 309 0024 40F00800 		orr	r0, r0, #8
 310              	.LVL13:
 276:Core/Src/main.c **** 	HAL_I2C_Master_Transmit (&hi2c1, SLAVE_ADDRESS_LCD,(uint8_t *) data_t, 4, 100);
 311              		.loc 1 276 12 view .LVU82
 312 0028 8DF80F00 		strb	r0, [sp, #15]
 277:Core/Src/main.c **** }
 313              		.loc 1 277 2 is_stmt 1 view .LVU83
 314 002c 6423     		movs	r3, #100
 315 002e 0093     		str	r3, [sp]
 316 0030 0423     		movs	r3, #4
 317 0032 03AA     		add	r2, sp, #12
 318 0034 4E21     		movs	r1, #78
 319 0036 0348     		ldr	r0, .L11
ARM GAS  C:\Users\samue\AppData\Local\Temp\ccPE45pB.s 			page 18


 320 0038 FFF7FEFF 		bl	HAL_I2C_Master_Transmit
 321              	.LVL14:
 278:Core/Src/main.c **** 
 322              		.loc 1 278 1 is_stmt 0 view .LVU84
 323 003c 05B0     		add	sp, sp, #20
 324              	.LCFI8:
 325              		.cfi_def_cfa_offset 4
 326              		@ sp needed
 327 003e 5DF804FB 		ldr	pc, [sp], #4
 328              	.L12:
 329 0042 00BF     		.align	2
 330              	.L11:
 331 0044 00000000 		.word	.LANCHOR0
 332              		.cfi_endproc
 333              	.LFE138:
 335              		.section	.text.lcd_send_data,"ax",%progbits
 336              		.align	1
 337              		.global	lcd_send_data
 338              		.syntax unified
 339              		.thumb
 340              		.thumb_func
 342              	lcd_send_data:
 343              	.LVL15:
 344              	.LFB139:
 281:Core/Src/main.c **** 	char data_u, data_l;
 345              		.loc 1 281 1 is_stmt 1 view -0
 346              		.cfi_startproc
 347              		@ args = 0, pretend = 0, frame = 8
 348              		@ frame_needed = 0, uses_anonymous_args = 0
 281:Core/Src/main.c **** 	char data_u, data_l;
 349              		.loc 1 281 1 is_stmt 0 view .LVU86
 350 0000 00B5     		push	{lr}
 351              	.LCFI9:
 352              		.cfi_def_cfa_offset 4
 353              		.cfi_offset 14, -4
 354 0002 85B0     		sub	sp, sp, #20
 355              	.LCFI10:
 356              		.cfi_def_cfa_offset 24
 282:Core/Src/main.c **** 	uint8_t data_t[4];
 357              		.loc 1 282 2 is_stmt 1 view .LVU87
 283:Core/Src/main.c **** 	data_u = (data&0xf0);
 358              		.loc 1 283 2 view .LVU88
 284:Core/Src/main.c **** 	data_l = ((data<<4)&0xf0);
 359              		.loc 1 284 2 view .LVU89
 284:Core/Src/main.c **** 	data_l = ((data<<4)&0xf0);
 360              		.loc 1 284 9 is_stmt 0 view .LVU90
 361 0004 00F0F003 		and	r3, r0, #240
 362              	.LVL16:
 285:Core/Src/main.c **** 	data_t[0] = data_u|0x0D;  //en=1, rs=1
 363              		.loc 1 285 2 is_stmt 1 view .LVU91
 285:Core/Src/main.c **** 	data_t[0] = data_u|0x0D;  //en=1, rs=1
 364              		.loc 1 285 17 is_stmt 0 view .LVU92
 365 0008 0001     		lsls	r0, r0, #4
 366              	.LVL17:
 285:Core/Src/main.c **** 	data_t[0] = data_u|0x0D;  //en=1, rs=1
 367              		.loc 1 285 9 view .LVU93
 368 000a C0B2     		uxtb	r0, r0
ARM GAS  C:\Users\samue\AppData\Local\Temp\ccPE45pB.s 			page 19


 369              	.LVL18:
 286:Core/Src/main.c **** 	data_t[1] = data_u|0x09;  //en=0, rs=1
 370              		.loc 1 286 2 is_stmt 1 view .LVU94
 286:Core/Src/main.c **** 	data_t[1] = data_u|0x09;  //en=0, rs=1
 371              		.loc 1 286 12 is_stmt 0 view .LVU95
 372 000c 43F00D02 		orr	r2, r3, #13
 373 0010 8DF80C20 		strb	r2, [sp, #12]
 287:Core/Src/main.c **** 	data_t[2] = data_l|0x0D;  //en=1, rs=1
 374              		.loc 1 287 2 is_stmt 1 view .LVU96
 287:Core/Src/main.c **** 	data_t[2] = data_l|0x0D;  //en=1, rs=1
 375              		.loc 1 287 12 is_stmt 0 view .LVU97
 376 0014 43F00903 		orr	r3, r3, #9
 377              	.LVL19:
 287:Core/Src/main.c **** 	data_t[2] = data_l|0x0D;  //en=1, rs=1
 378              		.loc 1 287 12 view .LVU98
 379 0018 8DF80D30 		strb	r3, [sp, #13]
 288:Core/Src/main.c **** 	data_t[3] = data_l|0x09;  //en=0, rs=1
 380              		.loc 1 288 2 is_stmt 1 view .LVU99
 288:Core/Src/main.c **** 	data_t[3] = data_l|0x09;  //en=0, rs=1
 381              		.loc 1 288 12 is_stmt 0 view .LVU100
 382 001c 40F00D03 		orr	r3, r0, #13
 383 0020 8DF80E30 		strb	r3, [sp, #14]
 289:Core/Src/main.c **** 	HAL_I2C_Master_Transmit (&hi2c1, SLAVE_ADDRESS_LCD,(uint8_t *) data_t, 4, 100);
 384              		.loc 1 289 2 is_stmt 1 view .LVU101
 289:Core/Src/main.c **** 	HAL_I2C_Master_Transmit (&hi2c1, SLAVE_ADDRESS_LCD,(uint8_t *) data_t, 4, 100);
 385              		.loc 1 289 12 is_stmt 0 view .LVU102
 386 0024 40F00900 		orr	r0, r0, #9
 387              	.LVL20:
 289:Core/Src/main.c **** 	HAL_I2C_Master_Transmit (&hi2c1, SLAVE_ADDRESS_LCD,(uint8_t *) data_t, 4, 100);
 388              		.loc 1 289 12 view .LVU103
 389 0028 8DF80F00 		strb	r0, [sp, #15]
 290:Core/Src/main.c **** }
 390              		.loc 1 290 2 is_stmt 1 view .LVU104
 391 002c 6423     		movs	r3, #100
 392 002e 0093     		str	r3, [sp]
 393 0030 0423     		movs	r3, #4
 394 0032 03AA     		add	r2, sp, #12
 395 0034 4E21     		movs	r1, #78
 396 0036 0348     		ldr	r0, .L15
 397 0038 FFF7FEFF 		bl	HAL_I2C_Master_Transmit
 398              	.LVL21:
 291:Core/Src/main.c **** 
 399              		.loc 1 291 1 is_stmt 0 view .LVU105
 400 003c 05B0     		add	sp, sp, #20
 401              	.LCFI11:
 402              		.cfi_def_cfa_offset 4
 403              		@ sp needed
 404 003e 5DF804FB 		ldr	pc, [sp], #4
 405              	.L16:
 406 0042 00BF     		.align	2
 407              	.L15:
 408 0044 00000000 		.word	.LANCHOR0
 409              		.cfi_endproc
 410              	.LFE139:
 412              		.section	.text.lcd_init,"ax",%progbits
 413              		.align	1
 414              		.global	lcd_init
ARM GAS  C:\Users\samue\AppData\Local\Temp\ccPE45pB.s 			page 20


 415              		.syntax unified
 416              		.thumb
 417              		.thumb_func
 419              	lcd_init:
 420              	.LFB140:
 303:Core/Src/main.c **** 	// 4 bit initialisation
 421              		.loc 1 303 1 is_stmt 1 view -0
 422              		.cfi_startproc
 423              		@ args = 0, pretend = 0, frame = 0
 424              		@ frame_needed = 0, uses_anonymous_args = 0
 425 0000 08B5     		push	{r3, lr}
 426              	.LCFI12:
 427              		.cfi_def_cfa_offset 8
 428              		.cfi_offset 3, -8
 429              		.cfi_offset 14, -4
 305:Core/Src/main.c **** 	lcd_send_cmd (0x30);
 430              		.loc 1 305 2 view .LVU107
 431 0002 3220     		movs	r0, #50
 432 0004 FFF7FEFF 		bl	HAL_Delay
 433              	.LVL22:
 306:Core/Src/main.c **** 	HAL_Delay(5);  // wait for >4.1ms
 434              		.loc 1 306 2 view .LVU108
 435 0008 3020     		movs	r0, #48
 436 000a FFF7FEFF 		bl	lcd_send_cmd
 437              	.LVL23:
 307:Core/Src/main.c **** 	lcd_send_cmd (0x30);
 438              		.loc 1 307 2 view .LVU109
 439 000e 0520     		movs	r0, #5
 440 0010 FFF7FEFF 		bl	HAL_Delay
 441              	.LVL24:
 308:Core/Src/main.c **** 	HAL_Delay(1);  // wait for >100us
 442              		.loc 1 308 2 view .LVU110
 443 0014 3020     		movs	r0, #48
 444 0016 FFF7FEFF 		bl	lcd_send_cmd
 445              	.LVL25:
 309:Core/Src/main.c **** 	lcd_send_cmd (0x30);
 446              		.loc 1 309 2 view .LVU111
 447 001a 0120     		movs	r0, #1
 448 001c FFF7FEFF 		bl	HAL_Delay
 449              	.LVL26:
 310:Core/Src/main.c **** 	HAL_Delay(10);
 450              		.loc 1 310 2 view .LVU112
 451 0020 3020     		movs	r0, #48
 452 0022 FFF7FEFF 		bl	lcd_send_cmd
 453              	.LVL27:
 311:Core/Src/main.c **** 	lcd_send_cmd (0x20);  // 4bit mode
 454              		.loc 1 311 2 view .LVU113
 455 0026 0A20     		movs	r0, #10
 456 0028 FFF7FEFF 		bl	HAL_Delay
 457              	.LVL28:
 312:Core/Src/main.c **** 	HAL_Delay(10);
 458              		.loc 1 312 2 view .LVU114
 459 002c 2020     		movs	r0, #32
 460 002e FFF7FEFF 		bl	lcd_send_cmd
 461              	.LVL29:
 313:Core/Src/main.c **** 
 462              		.loc 1 313 2 view .LVU115
ARM GAS  C:\Users\samue\AppData\Local\Temp\ccPE45pB.s 			page 21


 463 0032 0A20     		movs	r0, #10
 464 0034 FFF7FEFF 		bl	HAL_Delay
 465              	.LVL30:
 316:Core/Src/main.c **** 	                       // (5x8 characters)
 466              		.loc 1 316 2 view .LVU116
 467 0038 2820     		movs	r0, #40
 468 003a FFF7FEFF 		bl	lcd_send_cmd
 469              	.LVL31:
 318:Core/Src/main.c **** 	lcd_send_cmd (0x08);   // Display on/off control --> D=0,C=0, B=0  ---> display off
 470              		.loc 1 318 2 view .LVU117
 471 003e 0120     		movs	r0, #1
 472 0040 FFF7FEFF 		bl	HAL_Delay
 473              	.LVL32:
 319:Core/Src/main.c **** 	HAL_Delay(1);
 474              		.loc 1 319 2 view .LVU118
 475 0044 0820     		movs	r0, #8
 476 0046 FFF7FEFF 		bl	lcd_send_cmd
 477              	.LVL33:
 320:Core/Src/main.c **** 	lcd_send_cmd (0x01);   // clear display
 478              		.loc 1 320 2 view .LVU119
 479 004a 0120     		movs	r0, #1
 480 004c FFF7FEFF 		bl	HAL_Delay
 481              	.LVL34:
 321:Core/Src/main.c **** 	HAL_Delay(1);
 482              		.loc 1 321 2 view .LVU120
 483 0050 0120     		movs	r0, #1
 484 0052 FFF7FEFF 		bl	lcd_send_cmd
 485              	.LVL35:
 322:Core/Src/main.c **** 	lcd_send_cmd (0x06);   // Entry mode set --> I/D = 1 (increment cursor) & S = 0 (no shift)
 486              		.loc 1 322 2 view .LVU121
 487 0056 0120     		movs	r0, #1
 488 0058 FFF7FEFF 		bl	HAL_Delay
 489              	.LVL36:
 323:Core/Src/main.c **** 	HAL_Delay(1);
 490              		.loc 1 323 2 view .LVU122
 491 005c 0620     		movs	r0, #6
 492 005e FFF7FEFF 		bl	lcd_send_cmd
 493              	.LVL37:
 324:Core/Src/main.c **** 	lcd_send_cmd (0x0C);   // Display on/off control --> D = 1, C and B = 0. (Cursor and blink, 
 494              		.loc 1 324 2 view .LVU123
 495 0062 0120     		movs	r0, #1
 496 0064 FFF7FEFF 		bl	HAL_Delay
 497              	.LVL38:
 325:Core/Src/main.c **** 	                       // last two bits)
 498              		.loc 1 325 2 view .LVU124
 499 0068 0C20     		movs	r0, #12
 500 006a FFF7FEFF 		bl	lcd_send_cmd
 501              	.LVL39:
 327:Core/Src/main.c **** 
 502              		.loc 1 327 1 is_stmt 0 view .LVU125
 503 006e 08BD     		pop	{r3, pc}
 504              		.cfi_endproc
 505              	.LFE140:
 507              		.section	.text.lcd_send_string,"ax",%progbits
 508              		.align	1
 509              		.global	lcd_send_string
 510              		.syntax unified
ARM GAS  C:\Users\samue\AppData\Local\Temp\ccPE45pB.s 			page 22


 511              		.thumb
 512              		.thumb_func
 514              	lcd_send_string:
 515              	.LVL40:
 516              	.LFB141:
 330:Core/Src/main.c **** 	while (*str) lcd_send_data (*str++);
 517              		.loc 1 330 1 is_stmt 1 view -0
 518              		.cfi_startproc
 519              		@ args = 0, pretend = 0, frame = 0
 520              		@ frame_needed = 0, uses_anonymous_args = 0
 330:Core/Src/main.c **** 	while (*str) lcd_send_data (*str++);
 521              		.loc 1 330 1 is_stmt 0 view .LVU127
 522 0000 10B5     		push	{r4, lr}
 523              	.LCFI13:
 524              		.cfi_def_cfa_offset 8
 525              		.cfi_offset 4, -8
 526              		.cfi_offset 14, -4
 527 0002 0446     		mov	r4, r0
 331:Core/Src/main.c **** }
 528              		.loc 1 331 2 is_stmt 1 view .LVU128
 331:Core/Src/main.c **** }
 529              		.loc 1 331 8 is_stmt 0 view .LVU129
 530 0004 02E0     		b	.L20
 531              	.LVL41:
 532              	.L21:
 331:Core/Src/main.c **** }
 533              		.loc 1 331 15 is_stmt 1 discriminator 2 view .LVU130
 331:Core/Src/main.c **** }
 534              		.loc 1 331 34 is_stmt 0 discriminator 2 view .LVU131
 535 0006 0134     		adds	r4, r4, #1
 536              	.LVL42:
 331:Core/Src/main.c **** }
 537              		.loc 1 331 15 discriminator 2 view .LVU132
 538 0008 FFF7FEFF 		bl	lcd_send_data
 539              	.LVL43:
 540              	.L20:
 331:Core/Src/main.c **** }
 541              		.loc 1 331 8 is_stmt 1 discriminator 1 view .LVU133
 331:Core/Src/main.c **** }
 542              		.loc 1 331 9 is_stmt 0 discriminator 1 view .LVU134
 543 000c 2078     		ldrb	r0, [r4]	@ zero_extendqisi2
 331:Core/Src/main.c **** }
 544              		.loc 1 331 8 discriminator 1 view .LVU135
 545 000e 0028     		cmp	r0, #0
 546 0010 F9D1     		bne	.L21
 332:Core/Src/main.c **** 
 547              		.loc 1 332 1 view .LVU136
 548 0012 10BD     		pop	{r4, pc}
 332:Core/Src/main.c **** 
 549              		.loc 1 332 1 view .LVU137
 550              		.cfi_endproc
 551              	.LFE141:
 553              		.section	.rodata.MPU6050_Init.str1.4,"aMS",%progbits,1
 554              		.align	2
 555              	.LC0:
 556 0000 53656E73 		.ascii	"Sensor Not Resp\000"
 556      6F72204E 
ARM GAS  C:\Users\samue\AppData\Local\Temp\ccPE45pB.s 			page 23


 556      6F742052 
 556      65737000 
 557              		.section	.text.MPU6050_Init,"ax",%progbits
 558              		.align	1
 559              		.global	MPU6050_Init
 560              		.syntax unified
 561              		.thumb
 562              		.thumb_func
 564              	MPU6050_Init:
 565              	.LFB133:
 113:Core/Src/main.c **** 
 566              		.loc 1 113 25 is_stmt 1 view -0
 567              		.cfi_startproc
 568              		@ args = 0, pretend = 0, frame = 8
 569              		@ frame_needed = 0, uses_anonymous_args = 0
 570 0000 2DE9F041 		push	{r4, r5, r6, r7, r8, lr}
 571              	.LCFI14:
 572              		.cfi_def_cfa_offset 24
 573              		.cfi_offset 4, -24
 574              		.cfi_offset 5, -20
 575              		.cfi_offset 6, -16
 576              		.cfi_offset 7, -12
 577              		.cfi_offset 8, -8
 578              		.cfi_offset 14, -4
 579 0004 86B0     		sub	sp, sp, #24
 580              	.LCFI15:
 581              		.cfi_def_cfa_offset 48
 115:Core/Src/main.c **** 	uint8_t Data;
 582              		.loc 1 115 2 view .LVU139
 116:Core/Src/main.c **** 
 583              		.loc 1 116 2 view .LVU140
 119:Core/Src/main.c **** 
 584              		.loc 1 119 2 view .LVU141
 585 0006 4FF47A73 		mov	r3, #1000
 586 000a 0293     		str	r3, [sp, #8]
 587 000c 0123     		movs	r3, #1
 588 000e 0193     		str	r3, [sp, #4]
 589 0010 0DF11702 		add	r2, sp, #23
 590 0014 0092     		str	r2, [sp]
 591 0016 7522     		movs	r2, #117
 592 0018 D021     		movs	r1, #208
 593 001a 2348     		ldr	r0, .L28
 594 001c FFF7FEFF 		bl	HAL_I2C_Mem_Read
 595              	.LVL44:
 122:Core/Src/main.c **** 		// Power management register 0x6B we should write all 0's to wake the sensor up
 596              		.loc 1 122 2 view .LVU142
 122:Core/Src/main.c **** 		// Power management register 0x6B we should write all 0's to wake the sensor up
 597              		.loc 1 122 12 is_stmt 0 view .LVU143
 598 0020 9DF81730 		ldrb	r3, [sp, #23]	@ zero_extendqisi2
 122:Core/Src/main.c **** 		// Power management register 0x6B we should write all 0's to wake the sensor up
 599              		.loc 1 122 5 view .LVU144
 600 0024 682B     		cmp	r3, #104
 601 0026 09D0     		beq	.L27
 143:Core/Src/main.c **** 		HAL_Delay(5000);
 602              		.loc 1 143 3 is_stmt 1 view .LVU145
 603 0028 2048     		ldr	r0, .L28+4
 604 002a FFF7FEFF 		bl	lcd_send_string
ARM GAS  C:\Users\samue\AppData\Local\Temp\ccPE45pB.s 			page 24


 605              	.LVL45:
 144:Core/Src/main.c **** 	}
 606              		.loc 1 144 3 view .LVU146
 607 002e 41F28830 		movw	r0, #5000
 608 0032 FFF7FEFF 		bl	HAL_Delay
 609              	.LVL46:
 610              	.L23:
 146:Core/Src/main.c **** 
 611              		.loc 1 146 1 is_stmt 0 view .LVU147
 612 0036 06B0     		add	sp, sp, #24
 613              	.LCFI16:
 614              		.cfi_remember_state
 615              		.cfi_def_cfa_offset 24
 616              		@ sp needed
 617 0038 BDE8F081 		pop	{r4, r5, r6, r7, r8, pc}
 618              	.L27:
 619              	.LCFI17:
 620              		.cfi_restore_state
 124:Core/Src/main.c **** 		HAL_I2C_Mem_Write(&hi2c1, MPU6050_ADDR, PWR_MGMT_1_REG, 1, &Data, 1, 1000);
 621              		.loc 1 124 3 is_stmt 1 view .LVU148
 124:Core/Src/main.c **** 		HAL_I2C_Mem_Write(&hi2c1, MPU6050_ADDR, PWR_MGMT_1_REG, 1, &Data, 1, 1000);
 622              		.loc 1 124 8 is_stmt 0 view .LVU149
 623 003c 4FF00008 		mov	r8, #0
 624 0040 8DF81680 		strb	r8, [sp, #22]
 125:Core/Src/main.c **** 
 625              		.loc 1 125 3 is_stmt 1 view .LVU150
 626 0044 184D     		ldr	r5, .L28
 627 0046 4FF47A77 		mov	r7, #1000
 628 004a 0297     		str	r7, [sp, #8]
 629 004c 0124     		movs	r4, #1
 630 004e 0194     		str	r4, [sp, #4]
 631 0050 0DF11606 		add	r6, sp, #22
 632 0054 0096     		str	r6, [sp]
 633 0056 2346     		mov	r3, r4
 634 0058 6B22     		movs	r2, #107
 635 005a D021     		movs	r1, #208
 636 005c 2846     		mov	r0, r5
 637 005e FFF7FEFF 		bl	HAL_I2C_Mem_Write
 638              	.LVL47:
 128:Core/Src/main.c **** 		HAL_I2C_Mem_Write(&hi2c1, MPU6050_ADDR, SMPLRT_DIV_REG, 1, &Data, 1, 1000);
 639              		.loc 1 128 3 view .LVU151
 128:Core/Src/main.c **** 		HAL_I2C_Mem_Write(&hi2c1, MPU6050_ADDR, SMPLRT_DIV_REG, 1, &Data, 1, 1000);
 640              		.loc 1 128 8 is_stmt 0 view .LVU152
 641 0062 0723     		movs	r3, #7
 642 0064 8DF81630 		strb	r3, [sp, #22]
 129:Core/Src/main.c **** 
 643              		.loc 1 129 3 is_stmt 1 view .LVU153
 644 0068 0297     		str	r7, [sp, #8]
 645 006a 0194     		str	r4, [sp, #4]
 646 006c 0096     		str	r6, [sp]
 647 006e 2346     		mov	r3, r4
 648 0070 1922     		movs	r2, #25
 649 0072 D021     		movs	r1, #208
 650 0074 2846     		mov	r0, r5
 651 0076 FFF7FEFF 		bl	HAL_I2C_Mem_Write
 652              	.LVL48:
 133:Core/Src/main.c **** 		HAL_I2C_Mem_Write(&hi2c1, MPU6050_ADDR, ACCEL_CONFIG_REG, 1, &Data, 1, 1000);
ARM GAS  C:\Users\samue\AppData\Local\Temp\ccPE45pB.s 			page 25


 653              		.loc 1 133 3 view .LVU154
 133:Core/Src/main.c **** 		HAL_I2C_Mem_Write(&hi2c1, MPU6050_ADDR, ACCEL_CONFIG_REG, 1, &Data, 1, 1000);
 654              		.loc 1 133 8 is_stmt 0 view .LVU155
 655 007a 8DF81680 		strb	r8, [sp, #22]
 134:Core/Src/main.c **** 
 656              		.loc 1 134 3 is_stmt 1 view .LVU156
 657 007e 0297     		str	r7, [sp, #8]
 658 0080 0194     		str	r4, [sp, #4]
 659 0082 0096     		str	r6, [sp]
 660 0084 2346     		mov	r3, r4
 661 0086 1C22     		movs	r2, #28
 662 0088 D021     		movs	r1, #208
 663 008a 2846     		mov	r0, r5
 664 008c FFF7FEFF 		bl	HAL_I2C_Mem_Write
 665              	.LVL49:
 138:Core/Src/main.c **** 		HAL_I2C_Mem_Write(&hi2c1, MPU6050_ADDR, GYRO_CONFIG_REG, 1, &Data, 1, 1000);
 666              		.loc 1 138 3 view .LVU157
 138:Core/Src/main.c **** 		HAL_I2C_Mem_Write(&hi2c1, MPU6050_ADDR, GYRO_CONFIG_REG, 1, &Data, 1, 1000);
 667              		.loc 1 138 8 is_stmt 0 view .LVU158
 668 0090 8DF81680 		strb	r8, [sp, #22]
 139:Core/Src/main.c **** 	}
 669              		.loc 1 139 3 is_stmt 1 view .LVU159
 670 0094 0297     		str	r7, [sp, #8]
 671 0096 0194     		str	r4, [sp, #4]
 672 0098 0096     		str	r6, [sp]
 673 009a 2346     		mov	r3, r4
 674 009c 1B22     		movs	r2, #27
 675 009e D021     		movs	r1, #208
 676 00a0 2846     		mov	r0, r5
 677 00a2 FFF7FEFF 		bl	HAL_I2C_Mem_Write
 678              	.LVL50:
 679 00a6 C6E7     		b	.L23
 680              	.L29:
 681              		.align	2
 682              	.L28:
 683 00a8 00000000 		.word	.LANCHOR0
 684 00ac 00000000 		.word	.LC0
 685              		.cfi_endproc
 686              	.LFE133:
 688              		.section	.rodata.accel_cal_prep.str1.4,"aMS",%progbits,1
 689              		.align	2
 690              	.LC1:
 691 0000 506F7369 		.ascii	"Position the\000"
 691      74696F6E 
 691      20746865 
 691      00
 692 000d 000000   		.align	2
 693              	.LC2:
 694 0010 61636365 		.ascii	"accelerometer to its\000"
 694      6C65726F 
 694      6D657465 
 694      7220746F 
 694      20697473 
 695 0025 000000   		.align	2
 696              	.LC3:
 697 0028 7A65726F 		.ascii	"zero position\000"
 697      20706F73 
ARM GAS  C:\Users\samue\AppData\Local\Temp\ccPE45pB.s 			page 26


 697      6974696F 
 697      6E00
 698              		.section	.text.accel_cal_prep,"ax",%progbits
 699              		.align	1
 700              		.global	accel_cal_prep
 701              		.syntax unified
 702              		.thumb
 703              		.thumb_func
 705              	accel_cal_prep:
 706              	.LFB136:
 233:Core/Src/main.c **** 	// Prepare to calibrate the accelerometer
 707              		.loc 1 233 27 view -0
 708              		.cfi_startproc
 709              		@ args = 0, pretend = 0, frame = 0
 710              		@ frame_needed = 0, uses_anonymous_args = 0
 711 0000 08B5     		push	{r3, lr}
 712              	.LCFI18:
 713              		.cfi_def_cfa_offset 8
 714              		.cfi_offset 3, -8
 715              		.cfi_offset 14, -4
 235:Core/Src/main.c **** 
 716              		.loc 1 235 2 view .LVU161
 235:Core/Src/main.c **** 
 717              		.loc 1 235 7 is_stmt 0 view .LVU162
 718 0002 0C4B     		ldr	r3, .L32
 719 0004 0022     		movs	r2, #0
 720 0006 1A70     		strb	r2, [r3]
 237:Core/Src/main.c **** 
 721              		.loc 1 237 2 is_stmt 1 view .LVU163
 722 0008 FFF7FEFF 		bl	lcd_clear
 723              	.LVL51:
 239:Core/Src/main.c **** 	lcd_send_string("Position the");
 724              		.loc 1 239 2 view .LVU164
 725 000c 8020     		movs	r0, #128
 726 000e FFF7FEFF 		bl	lcd_send_cmd
 727              	.LVL52:
 240:Core/Src/main.c **** 	lcd_send_cmd(0x80|0x40);
 728              		.loc 1 240 2 view .LVU165
 729 0012 0948     		ldr	r0, .L32+4
 730 0014 FFF7FEFF 		bl	lcd_send_string
 731              	.LVL53:
 241:Core/Src/main.c **** 	lcd_send_string("accelerometer to its");
 732              		.loc 1 241 2 view .LVU166
 733 0018 C020     		movs	r0, #192
 734 001a FFF7FEFF 		bl	lcd_send_cmd
 735              	.LVL54:
 242:Core/Src/main.c **** 	lcd_send_cmd(0x80|0x14);
 736              		.loc 1 242 2 view .LVU167
 737 001e 0748     		ldr	r0, .L32+8
 738 0020 FFF7FEFF 		bl	lcd_send_string
 739              	.LVL55:
 243:Core/Src/main.c **** 	lcd_send_string("zero position");
 740              		.loc 1 243 2 view .LVU168
 741 0024 9420     		movs	r0, #148
 742 0026 FFF7FEFF 		bl	lcd_send_cmd
 743              	.LVL56:
 244:Core/Src/main.c **** }
ARM GAS  C:\Users\samue\AppData\Local\Temp\ccPE45pB.s 			page 27


 744              		.loc 1 244 2 view .LVU169
 745 002a 0548     		ldr	r0, .L32+12
 746 002c FFF7FEFF 		bl	lcd_send_string
 747              	.LVL57:
 245:Core/Src/main.c **** 
 748              		.loc 1 245 1 is_stmt 0 view .LVU170
 749 0030 08BD     		pop	{r3, pc}
 750              	.L33:
 751 0032 00BF     		.align	2
 752              	.L32:
 753 0034 00000000 		.word	.LANCHOR1
 754 0038 00000000 		.word	.LC1
 755 003c 10000000 		.word	.LC2
 756 0040 28000000 		.word	.LC3
 757              		.cfi_endproc
 758              	.LFE136:
 760              		.section	.text.MPU6050_read_accel_raw,"ax",%progbits
 761              		.align	1
 762              		.global	MPU6050_read_accel_raw
 763              		.syntax unified
 764              		.thumb
 765              		.thumb_func
 767              	MPU6050_read_accel_raw:
 768              	.LVL58:
 769              	.LFB142:
 335:Core/Src/main.c **** 	uint8_t data[6];
 770              		.loc 1 335 22 is_stmt 1 view -0
 771              		.cfi_startproc
 772              		@ args = 0, pretend = 0, frame = 8
 773              		@ frame_needed = 0, uses_anonymous_args = 0
 335:Core/Src/main.c **** 	uint8_t data[6];
 774              		.loc 1 335 22 is_stmt 0 view .LVU172
 775 0000 10B5     		push	{r4, lr}
 776              	.LCFI19:
 777              		.cfi_def_cfa_offset 8
 778              		.cfi_offset 4, -8
 779              		.cfi_offset 14, -4
 780 0002 2DED028B 		vpush.64	{d8}
 781              	.LCFI20:
 782              		.cfi_def_cfa_offset 16
 783              		.cfi_offset 80, -16
 784              		.cfi_offset 81, -12
 785 0006 86B0     		sub	sp, sp, #24
 786              	.LCFI21:
 787              		.cfi_def_cfa_offset 40
 788 0008 B0EE408A 		vmov.f32	s16, s0
 789 000c 1446     		mov	r4, r2
 336:Core/Src/main.c **** 
 790              		.loc 1 336 2 is_stmt 1 view .LVU173
 339:Core/Src/main.c **** 
 791              		.loc 1 339 2 view .LVU174
 792 000e 4FF47A73 		mov	r3, #1000
 793 0012 0293     		str	r3, [sp, #8]
 794 0014 0623     		movs	r3, #6
 795 0016 0193     		str	r3, [sp, #4]
 796 0018 04AB     		add	r3, sp, #16
 797 001a 0093     		str	r3, [sp]
ARM GAS  C:\Users\samue\AppData\Local\Temp\ccPE45pB.s 			page 28


 798 001c 0123     		movs	r3, #1
 799 001e 0A46     		mov	r2, r1
 800              	.LVL59:
 339:Core/Src/main.c **** 
 801              		.loc 1 339 2 is_stmt 0 view .LVU175
 802 0020 0146     		mov	r1, r0
 803              	.LVL60:
 339:Core/Src/main.c **** 
 804              		.loc 1 339 2 view .LVU176
 805 0022 1A48     		ldr	r0, .L36
 806              	.LVL61:
 339:Core/Src/main.c **** 
 807              		.loc 1 339 2 view .LVU177
 808 0024 FFF7FEFF 		bl	HAL_I2C_Mem_Read
 809              	.LVL62:
 341:Core/Src/main.c **** 	accel_corr[1] = ((int16_t)(data[2] << 8 | data[3]))/accel_con;
 810              		.loc 1 341 2 is_stmt 1 view .LVU178
 341:Core/Src/main.c **** 	accel_corr[1] = ((int16_t)(data[2] << 8 | data[3]))/accel_con;
 811              		.loc 1 341 33 is_stmt 0 view .LVU179
 812 0028 9DF81020 		ldrb	r2, [sp, #16]	@ zero_extendqisi2
 341:Core/Src/main.c **** 	accel_corr[1] = ((int16_t)(data[2] << 8 | data[3]))/accel_con;
 813              		.loc 1 341 48 view .LVU180
 814 002c 9DF81130 		ldrb	r3, [sp, #17]	@ zero_extendqisi2
 341:Core/Src/main.c **** 	accel_corr[1] = ((int16_t)(data[2] << 8 | data[3]))/accel_con;
 815              		.loc 1 341 19 view .LVU181
 816 0030 43EA0223 		orr	r3, r3, r2, lsl #8
 817 0034 1BB2     		sxth	r3, r3
 341:Core/Src/main.c **** 	accel_corr[1] = ((int16_t)(data[2] << 8 | data[3]))/accel_con;
 818              		.loc 1 341 53 view .LVU182
 819 0036 07EE903A 		vmov	s15, r3	@ int
 820 003a F8EEE77A 		vcvt.f32.s32	s15, s15
 821 003e 87EE887A 		vdiv.f32	s14, s15, s16
 341:Core/Src/main.c **** 	accel_corr[1] = ((int16_t)(data[2] << 8 | data[3]))/accel_con;
 822              		.loc 1 341 16 view .LVU183
 823 0042 84ED007A 		vstr.32	s14, [r4]
 342:Core/Src/main.c **** 	accel_corr[2] = ((int16_t)(data[4] << 8 | data[5]))/accel_con;
 824              		.loc 1 342 2 is_stmt 1 view .LVU184
 342:Core/Src/main.c **** 	accel_corr[2] = ((int16_t)(data[4] << 8 | data[5]))/accel_con;
 825              		.loc 1 342 33 is_stmt 0 view .LVU185
 826 0046 9DF81220 		ldrb	r2, [sp, #18]	@ zero_extendqisi2
 342:Core/Src/main.c **** 	accel_corr[2] = ((int16_t)(data[4] << 8 | data[5]))/accel_con;
 827              		.loc 1 342 48 view .LVU186
 828 004a 9DF81330 		ldrb	r3, [sp, #19]	@ zero_extendqisi2
 342:Core/Src/main.c **** 	accel_corr[2] = ((int16_t)(data[4] << 8 | data[5]))/accel_con;
 829              		.loc 1 342 19 view .LVU187
 830 004e 43EA0223 		orr	r3, r3, r2, lsl #8
 831 0052 1BB2     		sxth	r3, r3
 342:Core/Src/main.c **** 	accel_corr[2] = ((int16_t)(data[4] << 8 | data[5]))/accel_con;
 832              		.loc 1 342 53 view .LVU188
 833 0054 07EE903A 		vmov	s15, r3	@ int
 834 0058 F8EEE77A 		vcvt.f32.s32	s15, s15
 835 005c 87EE887A 		vdiv.f32	s14, s15, s16
 342:Core/Src/main.c **** 	accel_corr[2] = ((int16_t)(data[4] << 8 | data[5]))/accel_con;
 836              		.loc 1 342 16 view .LVU189
 837 0060 84ED017A 		vstr.32	s14, [r4, #4]
 343:Core/Src/main.c **** 
 838              		.loc 1 343 2 is_stmt 1 view .LVU190
ARM GAS  C:\Users\samue\AppData\Local\Temp\ccPE45pB.s 			page 29


 343:Core/Src/main.c **** 
 839              		.loc 1 343 33 is_stmt 0 view .LVU191
 840 0064 9DF81420 		ldrb	r2, [sp, #20]	@ zero_extendqisi2
 343:Core/Src/main.c **** 
 841              		.loc 1 343 48 view .LVU192
 842 0068 9DF81530 		ldrb	r3, [sp, #21]	@ zero_extendqisi2
 343:Core/Src/main.c **** 
 843              		.loc 1 343 19 view .LVU193
 844 006c 43EA0223 		orr	r3, r3, r2, lsl #8
 845 0070 1BB2     		sxth	r3, r3
 343:Core/Src/main.c **** 
 846              		.loc 1 343 53 view .LVU194
 847 0072 07EE903A 		vmov	s15, r3	@ int
 848 0076 F8EEE77A 		vcvt.f32.s32	s15, s15
 849 007a 87EE887A 		vdiv.f32	s14, s15, s16
 343:Core/Src/main.c **** 
 850              		.loc 1 343 16 view .LVU195
 851 007e 84ED027A 		vstr.32	s14, [r4, #8]
 345:Core/Src/main.c **** }
 852              		.loc 1 345 2 is_stmt 1 view .LVU196
 346:Core/Src/main.c **** 
 853              		.loc 1 346 1 is_stmt 0 view .LVU197
 854 0082 2046     		mov	r0, r4
 855 0084 06B0     		add	sp, sp, #24
 856              	.LCFI22:
 857              		.cfi_def_cfa_offset 16
 858              		@ sp needed
 859 0086 BDEC028B 		vldm	sp!, {d8}
 860              	.LCFI23:
 861              		.cfi_restore 80
 862              		.cfi_restore 81
 863              		.cfi_def_cfa_offset 8
 864              	.LVL63:
 346:Core/Src/main.c **** 
 865              		.loc 1 346 1 view .LVU198
 866 008a 10BD     		pop	{r4, pc}
 867              	.LVL64:
 868              	.L37:
 346:Core/Src/main.c **** 
 869              		.loc 1 346 1 view .LVU199
 870              		.align	2
 871              	.L36:
 872 008c 00000000 		.word	.LANCHOR0
 873              		.cfi_endproc
 874              	.LFE142:
 876              		.section	.text.MPU6050_read_accel,"ax",%progbits
 877              		.align	1
 878              		.global	MPU6050_read_accel
 879              		.syntax unified
 880              		.thumb
 881              		.thumb_func
 883              	MPU6050_read_accel:
 884              	.LVL65:
 885              	.LFB143:
 349:Core/Src/main.c **** 	uint8_t data[6];
 886              		.loc 1 349 42 is_stmt 1 view -0
 887              		.cfi_startproc
ARM GAS  C:\Users\samue\AppData\Local\Temp\ccPE45pB.s 			page 30


 888              		@ args = 0, pretend = 0, frame = 8
 889              		@ frame_needed = 0, uses_anonymous_args = 0
 349:Core/Src/main.c **** 	uint8_t data[6];
 890              		.loc 1 349 42 is_stmt 0 view .LVU201
 891 0000 30B5     		push	{r4, r5, lr}
 892              	.LCFI24:
 893              		.cfi_def_cfa_offset 12
 894              		.cfi_offset 4, -12
 895              		.cfi_offset 5, -8
 896              		.cfi_offset 14, -4
 897 0002 2DED028B 		vpush.64	{d8}
 898              	.LCFI25:
 899              		.cfi_def_cfa_offset 20
 900              		.cfi_offset 80, -20
 901              		.cfi_offset 81, -16
 902 0006 87B0     		sub	sp, sp, #28
 903              	.LCFI26:
 904              		.cfi_def_cfa_offset 48
 905 0008 B0EE408A 		vmov.f32	s16, s0
 906 000c 1446     		mov	r4, r2
 907 000e 1D46     		mov	r5, r3
 350:Core/Src/main.c **** 
 908              		.loc 1 350 2 is_stmt 1 view .LVU202
 353:Core/Src/main.c **** 
 909              		.loc 1 353 2 view .LVU203
 910 0010 4FF47A73 		mov	r3, #1000
 911              	.LVL66:
 353:Core/Src/main.c **** 
 912              		.loc 1 353 2 is_stmt 0 view .LVU204
 913 0014 0293     		str	r3, [sp, #8]
 914 0016 0623     		movs	r3, #6
 915 0018 0193     		str	r3, [sp, #4]
 916 001a 04AB     		add	r3, sp, #16
 917 001c 0093     		str	r3, [sp]
 918 001e 0123     		movs	r3, #1
 919 0020 0A46     		mov	r2, r1
 920              	.LVL67:
 353:Core/Src/main.c **** 
 921              		.loc 1 353 2 view .LVU205
 922 0022 0146     		mov	r1, r0
 923              	.LVL68:
 353:Core/Src/main.c **** 
 924              		.loc 1 353 2 view .LVU206
 925 0024 2048     		ldr	r0, .L40
 926              	.LVL69:
 353:Core/Src/main.c **** 
 927              		.loc 1 353 2 view .LVU207
 928 0026 FFF7FEFF 		bl	HAL_I2C_Mem_Read
 929              	.LVL70:
 355:Core/Src/main.c **** 	accel_data[1] = ((int16_t)(data[2] << 8 | data[3]))/accel_con - accel_corr[1];
 930              		.loc 1 355 2 is_stmt 1 view .LVU208
 355:Core/Src/main.c **** 	accel_data[1] = ((int16_t)(data[2] << 8 | data[3]))/accel_con - accel_corr[1];
 931              		.loc 1 355 33 is_stmt 0 view .LVU209
 932 002a 9DF81020 		ldrb	r2, [sp, #16]	@ zero_extendqisi2
 355:Core/Src/main.c **** 	accel_data[1] = ((int16_t)(data[2] << 8 | data[3]))/accel_con - accel_corr[1];
 933              		.loc 1 355 48 view .LVU210
 934 002e 9DF81130 		ldrb	r3, [sp, #17]	@ zero_extendqisi2
ARM GAS  C:\Users\samue\AppData\Local\Temp\ccPE45pB.s 			page 31


 355:Core/Src/main.c **** 	accel_data[1] = ((int16_t)(data[2] << 8 | data[3]))/accel_con - accel_corr[1];
 935              		.loc 1 355 19 view .LVU211
 936 0032 43EA0223 		orr	r3, r3, r2, lsl #8
 937 0036 1BB2     		sxth	r3, r3
 355:Core/Src/main.c **** 	accel_data[1] = ((int16_t)(data[2] << 8 | data[3]))/accel_con - accel_corr[1];
 938              		.loc 1 355 53 view .LVU212
 939 0038 07EE903A 		vmov	s15, r3	@ int
 940 003c F8EEE77A 		vcvt.f32.s32	s15, s15
 941 0040 87EE887A 		vdiv.f32	s14, s15, s16
 355:Core/Src/main.c **** 	accel_data[1] = ((int16_t)(data[2] << 8 | data[3]))/accel_con - accel_corr[1];
 942              		.loc 1 355 76 view .LVU213
 943 0044 D5ED007A 		vldr.32	s15, [r5]
 355:Core/Src/main.c **** 	accel_data[1] = ((int16_t)(data[2] << 8 | data[3]))/accel_con - accel_corr[1];
 944              		.loc 1 355 64 view .LVU214
 945 0048 77EE677A 		vsub.f32	s15, s14, s15
 355:Core/Src/main.c **** 	accel_data[1] = ((int16_t)(data[2] << 8 | data[3]))/accel_con - accel_corr[1];
 946              		.loc 1 355 16 view .LVU215
 947 004c C4ED007A 		vstr.32	s15, [r4]
 356:Core/Src/main.c **** 	accel_data[2] = ((int16_t)(data[4] << 8 | data[5]))/accel_con - accel_corr[2];
 948              		.loc 1 356 2 is_stmt 1 view .LVU216
 356:Core/Src/main.c **** 	accel_data[2] = ((int16_t)(data[4] << 8 | data[5]))/accel_con - accel_corr[2];
 949              		.loc 1 356 33 is_stmt 0 view .LVU217
 950 0050 9DF81230 		ldrb	r3, [sp, #18]	@ zero_extendqisi2
 356:Core/Src/main.c **** 	accel_data[2] = ((int16_t)(data[4] << 8 | data[5]))/accel_con - accel_corr[2];
 951              		.loc 1 356 48 view .LVU218
 952 0054 9DF81310 		ldrb	r1, [sp, #19]	@ zero_extendqisi2
 356:Core/Src/main.c **** 	accel_data[2] = ((int16_t)(data[4] << 8 | data[5]))/accel_con - accel_corr[2];
 953              		.loc 1 356 19 view .LVU219
 954 0058 41EA0321 		orr	r1, r1, r3, lsl #8
 955 005c 09B2     		sxth	r1, r1
 356:Core/Src/main.c **** 	accel_data[2] = ((int16_t)(data[4] << 8 | data[5]))/accel_con - accel_corr[2];
 956              		.loc 1 356 53 view .LVU220
 957 005e 07EE901A 		vmov	s15, r1	@ int
 958 0062 F8EEE77A 		vcvt.f32.s32	s15, s15
 959 0066 87EE887A 		vdiv.f32	s14, s15, s16
 356:Core/Src/main.c **** 	accel_data[2] = ((int16_t)(data[4] << 8 | data[5]))/accel_con - accel_corr[2];
 960              		.loc 1 356 76 view .LVU221
 961 006a D5ED017A 		vldr.32	s15, [r5, #4]
 356:Core/Src/main.c **** 	accel_data[2] = ((int16_t)(data[4] << 8 | data[5]))/accel_con - accel_corr[2];
 962              		.loc 1 356 64 view .LVU222
 963 006e 77EE677A 		vsub.f32	s15, s14, s15
 356:Core/Src/main.c **** 	accel_data[2] = ((int16_t)(data[4] << 8 | data[5]))/accel_con - accel_corr[2];
 964              		.loc 1 356 16 view .LVU223
 965 0072 C4ED017A 		vstr.32	s15, [r4, #4]
 357:Core/Src/main.c **** 
 966              		.loc 1 357 2 is_stmt 1 view .LVU224
 357:Core/Src/main.c **** 
 967              		.loc 1 357 33 is_stmt 0 view .LVU225
 968 0076 9DF81430 		ldrb	r3, [sp, #20]	@ zero_extendqisi2
 357:Core/Src/main.c **** 
 969              		.loc 1 357 48 view .LVU226
 970 007a 9DF81510 		ldrb	r1, [sp, #21]	@ zero_extendqisi2
 357:Core/Src/main.c **** 
 971              		.loc 1 357 19 view .LVU227
 972 007e 41EA0321 		orr	r1, r1, r3, lsl #8
 973 0082 09B2     		sxth	r1, r1
 357:Core/Src/main.c **** 
ARM GAS  C:\Users\samue\AppData\Local\Temp\ccPE45pB.s 			page 32


 974              		.loc 1 357 53 view .LVU228
 975 0084 07EE901A 		vmov	s15, r1	@ int
 976 0088 F8EEE77A 		vcvt.f32.s32	s15, s15
 977 008c 87EE887A 		vdiv.f32	s14, s15, s16
 357:Core/Src/main.c **** 
 978              		.loc 1 357 76 view .LVU229
 979 0090 D5ED027A 		vldr.32	s15, [r5, #8]
 357:Core/Src/main.c **** 
 980              		.loc 1 357 64 view .LVU230
 981 0094 77EE677A 		vsub.f32	s15, s14, s15
 357:Core/Src/main.c **** 
 982              		.loc 1 357 16 view .LVU231
 983 0098 C4ED027A 		vstr.32	s15, [r4, #8]
 359:Core/Src/main.c **** }
 984              		.loc 1 359 2 is_stmt 1 view .LVU232
 360:Core/Src/main.c **** 
 985              		.loc 1 360 1 is_stmt 0 view .LVU233
 986 009c 2046     		mov	r0, r4
 987 009e 07B0     		add	sp, sp, #28
 988              	.LCFI27:
 989              		.cfi_def_cfa_offset 20
 990              		@ sp needed
 991 00a0 BDEC028B 		vldm	sp!, {d8}
 992              	.LCFI28:
 993              		.cfi_restore 80
 994              		.cfi_restore 81
 995              		.cfi_def_cfa_offset 12
 996              	.LVL71:
 360:Core/Src/main.c **** 
 997              		.loc 1 360 1 view .LVU234
 998 00a4 30BD     		pop	{r4, r5, pc}
 999              	.LVL72:
 1000              	.L41:
 360:Core/Src/main.c **** 
 1001              		.loc 1 360 1 view .LVU235
 1002 00a6 00BF     		.align	2
 1003              	.L40:
 1004 00a8 00000000 		.word	.LANCHOR0
 1005              		.cfi_endproc
 1006              	.LFE143:
 1008              		.section	.text.MPU6050_read_gyro_raw,"ax",%progbits
 1009              		.align	1
 1010              		.global	MPU6050_read_gyro_raw
 1011              		.syntax unified
 1012              		.thumb
 1013              		.thumb_func
 1015              	MPU6050_read_gyro_raw:
 1016              	.LVL73:
 1017              	.LFB144:
 363:Core/Src/main.c **** 	uint8_t data[6];
 1018              		.loc 1 363 21 is_stmt 1 view -0
 1019              		.cfi_startproc
 1020              		@ args = 0, pretend = 0, frame = 8
 1021              		@ frame_needed = 0, uses_anonymous_args = 0
 363:Core/Src/main.c **** 	uint8_t data[6];
 1022              		.loc 1 363 21 is_stmt 0 view .LVU237
 1023 0000 10B5     		push	{r4, lr}
ARM GAS  C:\Users\samue\AppData\Local\Temp\ccPE45pB.s 			page 33


 1024              	.LCFI29:
 1025              		.cfi_def_cfa_offset 8
 1026              		.cfi_offset 4, -8
 1027              		.cfi_offset 14, -4
 1028 0002 2DED028B 		vpush.64	{d8}
 1029              	.LCFI30:
 1030              		.cfi_def_cfa_offset 16
 1031              		.cfi_offset 80, -16
 1032              		.cfi_offset 81, -12
 1033 0006 86B0     		sub	sp, sp, #24
 1034              	.LCFI31:
 1035              		.cfi_def_cfa_offset 40
 1036 0008 B0EE408A 		vmov.f32	s16, s0
 1037 000c 1446     		mov	r4, r2
 364:Core/Src/main.c **** 
 1038              		.loc 1 364 2 is_stmt 1 view .LVU238
 367:Core/Src/main.c **** 
 1039              		.loc 1 367 2 view .LVU239
 1040 000e 4FF47A73 		mov	r3, #1000
 1041 0012 0293     		str	r3, [sp, #8]
 1042 0014 0623     		movs	r3, #6
 1043 0016 0193     		str	r3, [sp, #4]
 1044 0018 04AB     		add	r3, sp, #16
 1045 001a 0093     		str	r3, [sp]
 1046 001c 0123     		movs	r3, #1
 1047 001e 0A46     		mov	r2, r1
 1048              	.LVL74:
 367:Core/Src/main.c **** 
 1049              		.loc 1 367 2 is_stmt 0 view .LVU240
 1050 0020 0146     		mov	r1, r0
 1051              	.LVL75:
 367:Core/Src/main.c **** 
 1052              		.loc 1 367 2 view .LVU241
 1053 0022 1A48     		ldr	r0, .L44
 1054              	.LVL76:
 367:Core/Src/main.c **** 
 1055              		.loc 1 367 2 view .LVU242
 1056 0024 FFF7FEFF 		bl	HAL_I2C_Mem_Read
 1057              	.LVL77:
 369:Core/Src/main.c **** 	gyro_corr[1] = ((int16_t)(data[2] << 8 | data[3]))/gyro_con;
 1058              		.loc 1 369 2 is_stmt 1 view .LVU243
 369:Core/Src/main.c **** 	gyro_corr[1] = ((int16_t)(data[2] << 8 | data[3]))/gyro_con;
 1059              		.loc 1 369 32 is_stmt 0 view .LVU244
 1060 0028 9DF81020 		ldrb	r2, [sp, #16]	@ zero_extendqisi2
 369:Core/Src/main.c **** 	gyro_corr[1] = ((int16_t)(data[2] << 8 | data[3]))/gyro_con;
 1061              		.loc 1 369 47 view .LVU245
 1062 002c 9DF81130 		ldrb	r3, [sp, #17]	@ zero_extendqisi2
 369:Core/Src/main.c **** 	gyro_corr[1] = ((int16_t)(data[2] << 8 | data[3]))/gyro_con;
 1063              		.loc 1 369 18 view .LVU246
 1064 0030 43EA0223 		orr	r3, r3, r2, lsl #8
 1065 0034 1BB2     		sxth	r3, r3
 369:Core/Src/main.c **** 	gyro_corr[1] = ((int16_t)(data[2] << 8 | data[3]))/gyro_con;
 1066              		.loc 1 369 52 view .LVU247
 1067 0036 07EE903A 		vmov	s15, r3	@ int
 1068 003a F8EEE77A 		vcvt.f32.s32	s15, s15
 1069 003e 87EE887A 		vdiv.f32	s14, s15, s16
 369:Core/Src/main.c **** 	gyro_corr[1] = ((int16_t)(data[2] << 8 | data[3]))/gyro_con;
ARM GAS  C:\Users\samue\AppData\Local\Temp\ccPE45pB.s 			page 34


 1070              		.loc 1 369 15 view .LVU248
 1071 0042 84ED007A 		vstr.32	s14, [r4]
 370:Core/Src/main.c **** 	gyro_corr[2] = ((int16_t)(data[4] << 8 | data[5]))/gyro_con;
 1072              		.loc 1 370 2 is_stmt 1 view .LVU249
 370:Core/Src/main.c **** 	gyro_corr[2] = ((int16_t)(data[4] << 8 | data[5]))/gyro_con;
 1073              		.loc 1 370 32 is_stmt 0 view .LVU250
 1074 0046 9DF81220 		ldrb	r2, [sp, #18]	@ zero_extendqisi2
 370:Core/Src/main.c **** 	gyro_corr[2] = ((int16_t)(data[4] << 8 | data[5]))/gyro_con;
 1075              		.loc 1 370 47 view .LVU251
 1076 004a 9DF81330 		ldrb	r3, [sp, #19]	@ zero_extendqisi2
 370:Core/Src/main.c **** 	gyro_corr[2] = ((int16_t)(data[4] << 8 | data[5]))/gyro_con;
 1077              		.loc 1 370 18 view .LVU252
 1078 004e 43EA0223 		orr	r3, r3, r2, lsl #8
 1079 0052 1BB2     		sxth	r3, r3
 370:Core/Src/main.c **** 	gyro_corr[2] = ((int16_t)(data[4] << 8 | data[5]))/gyro_con;
 1080              		.loc 1 370 52 view .LVU253
 1081 0054 07EE903A 		vmov	s15, r3	@ int
 1082 0058 F8EEE77A 		vcvt.f32.s32	s15, s15
 1083 005c 87EE887A 		vdiv.f32	s14, s15, s16
 370:Core/Src/main.c **** 	gyro_corr[2] = ((int16_t)(data[4] << 8 | data[5]))/gyro_con;
 1084              		.loc 1 370 15 view .LVU254
 1085 0060 84ED017A 		vstr.32	s14, [r4, #4]
 371:Core/Src/main.c **** 
 1086              		.loc 1 371 2 is_stmt 1 view .LVU255
 371:Core/Src/main.c **** 
 1087              		.loc 1 371 32 is_stmt 0 view .LVU256
 1088 0064 9DF81420 		ldrb	r2, [sp, #20]	@ zero_extendqisi2
 371:Core/Src/main.c **** 
 1089              		.loc 1 371 47 view .LVU257
 1090 0068 9DF81530 		ldrb	r3, [sp, #21]	@ zero_extendqisi2
 371:Core/Src/main.c **** 
 1091              		.loc 1 371 18 view .LVU258
 1092 006c 43EA0223 		orr	r3, r3, r2, lsl #8
 1093 0070 1BB2     		sxth	r3, r3
 371:Core/Src/main.c **** 
 1094              		.loc 1 371 52 view .LVU259
 1095 0072 07EE903A 		vmov	s15, r3	@ int
 1096 0076 F8EEE77A 		vcvt.f32.s32	s15, s15
 1097 007a 87EE887A 		vdiv.f32	s14, s15, s16
 371:Core/Src/main.c **** 
 1098              		.loc 1 371 15 view .LVU260
 1099 007e 84ED027A 		vstr.32	s14, [r4, #8]
 373:Core/Src/main.c **** }
 1100              		.loc 1 373 2 is_stmt 1 view .LVU261
 374:Core/Src/main.c **** 
 1101              		.loc 1 374 1 is_stmt 0 view .LVU262
 1102 0082 2046     		mov	r0, r4
 1103 0084 06B0     		add	sp, sp, #24
 1104              	.LCFI32:
 1105              		.cfi_def_cfa_offset 16
 1106              		@ sp needed
 1107 0086 BDEC028B 		vldm	sp!, {d8}
 1108              	.LCFI33:
 1109              		.cfi_restore 80
 1110              		.cfi_restore 81
 1111              		.cfi_def_cfa_offset 8
 1112              	.LVL78:
ARM GAS  C:\Users\samue\AppData\Local\Temp\ccPE45pB.s 			page 35


 374:Core/Src/main.c **** 
 1113              		.loc 1 374 1 view .LVU263
 1114 008a 10BD     		pop	{r4, pc}
 1115              	.LVL79:
 1116              	.L45:
 374:Core/Src/main.c **** 
 1117              		.loc 1 374 1 view .LVU264
 1118              		.align	2
 1119              	.L44:
 1120 008c 00000000 		.word	.LANCHOR0
 1121              		.cfi_endproc
 1122              	.LFE144:
 1124              		.section	.rodata.startup.str1.4,"aMS",%progbits,1
 1125              		.align	2
 1126              	.LC4:
 1127 0000 496E6974 		.ascii	"Initialized\000"
 1127      69616C69 
 1127      7A656400 
 1128              		.section	.text.startup,"ax",%progbits
 1129              		.align	1
 1130              		.global	startup
 1131              		.syntax unified
 1132              		.thumb
 1133              		.thumb_func
 1135              	startup:
 1136              	.LFB134:
 149:Core/Src/main.c **** 	// Initialize everything on startup
 1137              		.loc 1 149 20 is_stmt 1 view -0
 1138              		.cfi_startproc
 1139              		@ args = 0, pretend = 0, frame = 0
 1140              		@ frame_needed = 0, uses_anonymous_args = 0
 1141 0000 70B5     		push	{r4, r5, r6, lr}
 1142              	.LCFI34:
 1143              		.cfi_def_cfa_offset 16
 1144              		.cfi_offset 4, -16
 1145              		.cfi_offset 5, -12
 1146              		.cfi_offset 6, -8
 1147              		.cfi_offset 14, -4
 151:Core/Src/main.c **** 	MPU6050_Init();
 1148              		.loc 1 151 2 view .LVU266
 1149 0002 FFF7FEFF 		bl	lcd_init
 1150              	.LVL80:
 152:Core/Src/main.c **** 
 1151              		.loc 1 152 2 view .LVU267
 1152 0006 FFF7FEFF 		bl	MPU6050_Init
 1153              	.LVL81:
 154:Core/Src/main.c **** 	gyro_corr_p  = MPU6050_read_gyro_raw(GYRO_CONST, MPU6050_ADDR, GYRO_XOUT_H_REG, gyro_corr);
 1154              		.loc 1 154 2 view .LVU268
 154:Core/Src/main.c **** 	gyro_corr_p  = MPU6050_read_gyro_raw(GYRO_CONST, MPU6050_ADDR, GYRO_XOUT_H_REG, gyro_corr);
 1155              		.loc 1 154 17 is_stmt 0 view .LVU269
 1156 000a 124D     		ldr	r5, .L48
 1157 000c 2A46     		mov	r2, r5
 1158 000e 3B21     		movs	r1, #59
 1159 0010 D020     		movs	r0, #208
 1160 0012 9FED110A 		vldr.32	s0, .L48+4
 1161 0016 FFF7FEFF 		bl	MPU6050_read_accel_raw
 1162              	.LVL82:
ARM GAS  C:\Users\samue\AppData\Local\Temp\ccPE45pB.s 			page 36


 154:Core/Src/main.c **** 	gyro_corr_p  = MPU6050_read_gyro_raw(GYRO_CONST, MPU6050_ADDR, GYRO_XOUT_H_REG, gyro_corr);
 1163              		.loc 1 154 15 view .LVU270
 1164 001a 104E     		ldr	r6, .L48+8
 1165 001c 3060     		str	r0, [r6]
 155:Core/Src/main.c **** 
 1166              		.loc 1 155 2 is_stmt 1 view .LVU271
 155:Core/Src/main.c **** 
 1167              		.loc 1 155 17 is_stmt 0 view .LVU272
 1168 001e 104C     		ldr	r4, .L48+12
 1169 0020 2246     		mov	r2, r4
 1170 0022 4321     		movs	r1, #67
 1171 0024 D020     		movs	r0, #208
 1172 0026 9FED0F0A 		vldr.32	s0, .L48+16
 1173 002a FFF7FEFF 		bl	MPU6050_read_gyro_raw
 1174              	.LVL83:
 155:Core/Src/main.c **** 
 1175              		.loc 1 155 15 view .LVU273
 1176 002e 0E4B     		ldr	r3, .L48+20
 1177 0030 1860     		str	r0, [r3]
 157:Core/Src/main.c **** 	accel_corr[1] = accel_corr_p[1];
 1178              		.loc 1 157 2 is_stmt 1 view .LVU274
 157:Core/Src/main.c **** 	accel_corr[1] = accel_corr_p[1];
 1179              		.loc 1 157 30 is_stmt 0 view .LVU275
 1180 0032 3368     		ldr	r3, [r6]
 1181 0034 1A68     		ldr	r2, [r3]	@ float
 157:Core/Src/main.c **** 	accel_corr[1] = accel_corr_p[1];
 1182              		.loc 1 157 16 view .LVU276
 1183 0036 2A60     		str	r2, [r5]	@ float
 158:Core/Src/main.c **** 	accel_corr[2] = accel_corr_p[2];
 1184              		.loc 1 158 2 is_stmt 1 view .LVU277
 158:Core/Src/main.c **** 	accel_corr[2] = accel_corr_p[2];
 1185              		.loc 1 158 16 is_stmt 0 view .LVU278
 1186 0038 5A68     		ldr	r2, [r3, #4]	@ float
 1187 003a 6A60     		str	r2, [r5, #4]	@ float
 159:Core/Src/main.c **** 	gyro_corr[0]  = gyro_corr_p[0];
 1188              		.loc 1 159 2 is_stmt 1 view .LVU279
 159:Core/Src/main.c **** 	gyro_corr[0]  = gyro_corr_p[0];
 1189              		.loc 1 159 16 is_stmt 0 view .LVU280
 1190 003c 9B68     		ldr	r3, [r3, #8]	@ float
 1191 003e AB60     		str	r3, [r5, #8]	@ float
 160:Core/Src/main.c **** 	gyro_corr[1]  = gyro_corr_p[1];
 1192              		.loc 1 160 2 is_stmt 1 view .LVU281
 160:Core/Src/main.c **** 	gyro_corr[1]  = gyro_corr_p[1];
 1193              		.loc 1 160 29 is_stmt 0 view .LVU282
 1194 0040 0368     		ldr	r3, [r0]	@ float
 160:Core/Src/main.c **** 	gyro_corr[1]  = gyro_corr_p[1];
 1195              		.loc 1 160 16 view .LVU283
 1196 0042 2360     		str	r3, [r4]	@ float
 161:Core/Src/main.c **** 	gyro_corr[2]  = gyro_corr_p[2];
 1197              		.loc 1 161 2 is_stmt 1 view .LVU284
 161:Core/Src/main.c **** 	gyro_corr[2]  = gyro_corr_p[2];
 1198              		.loc 1 161 16 is_stmt 0 view .LVU285
 1199 0044 4368     		ldr	r3, [r0, #4]	@ float
 1200 0046 6360     		str	r3, [r4, #4]	@ float
 162:Core/Src/main.c **** 
 1201              		.loc 1 162 2 is_stmt 1 view .LVU286
 162:Core/Src/main.c **** 
ARM GAS  C:\Users\samue\AppData\Local\Temp\ccPE45pB.s 			page 37


 1202              		.loc 1 162 16 is_stmt 0 view .LVU287
 1203 0048 8368     		ldr	r3, [r0, #8]	@ float
 1204 004a A360     		str	r3, [r4, #8]	@ float
 164:Core/Src/main.c **** }
 1205              		.loc 1 164 2 is_stmt 1 view .LVU288
 1206 004c 0748     		ldr	r0, .L48+24
 1207 004e FFF7FEFF 		bl	lcd_send_string
 1208              	.LVL84:
 165:Core/Src/main.c **** 
 1209              		.loc 1 165 1 is_stmt 0 view .LVU289
 1210 0052 70BD     		pop	{r4, r5, r6, pc}
 1211              	.L49:
 1212              		.align	2
 1213              	.L48:
 1214 0054 00000000 		.word	.LANCHOR2
 1215 0058 00008046 		.word	1182793728
 1216 005c 00000000 		.word	.LANCHOR3
 1217 0060 00000000 		.word	.LANCHOR4
 1218 0064 00000343 		.word	1124270080
 1219 0068 00000000 		.word	.LANCHOR5
 1220 006c 00000000 		.word	.LC4
 1221              		.cfi_endproc
 1222              	.LFE134:
 1224              		.section	.rodata.accel_cal.str1.4,"aMS",%progbits,1
 1225              		.align	2
 1226              	.LC5:
 1227 0000 43616C69 		.ascii	"Calibration Complete\000"
 1227      62726174 
 1227      696F6E20 
 1227      436F6D70 
 1227      6C657465 
 1228              		.section	.text.accel_cal,"ax",%progbits
 1229              		.align	1
 1230              		.global	accel_cal
 1231              		.syntax unified
 1232              		.thumb
 1233              		.thumb_func
 1235              	accel_cal:
 1236              	.LFB137:
 247:Core/Src/main.c **** 	// Calibrate the accelerometer
 1237              		.loc 1 247 22 is_stmt 1 view -0
 1238              		.cfi_startproc
 1239              		@ args = 0, pretend = 0, frame = 0
 1240              		@ frame_needed = 0, uses_anonymous_args = 0
 1241 0000 70B5     		push	{r4, r5, r6, lr}
 1242              	.LCFI35:
 1243              		.cfi_def_cfa_offset 16
 1244              		.cfi_offset 4, -16
 1245              		.cfi_offset 5, -12
 1246              		.cfi_offset 6, -8
 1247              		.cfi_offset 14, -4
 249:Core/Src/main.c **** 
 1248              		.loc 1 249 2 view .LVU291
 249:Core/Src/main.c **** 
 1249              		.loc 1 249 7 is_stmt 0 view .LVU292
 1250 0002 164B     		ldr	r3, .L52
 1251 0004 0022     		movs	r2, #0
ARM GAS  C:\Users\samue\AppData\Local\Temp\ccPE45pB.s 			page 38


 1252 0006 1A70     		strb	r2, [r3]
 251:Core/Src/main.c **** 
 1253              		.loc 1 251 2 is_stmt 1 view .LVU293
 1254 0008 FFF7FEFF 		bl	lcd_clear
 1255              	.LVL85:
 253:Core/Src/main.c **** 	gyro_corr_p  = MPU6050_read_gyro_raw(GYRO_CONST, MPU6050_ADDR, GYRO_XOUT_H_REG, gyro_corr);
 1256              		.loc 1 253 2 view .LVU294
 253:Core/Src/main.c **** 	gyro_corr_p  = MPU6050_read_gyro_raw(GYRO_CONST, MPU6050_ADDR, GYRO_XOUT_H_REG, gyro_corr);
 1257              		.loc 1 253 17 is_stmt 0 view .LVU295
 1258 000c 144D     		ldr	r5, .L52+4
 1259 000e 2A46     		mov	r2, r5
 1260 0010 3B21     		movs	r1, #59
 1261 0012 D020     		movs	r0, #208
 1262 0014 9FED130A 		vldr.32	s0, .L52+8
 1263 0018 FFF7FEFF 		bl	MPU6050_read_accel_raw
 1264              	.LVL86:
 253:Core/Src/main.c **** 	gyro_corr_p  = MPU6050_read_gyro_raw(GYRO_CONST, MPU6050_ADDR, GYRO_XOUT_H_REG, gyro_corr);
 1265              		.loc 1 253 15 view .LVU296
 1266 001c 124E     		ldr	r6, .L52+12
 1267 001e 3060     		str	r0, [r6]
 254:Core/Src/main.c **** 
 1268              		.loc 1 254 2 is_stmt 1 view .LVU297
 254:Core/Src/main.c **** 
 1269              		.loc 1 254 17 is_stmt 0 view .LVU298
 1270 0020 124C     		ldr	r4, .L52+16
 1271 0022 2246     		mov	r2, r4
 1272 0024 4321     		movs	r1, #67
 1273 0026 D020     		movs	r0, #208
 1274 0028 9FED110A 		vldr.32	s0, .L52+20
 1275 002c FFF7FEFF 		bl	MPU6050_read_gyro_raw
 1276              	.LVL87:
 254:Core/Src/main.c **** 
 1277              		.loc 1 254 15 view .LVU299
 1278 0030 104B     		ldr	r3, .L52+24
 1279 0032 1860     		str	r0, [r3]
 256:Core/Src/main.c **** 	accel_corr[1] = accel_corr_p[1];
 1280              		.loc 1 256 2 is_stmt 1 view .LVU300
 256:Core/Src/main.c **** 	accel_corr[1] = accel_corr_p[1];
 1281              		.loc 1 256 30 is_stmt 0 view .LVU301
 1282 0034 3368     		ldr	r3, [r6]
 1283 0036 1A68     		ldr	r2, [r3]	@ float
 256:Core/Src/main.c **** 	accel_corr[1] = accel_corr_p[1];
 1284              		.loc 1 256 16 view .LVU302
 1285 0038 2A60     		str	r2, [r5]	@ float
 257:Core/Src/main.c **** 	accel_corr[2] = accel_corr_p[2];
 1286              		.loc 1 257 2 is_stmt 1 view .LVU303
 257:Core/Src/main.c **** 	accel_corr[2] = accel_corr_p[2];
 1287              		.loc 1 257 16 is_stmt 0 view .LVU304
 1288 003a 5A68     		ldr	r2, [r3, #4]	@ float
 1289 003c 6A60     		str	r2, [r5, #4]	@ float
 258:Core/Src/main.c **** 	gyro_corr[0]  = gyro_corr_p[0];
 1290              		.loc 1 258 2 is_stmt 1 view .LVU305
 258:Core/Src/main.c **** 	gyro_corr[0]  = gyro_corr_p[0];
 1291              		.loc 1 258 16 is_stmt 0 view .LVU306
 1292 003e 9B68     		ldr	r3, [r3, #8]	@ float
 1293 0040 AB60     		str	r3, [r5, #8]	@ float
 259:Core/Src/main.c **** 	gyro_corr[1]  = gyro_corr_p[1];
ARM GAS  C:\Users\samue\AppData\Local\Temp\ccPE45pB.s 			page 39


 1294              		.loc 1 259 2 is_stmt 1 view .LVU307
 259:Core/Src/main.c **** 	gyro_corr[1]  = gyro_corr_p[1];
 1295              		.loc 1 259 29 is_stmt 0 view .LVU308
 1296 0042 0368     		ldr	r3, [r0]	@ float
 259:Core/Src/main.c **** 	gyro_corr[1]  = gyro_corr_p[1];
 1297              		.loc 1 259 16 view .LVU309
 1298 0044 2360     		str	r3, [r4]	@ float
 260:Core/Src/main.c **** 	gyro_corr[2]  = gyro_corr_p[2];
 1299              		.loc 1 260 2 is_stmt 1 view .LVU310
 260:Core/Src/main.c **** 	gyro_corr[2]  = gyro_corr_p[2];
 1300              		.loc 1 260 16 is_stmt 0 view .LVU311
 1301 0046 4368     		ldr	r3, [r0, #4]	@ float
 1302 0048 6360     		str	r3, [r4, #4]	@ float
 261:Core/Src/main.c **** 
 1303              		.loc 1 261 2 is_stmt 1 view .LVU312
 261:Core/Src/main.c **** 
 1304              		.loc 1 261 16 is_stmt 0 view .LVU313
 1305 004a 8368     		ldr	r3, [r0, #8]	@ float
 1306 004c A360     		str	r3, [r4, #8]	@ float
 263:Core/Src/main.c **** 	lcd_send_string("Calibration Complete");
 1307              		.loc 1 263 2 is_stmt 1 view .LVU314
 1308 004e 8020     		movs	r0, #128
 1309 0050 FFF7FEFF 		bl	lcd_send_cmd
 1310              	.LVL88:
 264:Core/Src/main.c **** }
 1311              		.loc 1 264 2 view .LVU315
 1312 0054 0848     		ldr	r0, .L52+28
 1313 0056 FFF7FEFF 		bl	lcd_send_string
 1314              	.LVL89:
 265:Core/Src/main.c **** 
 1315              		.loc 1 265 1 is_stmt 0 view .LVU316
 1316 005a 70BD     		pop	{r4, r5, r6, pc}
 1317              	.L53:
 1318              		.align	2
 1319              	.L52:
 1320 005c 00000000 		.word	.LANCHOR1
 1321 0060 00000000 		.word	.LANCHOR2
 1322 0064 00008046 		.word	1182793728
 1323 0068 00000000 		.word	.LANCHOR3
 1324 006c 00000000 		.word	.LANCHOR4
 1325 0070 00000343 		.word	1124270080
 1326 0074 00000000 		.word	.LANCHOR5
 1327 0078 00000000 		.word	.LC5
 1328              		.cfi_endproc
 1329              	.LFE137:
 1331              		.section	.text.MPU6050_read_gyro,"ax",%progbits
 1332              		.align	1
 1333              		.global	MPU6050_read_gyro
 1334              		.syntax unified
 1335              		.thumb
 1336              		.thumb_func
 1338              	MPU6050_read_gyro:
 1339              	.LVL90:
 1340              	.LFB145:
 377:Core/Src/main.c **** 	uint8_t data[6];
 1341              		.loc 1 377 21 is_stmt 1 view -0
 1342              		.cfi_startproc
ARM GAS  C:\Users\samue\AppData\Local\Temp\ccPE45pB.s 			page 40


 1343              		@ args = 0, pretend = 0, frame = 8
 1344              		@ frame_needed = 0, uses_anonymous_args = 0
 377:Core/Src/main.c **** 	uint8_t data[6];
 1345              		.loc 1 377 21 is_stmt 0 view .LVU318
 1346 0000 30B5     		push	{r4, r5, lr}
 1347              	.LCFI36:
 1348              		.cfi_def_cfa_offset 12
 1349              		.cfi_offset 4, -12
 1350              		.cfi_offset 5, -8
 1351              		.cfi_offset 14, -4
 1352 0002 2DED028B 		vpush.64	{d8}
 1353              	.LCFI37:
 1354              		.cfi_def_cfa_offset 20
 1355              		.cfi_offset 80, -20
 1356              		.cfi_offset 81, -16
 1357 0006 87B0     		sub	sp, sp, #28
 1358              	.LCFI38:
 1359              		.cfi_def_cfa_offset 48
 1360 0008 B0EE408A 		vmov.f32	s16, s0
 1361 000c 1446     		mov	r4, r2
 1362 000e 1D46     		mov	r5, r3
 378:Core/Src/main.c **** 
 1363              		.loc 1 378 2 is_stmt 1 view .LVU319
 381:Core/Src/main.c **** 
 1364              		.loc 1 381 2 view .LVU320
 1365 0010 4FF47A73 		mov	r3, #1000
 1366              	.LVL91:
 381:Core/Src/main.c **** 
 1367              		.loc 1 381 2 is_stmt 0 view .LVU321
 1368 0014 0293     		str	r3, [sp, #8]
 1369 0016 0623     		movs	r3, #6
 1370 0018 0193     		str	r3, [sp, #4]
 1371 001a 04AB     		add	r3, sp, #16
 1372 001c 0093     		str	r3, [sp]
 1373 001e 0123     		movs	r3, #1
 1374 0020 0A46     		mov	r2, r1
 1375              	.LVL92:
 381:Core/Src/main.c **** 
 1376              		.loc 1 381 2 view .LVU322
 1377 0022 0146     		mov	r1, r0
 1378              	.LVL93:
 381:Core/Src/main.c **** 
 1379              		.loc 1 381 2 view .LVU323
 1380 0024 2048     		ldr	r0, .L56
 1381              	.LVL94:
 381:Core/Src/main.c **** 
 1382              		.loc 1 381 2 view .LVU324
 1383 0026 FFF7FEFF 		bl	HAL_I2C_Mem_Read
 1384              	.LVL95:
 383:Core/Src/main.c **** 	gyro_data[1] = ((int16_t)(data[2] << 8 | data[3]))/gyro_con - gyro_corr[1];
 1385              		.loc 1 383 2 is_stmt 1 view .LVU325
 383:Core/Src/main.c **** 	gyro_data[1] = ((int16_t)(data[2] << 8 | data[3]))/gyro_con - gyro_corr[1];
 1386              		.loc 1 383 32 is_stmt 0 view .LVU326
 1387 002a 9DF81020 		ldrb	r2, [sp, #16]	@ zero_extendqisi2
 383:Core/Src/main.c **** 	gyro_data[1] = ((int16_t)(data[2] << 8 | data[3]))/gyro_con - gyro_corr[1];
 1388              		.loc 1 383 47 view .LVU327
 1389 002e 9DF81130 		ldrb	r3, [sp, #17]	@ zero_extendqisi2
ARM GAS  C:\Users\samue\AppData\Local\Temp\ccPE45pB.s 			page 41


 383:Core/Src/main.c **** 	gyro_data[1] = ((int16_t)(data[2] << 8 | data[3]))/gyro_con - gyro_corr[1];
 1390              		.loc 1 383 18 view .LVU328
 1391 0032 43EA0223 		orr	r3, r3, r2, lsl #8
 1392 0036 1BB2     		sxth	r3, r3
 383:Core/Src/main.c **** 	gyro_data[1] = ((int16_t)(data[2] << 8 | data[3]))/gyro_con - gyro_corr[1];
 1393              		.loc 1 383 52 view .LVU329
 1394 0038 07EE903A 		vmov	s15, r3	@ int
 1395 003c F8EEE77A 		vcvt.f32.s32	s15, s15
 1396 0040 87EE887A 		vdiv.f32	s14, s15, s16
 383:Core/Src/main.c **** 	gyro_data[1] = ((int16_t)(data[2] << 8 | data[3]))/gyro_con - gyro_corr[1];
 1397              		.loc 1 383 73 view .LVU330
 1398 0044 D5ED007A 		vldr.32	s15, [r5]
 383:Core/Src/main.c **** 	gyro_data[1] = ((int16_t)(data[2] << 8 | data[3]))/gyro_con - gyro_corr[1];
 1399              		.loc 1 383 62 view .LVU331
 1400 0048 77EE677A 		vsub.f32	s15, s14, s15
 383:Core/Src/main.c **** 	gyro_data[1] = ((int16_t)(data[2] << 8 | data[3]))/gyro_con - gyro_corr[1];
 1401              		.loc 1 383 15 view .LVU332
 1402 004c C4ED007A 		vstr.32	s15, [r4]
 384:Core/Src/main.c **** 	gyro_data[2] = ((int16_t)(data[4] << 8 | data[5]))/gyro_con - gyro_corr[2];
 1403              		.loc 1 384 2 is_stmt 1 view .LVU333
 384:Core/Src/main.c **** 	gyro_data[2] = ((int16_t)(data[4] << 8 | data[5]))/gyro_con - gyro_corr[2];
 1404              		.loc 1 384 32 is_stmt 0 view .LVU334
 1405 0050 9DF81230 		ldrb	r3, [sp, #18]	@ zero_extendqisi2
 384:Core/Src/main.c **** 	gyro_data[2] = ((int16_t)(data[4] << 8 | data[5]))/gyro_con - gyro_corr[2];
 1406              		.loc 1 384 47 view .LVU335
 1407 0054 9DF81310 		ldrb	r1, [sp, #19]	@ zero_extendqisi2
 384:Core/Src/main.c **** 	gyro_data[2] = ((int16_t)(data[4] << 8 | data[5]))/gyro_con - gyro_corr[2];
 1408              		.loc 1 384 18 view .LVU336
 1409 0058 41EA0321 		orr	r1, r1, r3, lsl #8
 1410 005c 09B2     		sxth	r1, r1
 384:Core/Src/main.c **** 	gyro_data[2] = ((int16_t)(data[4] << 8 | data[5]))/gyro_con - gyro_corr[2];
 1411              		.loc 1 384 52 view .LVU337
 1412 005e 07EE901A 		vmov	s15, r1	@ int
 1413 0062 F8EEE77A 		vcvt.f32.s32	s15, s15
 1414 0066 87EE887A 		vdiv.f32	s14, s15, s16
 384:Core/Src/main.c **** 	gyro_data[2] = ((int16_t)(data[4] << 8 | data[5]))/gyro_con - gyro_corr[2];
 1415              		.loc 1 384 73 view .LVU338
 1416 006a D5ED017A 		vldr.32	s15, [r5, #4]
 384:Core/Src/main.c **** 	gyro_data[2] = ((int16_t)(data[4] << 8 | data[5]))/gyro_con - gyro_corr[2];
 1417              		.loc 1 384 62 view .LVU339
 1418 006e 77EE677A 		vsub.f32	s15, s14, s15
 384:Core/Src/main.c **** 	gyro_data[2] = ((int16_t)(data[4] << 8 | data[5]))/gyro_con - gyro_corr[2];
 1419              		.loc 1 384 15 view .LVU340
 1420 0072 C4ED017A 		vstr.32	s15, [r4, #4]
 385:Core/Src/main.c **** 
 1421              		.loc 1 385 2 is_stmt 1 view .LVU341
 385:Core/Src/main.c **** 
 1422              		.loc 1 385 32 is_stmt 0 view .LVU342
 1423 0076 9DF81430 		ldrb	r3, [sp, #20]	@ zero_extendqisi2
 385:Core/Src/main.c **** 
 1424              		.loc 1 385 47 view .LVU343
 1425 007a 9DF81510 		ldrb	r1, [sp, #21]	@ zero_extendqisi2
 385:Core/Src/main.c **** 
 1426              		.loc 1 385 18 view .LVU344
 1427 007e 41EA0321 		orr	r1, r1, r3, lsl #8
 1428 0082 09B2     		sxth	r1, r1
 385:Core/Src/main.c **** 
ARM GAS  C:\Users\samue\AppData\Local\Temp\ccPE45pB.s 			page 42


 1429              		.loc 1 385 52 view .LVU345
 1430 0084 07EE901A 		vmov	s15, r1	@ int
 1431 0088 F8EEE77A 		vcvt.f32.s32	s15, s15
 1432 008c 87EE887A 		vdiv.f32	s14, s15, s16
 385:Core/Src/main.c **** 
 1433              		.loc 1 385 73 view .LVU346
 1434 0090 D5ED027A 		vldr.32	s15, [r5, #8]
 385:Core/Src/main.c **** 
 1435              		.loc 1 385 62 view .LVU347
 1436 0094 77EE677A 		vsub.f32	s15, s14, s15
 385:Core/Src/main.c **** 
 1437              		.loc 1 385 15 view .LVU348
 1438 0098 C4ED027A 		vstr.32	s15, [r4, #8]
 387:Core/Src/main.c **** }
 1439              		.loc 1 387 2 is_stmt 1 view .LVU349
 388:Core/Src/main.c **** 
 1440              		.loc 1 388 1 is_stmt 0 view .LVU350
 1441 009c 2046     		mov	r0, r4
 1442 009e 07B0     		add	sp, sp, #28
 1443              	.LCFI39:
 1444              		.cfi_def_cfa_offset 20
 1445              		@ sp needed
 1446 00a0 BDEC028B 		vldm	sp!, {d8}
 1447              	.LCFI40:
 1448              		.cfi_restore 80
 1449              		.cfi_restore 81
 1450              		.cfi_def_cfa_offset 12
 1451              	.LVL96:
 388:Core/Src/main.c **** 
 1452              		.loc 1 388 1 view .LVU351
 1453 00a4 30BD     		pop	{r4, r5, pc}
 1454              	.LVL97:
 1455              	.L57:
 388:Core/Src/main.c **** 
 1456              		.loc 1 388 1 view .LVU352
 1457 00a6 00BF     		.align	2
 1458              	.L56:
 1459 00a8 00000000 		.word	.LANCHOR0
 1460              		.cfi_endproc
 1461              	.LFE145:
 1463              		.section	.rodata.normal.str1.4,"aMS",%progbits,1
 1464              		.align	2
 1465              	.LC6:
 1466 0000 41783D20 		.ascii	"Ax=       \000"
 1466      20202020 
 1466      202000
 1467              		.global	__aeabi_f2d
 1468 000b 00       		.align	2
 1469              	.LC7:
 1470 000c 252E3266 		.ascii	"%.2f\000"
 1470      00
 1471 0011 000000   		.align	2
 1472              	.LC8:
 1473 0014 672000   		.ascii	"g \000"
 1474 0017 00       		.align	2
 1475              	.LC9:
 1476 0018 41793D20 		.ascii	"Ay=       \000"
ARM GAS  C:\Users\samue\AppData\Local\Temp\ccPE45pB.s 			page 43


 1476      20202020 
 1476      202000
 1477 0023 00       		.align	2
 1478              	.LC10:
 1479 0024 417A3D20 		.ascii	"Az=       \000"
 1479      20202020 
 1479      202000
 1480 002f 00       		.align	2
 1481              	.LC11:
 1482 0030 47783D20 		.ascii	"Gx=       \000"
 1482      20202020 
 1482      202000
 1483 003b 00       		.align	2
 1484              	.LC12:
 1485 003c 47793D20 		.ascii	"Gy=       \000"
 1485      20202020 
 1485      202000
 1486 0047 00       		.align	2
 1487              	.LC13:
 1488 0048 477A3D20 		.ascii	"Gz=       \000"
 1488      20202020 
 1488      202000
 1489 0053 00       		.align	2
 1490              	.LC14:
 1491 0054 20202020 		.ascii	"                    \000"
 1491      20202020 
 1491      20202020 
 1491      20202020 
 1491      20202020 
 1492              		.section	.text.normal,"ax",%progbits
 1493              		.align	1
 1494              		.global	normal
 1495              		.syntax unified
 1496              		.thumb
 1497              		.thumb_func
 1499              	normal:
 1500              	.LFB135:
 167:Core/Src/main.c **** 	// Normal run mode
 1501              		.loc 1 167 19 is_stmt 1 view -0
 1502              		.cfi_startproc
 1503              		@ args = 0, pretend = 0, frame = 0
 1504              		@ frame_needed = 0, uses_anonymous_args = 0
 1505 0000 70B5     		push	{r4, r5, r6, lr}
 1506              	.LCFI41:
 1507              		.cfi_def_cfa_offset 16
 1508              		.cfi_offset 4, -16
 1509              		.cfi_offset 5, -12
 1510              		.cfi_offset 6, -8
 1511              		.cfi_offset 14, -4
 169:Core/Src/main.c **** 
 1512              		.loc 1 169 2 view .LVU354
 171:Core/Src/main.c **** 		accel_corr);
 1513              		.loc 1 171 2 view .LVU355
 171:Core/Src/main.c **** 		accel_corr);
 1514              		.loc 1 171 17 is_stmt 0 view .LVU356
 1515 0002 7F4C     		ldr	r4, .L90
 1516 0004 7F4B     		ldr	r3, .L90+4
ARM GAS  C:\Users\samue\AppData\Local\Temp\ccPE45pB.s 			page 44


 1517 0006 2246     		mov	r2, r4
 1518 0008 3B21     		movs	r1, #59
 1519 000a D020     		movs	r0, #208
 1520 000c 9FED7E0A 		vldr.32	s0, .L90+8
 1521 0010 FFF7FEFF 		bl	MPU6050_read_accel
 1522              	.LVL98:
 171:Core/Src/main.c **** 		accel_corr);
 1523              		.loc 1 171 15 view .LVU357
 1524 0014 7D4E     		ldr	r6, .L90+12
 1525 0016 3060     		str	r0, [r6]
 173:Core/Src/main.c **** 		gyro_corr);
 1526              		.loc 1 173 2 is_stmt 1 view .LVU358
 173:Core/Src/main.c **** 		gyro_corr);
 1527              		.loc 1 173 17 is_stmt 0 view .LVU359
 1528 0018 7D4D     		ldr	r5, .L90+16
 1529 001a 7E4B     		ldr	r3, .L90+20
 1530 001c 2A46     		mov	r2, r5
 1531 001e 4321     		movs	r1, #67
 1532 0020 D020     		movs	r0, #208
 1533 0022 9FED7D0A 		vldr.32	s0, .L90+24
 1534 0026 FFF7FEFF 		bl	MPU6050_read_gyro
 1535              	.LVL99:
 173:Core/Src/main.c **** 		gyro_corr);
 1536              		.loc 1 173 15 view .LVU360
 1537 002a 7C4B     		ldr	r3, .L90+28
 1538 002c 1860     		str	r0, [r3]
 176:Core/Src/main.c **** 	accel_data[1] = accel_data_p[1];
 1539              		.loc 1 176 2 is_stmt 1 view .LVU361
 176:Core/Src/main.c **** 	accel_data[1] = accel_data_p[1];
 1540              		.loc 1 176 30 is_stmt 0 view .LVU362
 1541 002e 3368     		ldr	r3, [r6]
 1542 0030 1A68     		ldr	r2, [r3]	@ float
 176:Core/Src/main.c **** 	accel_data[1] = accel_data_p[1];
 1543              		.loc 1 176 16 view .LVU363
 1544 0032 2260     		str	r2, [r4]	@ float
 177:Core/Src/main.c **** 	accel_data[2] = accel_data_p[2];
 1545              		.loc 1 177 2 is_stmt 1 view .LVU364
 177:Core/Src/main.c **** 	accel_data[2] = accel_data_p[2];
 1546              		.loc 1 177 16 is_stmt 0 view .LVU365
 1547 0034 5A68     		ldr	r2, [r3, #4]	@ float
 1548 0036 6260     		str	r2, [r4, #4]	@ float
 178:Core/Src/main.c **** 	gyro_data[0]  = gyro_data_p[0];
 1549              		.loc 1 178 2 is_stmt 1 view .LVU366
 178:Core/Src/main.c **** 	gyro_data[0]  = gyro_data_p[0];
 1550              		.loc 1 178 16 is_stmt 0 view .LVU367
 1551 0038 9B68     		ldr	r3, [r3, #8]	@ float
 1552 003a A360     		str	r3, [r4, #8]	@ float
 179:Core/Src/main.c **** 	gyro_data[1]  = gyro_data_p[1];
 1553              		.loc 1 179 2 is_stmt 1 view .LVU368
 179:Core/Src/main.c **** 	gyro_data[1]  = gyro_data_p[1];
 1554              		.loc 1 179 29 is_stmt 0 view .LVU369
 1555 003c 0368     		ldr	r3, [r0]	@ float
 179:Core/Src/main.c **** 	gyro_data[1]  = gyro_data_p[1];
 1556              		.loc 1 179 16 view .LVU370
 1557 003e 2B60     		str	r3, [r5]	@ float
 180:Core/Src/main.c **** 	gyro_data[2]  = gyro_data_p[2];
 1558              		.loc 1 180 2 is_stmt 1 view .LVU371
ARM GAS  C:\Users\samue\AppData\Local\Temp\ccPE45pB.s 			page 45


 180:Core/Src/main.c **** 	gyro_data[2]  = gyro_data_p[2];
 1559              		.loc 1 180 16 is_stmt 0 view .LVU372
 1560 0040 4368     		ldr	r3, [r0, #4]	@ float
 1561 0042 6B60     		str	r3, [r5, #4]	@ float
 181:Core/Src/main.c **** 
 1562              		.loc 1 181 2 is_stmt 1 view .LVU373
 181:Core/Src/main.c **** 
 1563              		.loc 1 181 16 is_stmt 0 view .LVU374
 1564 0044 8368     		ldr	r3, [r0, #8]	@ float
 1565 0046 AB60     		str	r3, [r5, #8]	@ float
 184:Core/Src/main.c **** 	lcd_send_string("Ax=       ");
 1566              		.loc 1 184 2 is_stmt 1 view .LVU375
 1567 0048 8020     		movs	r0, #128
 1568 004a FFF7FEFF 		bl	lcd_send_cmd
 1569              	.LVL100:
 185:Core/Src/main.c **** 	sprintf(buf, "%.2f", (double)accel_data[0]);
 1570              		.loc 1 185 2 view .LVU376
 1571 004e 7448     		ldr	r0, .L90+32
 1572 0050 FFF7FEFF 		bl	lcd_send_string
 1573              	.LVL101:
 186:Core/Src/main.c **** 	line_pos = (accel_data[0] >= 0) ? (0x04):(0x03);
 1574              		.loc 1 186 2 view .LVU377
 1575 0054 2068     		ldr	r0, [r4]	@ float
 1576 0056 FFF7FEFF 		bl	__aeabi_f2d
 1577              	.LVL102:
 1578 005a 0246     		mov	r2, r0
 1579 005c 0B46     		mov	r3, r1
 1580 005e 7149     		ldr	r1, .L90+36
 1581 0060 7148     		ldr	r0, .L90+40
 1582 0062 FFF7FEFF 		bl	sprintf
 1583              	.LVL103:
 187:Core/Src/main.c **** 	lcd_send_cmd(0x80|line_pos);
 1584              		.loc 1 187 2 view .LVU378
 187:Core/Src/main.c **** 	lcd_send_cmd(0x80|line_pos);
 1585              		.loc 1 187 24 is_stmt 0 view .LVU379
 1586 0066 D4ED007A 		vldr.32	s15, [r4]
 187:Core/Src/main.c **** 	lcd_send_cmd(0x80|line_pos);
 1587              		.loc 1 187 11 view .LVU380
 1588 006a F5EEC07A 		vcmpe.f32	s15, #0
 1589 006e F1EE10FA 		vmrs	APSR_nzcv, FPSCR
 1590 0072 C0F2B980 		blt	.L83
 1591 0076 0420     		movs	r0, #4
 1592              	.L59:
 1593              	.LVL104:
 188:Core/Src/main.c **** 	lcd_send_string(buf);
 1594              		.loc 1 188 2 is_stmt 1 discriminator 4 view .LVU381
 1595 0078 40F08000 		orr	r0, r0, #128
 1596              	.LVL105:
 188:Core/Src/main.c **** 	lcd_send_string(buf);
 1597              		.loc 1 188 2 is_stmt 0 discriminator 4 view .LVU382
 1598 007c FFF7FEFF 		bl	lcd_send_cmd
 1599              	.LVL106:
 189:Core/Src/main.c **** 	lcd_send_string("g ");
 1600              		.loc 1 189 2 is_stmt 1 discriminator 4 view .LVU383
 1601 0080 694D     		ldr	r5, .L90+40
 1602 0082 2846     		mov	r0, r5
 1603 0084 FFF7FEFF 		bl	lcd_send_string
ARM GAS  C:\Users\samue\AppData\Local\Temp\ccPE45pB.s 			page 46


 1604              	.LVL107:
 190:Core/Src/main.c **** 
 1605              		.loc 1 190 2 discriminator 4 view .LVU384
 1606 0088 6848     		ldr	r0, .L90+44
 1607 008a FFF7FEFF 		bl	lcd_send_string
 1608              	.LVL108:
 192:Core/Src/main.c **** 	lcd_send_string("Ay=       ");
 1609              		.loc 1 192 2 discriminator 4 view .LVU385
 1610 008e C020     		movs	r0, #192
 1611 0090 FFF7FEFF 		bl	lcd_send_cmd
 1612              	.LVL109:
 193:Core/Src/main.c **** 	sprintf(buf, "%.2f", (double)accel_data[1]);
 1613              		.loc 1 193 2 discriminator 4 view .LVU386
 1614 0094 6648     		ldr	r0, .L90+48
 1615 0096 FFF7FEFF 		bl	lcd_send_string
 1616              	.LVL110:
 194:Core/Src/main.c **** 	line_pos = (accel_data[1] >= 0) ? (0x44):(0x43);
 1617              		.loc 1 194 2 discriminator 4 view .LVU387
 194:Core/Src/main.c **** 	line_pos = (accel_data[1] >= 0) ? (0x44):(0x43);
 1618              		.loc 1 194 41 is_stmt 0 discriminator 4 view .LVU388
 1619 009a 594C     		ldr	r4, .L90
 194:Core/Src/main.c **** 	line_pos = (accel_data[1] >= 0) ? (0x44):(0x43);
 1620              		.loc 1 194 2 discriminator 4 view .LVU389
 1621 009c 6068     		ldr	r0, [r4, #4]	@ float
 1622 009e FFF7FEFF 		bl	__aeabi_f2d
 1623              	.LVL111:
 1624 00a2 0246     		mov	r2, r0
 1625 00a4 0B46     		mov	r3, r1
 1626 00a6 5F49     		ldr	r1, .L90+36
 1627 00a8 2846     		mov	r0, r5
 1628 00aa FFF7FEFF 		bl	sprintf
 1629              	.LVL112:
 195:Core/Src/main.c **** 	lcd_send_cmd(0x80|line_pos);
 1630              		.loc 1 195 2 is_stmt 1 discriminator 4 view .LVU390
 195:Core/Src/main.c **** 	lcd_send_cmd(0x80|line_pos);
 1631              		.loc 1 195 24 is_stmt 0 discriminator 4 view .LVU391
 1632 00ae D4ED017A 		vldr.32	s15, [r4, #4]
 195:Core/Src/main.c **** 	lcd_send_cmd(0x80|line_pos);
 1633              		.loc 1 195 11 discriminator 4 view .LVU392
 1634 00b2 F5EEC07A 		vcmpe.f32	s15, #0
 1635 00b6 F1EE10FA 		vmrs	APSR_nzcv, FPSCR
 1636 00ba C0F29780 		blt	.L84
 195:Core/Src/main.c **** 	lcd_send_cmd(0x80|line_pos);
 1637              		.loc 1 195 11 view .LVU393
 1638 00be 4420     		movs	r0, #68
 1639              	.L61:
 1640              	.LVL113:
 196:Core/Src/main.c **** 	lcd_send_string(buf);
 1641              		.loc 1 196 2 is_stmt 1 discriminator 4 view .LVU394
 1642 00c0 40F08000 		orr	r0, r0, #128
 1643              	.LVL114:
 196:Core/Src/main.c **** 	lcd_send_string(buf);
 1644              		.loc 1 196 2 is_stmt 0 discriminator 4 view .LVU395
 1645 00c4 FFF7FEFF 		bl	lcd_send_cmd
 1646              	.LVL115:
 197:Core/Src/main.c **** 	lcd_send_string("g ");
 1647              		.loc 1 197 2 is_stmt 1 discriminator 4 view .LVU396
ARM GAS  C:\Users\samue\AppData\Local\Temp\ccPE45pB.s 			page 47


 1648 00c8 574D     		ldr	r5, .L90+40
 1649 00ca 2846     		mov	r0, r5
 1650 00cc FFF7FEFF 		bl	lcd_send_string
 1651              	.LVL116:
 198:Core/Src/main.c **** 
 1652              		.loc 1 198 2 discriminator 4 view .LVU397
 1653 00d0 5648     		ldr	r0, .L90+44
 1654 00d2 FFF7FEFF 		bl	lcd_send_string
 1655              	.LVL117:
 200:Core/Src/main.c **** 	lcd_send_string("Az=       ");
 1656              		.loc 1 200 2 discriminator 4 view .LVU398
 1657 00d6 9420     		movs	r0, #148
 1658 00d8 FFF7FEFF 		bl	lcd_send_cmd
 1659              	.LVL118:
 201:Core/Src/main.c **** 	sprintf(buf, "%.2f", (double)accel_data[2]);
 1660              		.loc 1 201 2 discriminator 4 view .LVU399
 1661 00dc 5548     		ldr	r0, .L90+52
 1662 00de FFF7FEFF 		bl	lcd_send_string
 1663              	.LVL119:
 202:Core/Src/main.c **** 	line_pos = (accel_data[2] >= 0) ? (0x18):(0x17);
 1664              		.loc 1 202 2 discriminator 4 view .LVU400
 202:Core/Src/main.c **** 	line_pos = (accel_data[2] >= 0) ? (0x18):(0x17);
 1665              		.loc 1 202 41 is_stmt 0 discriminator 4 view .LVU401
 1666 00e2 474C     		ldr	r4, .L90
 202:Core/Src/main.c **** 	line_pos = (accel_data[2] >= 0) ? (0x18):(0x17);
 1667              		.loc 1 202 2 discriminator 4 view .LVU402
 1668 00e4 A068     		ldr	r0, [r4, #8]	@ float
 1669 00e6 FFF7FEFF 		bl	__aeabi_f2d
 1670              	.LVL120:
 1671 00ea 0246     		mov	r2, r0
 1672 00ec 0B46     		mov	r3, r1
 1673 00ee 4D49     		ldr	r1, .L90+36
 1674 00f0 2846     		mov	r0, r5
 1675 00f2 FFF7FEFF 		bl	sprintf
 1676              	.LVL121:
 203:Core/Src/main.c **** 	lcd_send_cmd(0x80|line_pos);
 1677              		.loc 1 203 2 is_stmt 1 discriminator 4 view .LVU403
 203:Core/Src/main.c **** 	lcd_send_cmd(0x80|line_pos);
 1678              		.loc 1 203 24 is_stmt 0 discriminator 4 view .LVU404
 1679 00f6 D4ED027A 		vldr.32	s15, [r4, #8]
 203:Core/Src/main.c **** 	lcd_send_cmd(0x80|line_pos);
 1680              		.loc 1 203 11 discriminator 4 view .LVU405
 1681 00fa F5EEC07A 		vcmpe.f32	s15, #0
 1682 00fe F1EE10FA 		vmrs	APSR_nzcv, FPSCR
 1683 0102 75DB     		blt	.L85
 203:Core/Src/main.c **** 	lcd_send_cmd(0x80|line_pos);
 1684              		.loc 1 203 11 view .LVU406
 1685 0104 1820     		movs	r0, #24
 1686              	.L63:
 1687              	.LVL122:
 204:Core/Src/main.c **** 	lcd_send_string(buf);
 1688              		.loc 1 204 2 is_stmt 1 discriminator 4 view .LVU407
 1689 0106 40F08000 		orr	r0, r0, #128
 1690              	.LVL123:
 204:Core/Src/main.c **** 	lcd_send_string(buf);
 1691              		.loc 1 204 2 is_stmt 0 discriminator 4 view .LVU408
 1692 010a FFF7FEFF 		bl	lcd_send_cmd
ARM GAS  C:\Users\samue\AppData\Local\Temp\ccPE45pB.s 			page 48


 1693              	.LVL124:
 205:Core/Src/main.c **** 	lcd_send_string("g ");
 1694              		.loc 1 205 2 is_stmt 1 discriminator 4 view .LVU409
 1695 010e 464D     		ldr	r5, .L90+40
 1696 0110 2846     		mov	r0, r5
 1697 0112 FFF7FEFF 		bl	lcd_send_string
 1698              	.LVL125:
 206:Core/Src/main.c **** 
 1699              		.loc 1 206 2 discriminator 4 view .LVU410
 1700 0116 4548     		ldr	r0, .L90+44
 1701 0118 FFF7FEFF 		bl	lcd_send_string
 1702              	.LVL126:
 208:Core/Src/main.c **** 	lcd_send_string("Gx=       ");
 1703              		.loc 1 208 2 discriminator 4 view .LVU411
 1704 011c 8A20     		movs	r0, #138
 1705 011e FFF7FEFF 		bl	lcd_send_cmd
 1706              	.LVL127:
 209:Core/Src/main.c **** 	sprintf(buf, "%.2f", (double)gyro_data[0]);
 1707              		.loc 1 209 2 discriminator 4 view .LVU412
 1708 0122 4548     		ldr	r0, .L90+56
 1709 0124 FFF7FEFF 		bl	lcd_send_string
 1710              	.LVL128:
 210:Core/Src/main.c **** 	line_pos = (gyro_data[0] >= 0) ? (0x0E):(0x0D);
 1711              		.loc 1 210 2 discriminator 4 view .LVU413
 210:Core/Src/main.c **** 	line_pos = (gyro_data[0] >= 0) ? (0x0E):(0x0D);
 1712              		.loc 1 210 40 is_stmt 0 discriminator 4 view .LVU414
 1713 0128 394C     		ldr	r4, .L90+16
 210:Core/Src/main.c **** 	line_pos = (gyro_data[0] >= 0) ? (0x0E):(0x0D);
 1714              		.loc 1 210 2 discriminator 4 view .LVU415
 1715 012a 2068     		ldr	r0, [r4]	@ float
 1716 012c FFF7FEFF 		bl	__aeabi_f2d
 1717              	.LVL129:
 1718 0130 0246     		mov	r2, r0
 1719 0132 0B46     		mov	r3, r1
 1720 0134 3B49     		ldr	r1, .L90+36
 1721 0136 2846     		mov	r0, r5
 1722 0138 FFF7FEFF 		bl	sprintf
 1723              	.LVL130:
 211:Core/Src/main.c **** 	lcd_send_cmd(0x80|line_pos);
 1724              		.loc 1 211 2 is_stmt 1 discriminator 4 view .LVU416
 211:Core/Src/main.c **** 	lcd_send_cmd(0x80|line_pos);
 1725              		.loc 1 211 23 is_stmt 0 discriminator 4 view .LVU417
 1726 013c D4ED007A 		vldr.32	s15, [r4]
 211:Core/Src/main.c **** 	lcd_send_cmd(0x80|line_pos);
 1727              		.loc 1 211 11 discriminator 4 view .LVU418
 1728 0140 F5EEC07A 		vcmpe.f32	s15, #0
 1729 0144 F1EE10FA 		vmrs	APSR_nzcv, FPSCR
 1730 0148 54DB     		blt	.L86
 211:Core/Src/main.c **** 	lcd_send_cmd(0x80|line_pos);
 1731              		.loc 1 211 11 view .LVU419
 1732 014a 0E20     		movs	r0, #14
 1733              	.L65:
 1734              	.LVL131:
 212:Core/Src/main.c **** 	lcd_send_string(buf);
 1735              		.loc 1 212 2 is_stmt 1 discriminator 4 view .LVU420
 1736 014c 40F08000 		orr	r0, r0, #128
 1737              	.LVL132:
ARM GAS  C:\Users\samue\AppData\Local\Temp\ccPE45pB.s 			page 49


 212:Core/Src/main.c **** 	lcd_send_string(buf);
 1738              		.loc 1 212 2 is_stmt 0 discriminator 4 view .LVU421
 1739 0150 FFF7FEFF 		bl	lcd_send_cmd
 1740              	.LVL133:
 213:Core/Src/main.c **** 
 1741              		.loc 1 213 2 is_stmt 1 discriminator 4 view .LVU422
 1742 0154 344D     		ldr	r5, .L90+40
 1743 0156 2846     		mov	r0, r5
 1744 0158 FFF7FEFF 		bl	lcd_send_string
 1745              	.LVL134:
 215:Core/Src/main.c **** 	lcd_send_string("Gy=       ");
 1746              		.loc 1 215 2 discriminator 4 view .LVU423
 1747 015c CA20     		movs	r0, #202
 1748 015e FFF7FEFF 		bl	lcd_send_cmd
 1749              	.LVL135:
 216:Core/Src/main.c **** 	sprintf(buf, "%.2f", (double)gyro_data[1]);
 1750              		.loc 1 216 2 discriminator 4 view .LVU424
 1751 0162 3648     		ldr	r0, .L90+60
 1752 0164 FFF7FEFF 		bl	lcd_send_string
 1753              	.LVL136:
 217:Core/Src/main.c **** 	line_pos = (gyro_data[1] >= 0) ? (0x4E):(0x4D);
 1754              		.loc 1 217 2 discriminator 4 view .LVU425
 217:Core/Src/main.c **** 	line_pos = (gyro_data[1] >= 0) ? (0x4E):(0x4D);
 1755              		.loc 1 217 40 is_stmt 0 discriminator 4 view .LVU426
 1756 0168 294C     		ldr	r4, .L90+16
 217:Core/Src/main.c **** 	line_pos = (gyro_data[1] >= 0) ? (0x4E):(0x4D);
 1757              		.loc 1 217 2 discriminator 4 view .LVU427
 1758 016a 6068     		ldr	r0, [r4, #4]	@ float
 1759 016c FFF7FEFF 		bl	__aeabi_f2d
 1760              	.LVL137:
 1761 0170 0246     		mov	r2, r0
 1762 0172 0B46     		mov	r3, r1
 1763 0174 2B49     		ldr	r1, .L90+36
 1764 0176 2846     		mov	r0, r5
 1765 0178 FFF7FEFF 		bl	sprintf
 1766              	.LVL138:
 218:Core/Src/main.c **** 	lcd_send_cmd(0x80|line_pos);
 1767              		.loc 1 218 2 is_stmt 1 discriminator 4 view .LVU428
 218:Core/Src/main.c **** 	lcd_send_cmd(0x80|line_pos);
 1768              		.loc 1 218 23 is_stmt 0 discriminator 4 view .LVU429
 1769 017c D4ED017A 		vldr.32	s15, [r4, #4]
 218:Core/Src/main.c **** 	lcd_send_cmd(0x80|line_pos);
 1770              		.loc 1 218 11 discriminator 4 view .LVU430
 1771 0180 F5EEC07A 		vcmpe.f32	s15, #0
 1772 0184 F1EE10FA 		vmrs	APSR_nzcv, FPSCR
 1773 0188 36DB     		blt	.L87
 218:Core/Src/main.c **** 	lcd_send_cmd(0x80|line_pos);
 1774              		.loc 1 218 11 view .LVU431
 1775 018a 4E20     		movs	r0, #78
 1776              	.L67:
 1777              	.LVL139:
 219:Core/Src/main.c **** 	lcd_send_string(buf);
 1778              		.loc 1 219 2 is_stmt 1 discriminator 4 view .LVU432
 1779 018c 40F08000 		orr	r0, r0, #128
 1780              	.LVL140:
 219:Core/Src/main.c **** 	lcd_send_string(buf);
 1781              		.loc 1 219 2 is_stmt 0 discriminator 4 view .LVU433
ARM GAS  C:\Users\samue\AppData\Local\Temp\ccPE45pB.s 			page 50


 1782 0190 FFF7FEFF 		bl	lcd_send_cmd
 1783              	.LVL141:
 220:Core/Src/main.c **** 
 1784              		.loc 1 220 2 is_stmt 1 discriminator 4 view .LVU434
 1785 0194 244D     		ldr	r5, .L90+40
 1786 0196 2846     		mov	r0, r5
 1787 0198 FFF7FEFF 		bl	lcd_send_string
 1788              	.LVL142:
 222:Core/Src/main.c **** 	lcd_send_string("Gz=       ");
 1789              		.loc 1 222 2 discriminator 4 view .LVU435
 1790 019c 9E20     		movs	r0, #158
 1791 019e FFF7FEFF 		bl	lcd_send_cmd
 1792              	.LVL143:
 223:Core/Src/main.c **** 	sprintf(buf, "%.2f", (double)gyro_data[2]);
 1793              		.loc 1 223 2 discriminator 4 view .LVU436
 1794 01a2 2748     		ldr	r0, .L90+64
 1795 01a4 FFF7FEFF 		bl	lcd_send_string
 1796              	.LVL144:
 224:Core/Src/main.c **** 	line_pos = (gyro_data[2] >= 0) ? (0x22):(0x21);
 1797              		.loc 1 224 2 discriminator 4 view .LVU437
 224:Core/Src/main.c **** 	line_pos = (gyro_data[2] >= 0) ? (0x22):(0x21);
 1798              		.loc 1 224 40 is_stmt 0 discriminator 4 view .LVU438
 1799 01a8 194C     		ldr	r4, .L90+16
 224:Core/Src/main.c **** 	line_pos = (gyro_data[2] >= 0) ? (0x22):(0x21);
 1800              		.loc 1 224 2 discriminator 4 view .LVU439
 1801 01aa A068     		ldr	r0, [r4, #8]	@ float
 1802 01ac FFF7FEFF 		bl	__aeabi_f2d
 1803              	.LVL145:
 1804 01b0 0246     		mov	r2, r0
 1805 01b2 0B46     		mov	r3, r1
 1806 01b4 1B49     		ldr	r1, .L90+36
 1807 01b6 2846     		mov	r0, r5
 1808 01b8 FFF7FEFF 		bl	sprintf
 1809              	.LVL146:
 225:Core/Src/main.c **** 	lcd_send_cmd(0x80|line_pos);
 1810              		.loc 1 225 2 is_stmt 1 discriminator 4 view .LVU440
 225:Core/Src/main.c **** 	lcd_send_cmd(0x80|line_pos);
 1811              		.loc 1 225 23 is_stmt 0 discriminator 4 view .LVU441
 1812 01bc D4ED027A 		vldr.32	s15, [r4, #8]
 225:Core/Src/main.c **** 	lcd_send_cmd(0x80|line_pos);
 1813              		.loc 1 225 11 discriminator 4 view .LVU442
 1814 01c0 F5EEC07A 		vcmpe.f32	s15, #0
 1815 01c4 F1EE10FA 		vmrs	APSR_nzcv, FPSCR
 1816 01c8 18DB     		blt	.L88
 225:Core/Src/main.c **** 	lcd_send_cmd(0x80|line_pos);
 1817              		.loc 1 225 11 view .LVU443
 1818 01ca 2220     		movs	r0, #34
 1819              	.L69:
 1820              	.LVL147:
 226:Core/Src/main.c **** 	lcd_send_string(buf);
 1821              		.loc 1 226 2 is_stmt 1 discriminator 4 view .LVU444
 1822 01cc 40F08000 		orr	r0, r0, #128
 1823              	.LVL148:
 226:Core/Src/main.c **** 	lcd_send_string(buf);
 1824              		.loc 1 226 2 is_stmt 0 discriminator 4 view .LVU445
 1825 01d0 FFF7FEFF 		bl	lcd_send_cmd
 1826              	.LVL149:
ARM GAS  C:\Users\samue\AppData\Local\Temp\ccPE45pB.s 			page 51


 227:Core/Src/main.c **** 
 1827              		.loc 1 227 2 is_stmt 1 discriminator 4 view .LVU446
 1828 01d4 1448     		ldr	r0, .L90+40
 1829 01d6 FFF7FEFF 		bl	lcd_send_string
 1830              	.LVL150:
 229:Core/Src/main.c **** 	lcd_send_string("                    ");
 1831              		.loc 1 229 2 discriminator 4 view .LVU447
 1832 01da D420     		movs	r0, #212
 1833 01dc FFF7FEFF 		bl	lcd_send_cmd
 1834              	.LVL151:
 230:Core/Src/main.c **** }
 1835              		.loc 1 230 2 discriminator 4 view .LVU448
 1836 01e0 1848     		ldr	r0, .L90+68
 1837 01e2 FFF7FEFF 		bl	lcd_send_string
 1838              	.LVL152:
 231:Core/Src/main.c **** 
 1839              		.loc 1 231 1 is_stmt 0 discriminator 4 view .LVU449
 1840 01e6 70BD     		pop	{r4, r5, r6, pc}
 1841              	.L83:
 187:Core/Src/main.c **** 	lcd_send_cmd(0x80|line_pos);
 1842              		.loc 1 187 11 view .LVU450
 1843 01e8 0320     		movs	r0, #3
 1844 01ea 45E7     		b	.L59
 1845              	.L84:
 195:Core/Src/main.c **** 	lcd_send_cmd(0x80|line_pos);
 1846              		.loc 1 195 11 view .LVU451
 1847 01ec 4320     		movs	r0, #67
 1848 01ee 67E7     		b	.L61
 1849              	.L85:
 203:Core/Src/main.c **** 	lcd_send_cmd(0x80|line_pos);
 1850              		.loc 1 203 11 view .LVU452
 1851 01f0 1720     		movs	r0, #23
 1852 01f2 88E7     		b	.L63
 1853              	.L86:
 211:Core/Src/main.c **** 	lcd_send_cmd(0x80|line_pos);
 1854              		.loc 1 211 11 view .LVU453
 1855 01f4 0D20     		movs	r0, #13
 1856 01f6 A9E7     		b	.L65
 1857              	.L87:
 218:Core/Src/main.c **** 	lcd_send_cmd(0x80|line_pos);
 1858              		.loc 1 218 11 view .LVU454
 1859 01f8 4D20     		movs	r0, #77
 1860 01fa C7E7     		b	.L67
 1861              	.L88:
 225:Core/Src/main.c **** 	lcd_send_cmd(0x80|line_pos);
 1862              		.loc 1 225 11 view .LVU455
 1863 01fc 2120     		movs	r0, #33
 1864 01fe E5E7     		b	.L69
 1865              	.L91:
 1866              		.align	2
 1867              	.L90:
 1868 0200 00000000 		.word	.LANCHOR6
 1869 0204 00000000 		.word	.LANCHOR2
 1870 0208 00008046 		.word	1182793728
 1871 020c 00000000 		.word	.LANCHOR7
 1872 0210 00000000 		.word	.LANCHOR8
 1873 0214 00000000 		.word	.LANCHOR4
ARM GAS  C:\Users\samue\AppData\Local\Temp\ccPE45pB.s 			page 52


 1874 0218 00000343 		.word	1124270080
 1875 021c 00000000 		.word	.LANCHOR9
 1876 0220 00000000 		.word	.LC6
 1877 0224 0C000000 		.word	.LC7
 1878 0228 00000000 		.word	.LANCHOR10
 1879 022c 14000000 		.word	.LC8
 1880 0230 18000000 		.word	.LC9
 1881 0234 24000000 		.word	.LC10
 1882 0238 30000000 		.word	.LC11
 1883 023c 3C000000 		.word	.LC12
 1884 0240 48000000 		.word	.LC13
 1885 0244 54000000 		.word	.LC14
 1886              		.cfi_endproc
 1887              	.LFE135:
 1889              		.section	.text.HAL_GPIO_EXTI_Callback,"ax",%progbits
 1890              		.align	1
 1891              		.global	HAL_GPIO_EXTI_Callback
 1892              		.syntax unified
 1893              		.thumb
 1894              		.thumb_func
 1896              	HAL_GPIO_EXTI_Callback:
 1897              	.LVL153:
 1898              	.LFB146:
 392:Core/Src/main.c **** 	flag = 1;
 1899              		.loc 1 392 48 is_stmt 1 view -0
 1900              		.cfi_startproc
 1901              		@ args = 0, pretend = 0, frame = 0
 1902              		@ frame_needed = 0, uses_anonymous_args = 0
 1903              		@ link register save eliminated.
 393:Core/Src/main.c **** }
 1904              		.loc 1 393 2 view .LVU457
 393:Core/Src/main.c **** }
 1905              		.loc 1 393 7 is_stmt 0 view .LVU458
 1906 0000 014B     		ldr	r3, .L93
 1907 0002 0122     		movs	r2, #1
 1908 0004 1A70     		strb	r2, [r3]
 394:Core/Src/main.c **** 
 1909              		.loc 1 394 1 view .LVU459
 1910 0006 7047     		bx	lr
 1911              	.L94:
 1912              		.align	2
 1913              	.L93:
 1914 0008 00000000 		.word	.LANCHOR1
 1915              		.cfi_endproc
 1916              	.LFE146:
 1918              		.section	.text.Error_Handler,"ax",%progbits
 1919              		.align	1
 1920              		.global	Error_Handler
 1921              		.syntax unified
 1922              		.thumb
 1923              		.thumb_func
 1925              	Error_Handler:
 1926              	.LFB153:
 626:Core/Src/main.c **** 
 627:Core/Src/main.c **** /* USER CODE BEGIN 4 */
 628:Core/Src/main.c **** 
 629:Core/Src/main.c **** /* USER CODE END 4 */
ARM GAS  C:\Users\samue\AppData\Local\Temp\ccPE45pB.s 			page 53


 630:Core/Src/main.c **** 
 631:Core/Src/main.c **** /**
 632:Core/Src/main.c ****   * @brief  This function is executed in case of error occurrence.
 633:Core/Src/main.c ****   * @retval None
 634:Core/Src/main.c ****   */
 635:Core/Src/main.c **** void Error_Handler(void)
 636:Core/Src/main.c **** {
 1927              		.loc 1 636 1 is_stmt 1 view -0
 1928              		.cfi_startproc
 1929              		@ Volatile: function does not return.
 1930              		@ args = 0, pretend = 0, frame = 0
 1931              		@ frame_needed = 0, uses_anonymous_args = 0
 1932              		@ link register save eliminated.
 637:Core/Src/main.c ****   /* USER CODE BEGIN Error_Handler_Debug */
 638:Core/Src/main.c ****   /* User can add his own implementation to report the HAL error return state */
 639:Core/Src/main.c ****   __disable_irq();
 1933              		.loc 1 639 3 view .LVU461
 1934              	.LBB9:
 1935              	.LBI9:
 1936              		.file 2 "Drivers/CMSIS/Include/cmsis_gcc.h"
   1:Drivers/CMSIS/Include/cmsis_gcc.h **** /**************************************************************************//**
   2:Drivers/CMSIS/Include/cmsis_gcc.h ****  * @file     cmsis_gcc.h
   3:Drivers/CMSIS/Include/cmsis_gcc.h ****  * @brief    CMSIS compiler GCC header file
   4:Drivers/CMSIS/Include/cmsis_gcc.h ****  * @version  V5.0.4
   5:Drivers/CMSIS/Include/cmsis_gcc.h ****  * @date     09. April 2018
   6:Drivers/CMSIS/Include/cmsis_gcc.h ****  ******************************************************************************/
   7:Drivers/CMSIS/Include/cmsis_gcc.h **** /*
   8:Drivers/CMSIS/Include/cmsis_gcc.h ****  * Copyright (c) 2009-2018 Arm Limited. All rights reserved.
   9:Drivers/CMSIS/Include/cmsis_gcc.h ****  *
  10:Drivers/CMSIS/Include/cmsis_gcc.h ****  * SPDX-License-Identifier: Apache-2.0
  11:Drivers/CMSIS/Include/cmsis_gcc.h ****  *
  12:Drivers/CMSIS/Include/cmsis_gcc.h ****  * Licensed under the Apache License, Version 2.0 (the License); you may
  13:Drivers/CMSIS/Include/cmsis_gcc.h ****  * not use this file except in compliance with the License.
  14:Drivers/CMSIS/Include/cmsis_gcc.h ****  * You may obtain a copy of the License at
  15:Drivers/CMSIS/Include/cmsis_gcc.h ****  *
  16:Drivers/CMSIS/Include/cmsis_gcc.h ****  * www.apache.org/licenses/LICENSE-2.0
  17:Drivers/CMSIS/Include/cmsis_gcc.h ****  *
  18:Drivers/CMSIS/Include/cmsis_gcc.h ****  * Unless required by applicable law or agreed to in writing, software
  19:Drivers/CMSIS/Include/cmsis_gcc.h ****  * distributed under the License is distributed on an AS IS BASIS, WITHOUT
  20:Drivers/CMSIS/Include/cmsis_gcc.h ****  * WARRANTIES OR CONDITIONS OF ANY KIND, either express or implied.
  21:Drivers/CMSIS/Include/cmsis_gcc.h ****  * See the License for the specific language governing permissions and
  22:Drivers/CMSIS/Include/cmsis_gcc.h ****  * limitations under the License.
  23:Drivers/CMSIS/Include/cmsis_gcc.h ****  */
  24:Drivers/CMSIS/Include/cmsis_gcc.h **** 
  25:Drivers/CMSIS/Include/cmsis_gcc.h **** #ifndef __CMSIS_GCC_H
  26:Drivers/CMSIS/Include/cmsis_gcc.h **** #define __CMSIS_GCC_H
  27:Drivers/CMSIS/Include/cmsis_gcc.h **** 
  28:Drivers/CMSIS/Include/cmsis_gcc.h **** /* ignore some GCC warnings */
  29:Drivers/CMSIS/Include/cmsis_gcc.h **** #pragma GCC diagnostic push
  30:Drivers/CMSIS/Include/cmsis_gcc.h **** #pragma GCC diagnostic ignored "-Wsign-conversion"
  31:Drivers/CMSIS/Include/cmsis_gcc.h **** #pragma GCC diagnostic ignored "-Wconversion"
  32:Drivers/CMSIS/Include/cmsis_gcc.h **** #pragma GCC diagnostic ignored "-Wunused-parameter"
  33:Drivers/CMSIS/Include/cmsis_gcc.h **** 
  34:Drivers/CMSIS/Include/cmsis_gcc.h **** /* Fallback for __has_builtin */
  35:Drivers/CMSIS/Include/cmsis_gcc.h **** #ifndef __has_builtin
  36:Drivers/CMSIS/Include/cmsis_gcc.h ****   #define __has_builtin(x) (0)
  37:Drivers/CMSIS/Include/cmsis_gcc.h **** #endif
ARM GAS  C:\Users\samue\AppData\Local\Temp\ccPE45pB.s 			page 54


  38:Drivers/CMSIS/Include/cmsis_gcc.h **** 
  39:Drivers/CMSIS/Include/cmsis_gcc.h **** /* CMSIS compiler specific defines */
  40:Drivers/CMSIS/Include/cmsis_gcc.h **** #ifndef   __ASM
  41:Drivers/CMSIS/Include/cmsis_gcc.h ****   #define __ASM                                  __asm
  42:Drivers/CMSIS/Include/cmsis_gcc.h **** #endif
  43:Drivers/CMSIS/Include/cmsis_gcc.h **** #ifndef   __INLINE
  44:Drivers/CMSIS/Include/cmsis_gcc.h ****   #define __INLINE                               inline
  45:Drivers/CMSIS/Include/cmsis_gcc.h **** #endif
  46:Drivers/CMSIS/Include/cmsis_gcc.h **** #ifndef   __STATIC_INLINE
  47:Drivers/CMSIS/Include/cmsis_gcc.h ****   #define __STATIC_INLINE                        static inline
  48:Drivers/CMSIS/Include/cmsis_gcc.h **** #endif
  49:Drivers/CMSIS/Include/cmsis_gcc.h **** #ifndef   __STATIC_FORCEINLINE                 
  50:Drivers/CMSIS/Include/cmsis_gcc.h ****   #define __STATIC_FORCEINLINE                   __attribute__((always_inline)) static inline
  51:Drivers/CMSIS/Include/cmsis_gcc.h **** #endif                                           
  52:Drivers/CMSIS/Include/cmsis_gcc.h **** #ifndef   __NO_RETURN
  53:Drivers/CMSIS/Include/cmsis_gcc.h ****   #define __NO_RETURN                            __attribute__((__noreturn__))
  54:Drivers/CMSIS/Include/cmsis_gcc.h **** #endif
  55:Drivers/CMSIS/Include/cmsis_gcc.h **** #ifndef   __USED
  56:Drivers/CMSIS/Include/cmsis_gcc.h ****   #define __USED                                 __attribute__((used))
  57:Drivers/CMSIS/Include/cmsis_gcc.h **** #endif
  58:Drivers/CMSIS/Include/cmsis_gcc.h **** #ifndef   __WEAK
  59:Drivers/CMSIS/Include/cmsis_gcc.h ****   #define __WEAK                                 __attribute__((weak))
  60:Drivers/CMSIS/Include/cmsis_gcc.h **** #endif
  61:Drivers/CMSIS/Include/cmsis_gcc.h **** #ifndef   __PACKED
  62:Drivers/CMSIS/Include/cmsis_gcc.h ****   #define __PACKED                               __attribute__((packed, aligned(1)))
  63:Drivers/CMSIS/Include/cmsis_gcc.h **** #endif
  64:Drivers/CMSIS/Include/cmsis_gcc.h **** #ifndef   __PACKED_STRUCT
  65:Drivers/CMSIS/Include/cmsis_gcc.h ****   #define __PACKED_STRUCT                        struct __attribute__((packed, aligned(1)))
  66:Drivers/CMSIS/Include/cmsis_gcc.h **** #endif
  67:Drivers/CMSIS/Include/cmsis_gcc.h **** #ifndef   __PACKED_UNION
  68:Drivers/CMSIS/Include/cmsis_gcc.h ****   #define __PACKED_UNION                         union __attribute__((packed, aligned(1)))
  69:Drivers/CMSIS/Include/cmsis_gcc.h **** #endif
  70:Drivers/CMSIS/Include/cmsis_gcc.h **** #ifndef   __UNALIGNED_UINT32        /* deprecated */
  71:Drivers/CMSIS/Include/cmsis_gcc.h ****   #pragma GCC diagnostic push
  72:Drivers/CMSIS/Include/cmsis_gcc.h ****   #pragma GCC diagnostic ignored "-Wpacked"
  73:Drivers/CMSIS/Include/cmsis_gcc.h ****   #pragma GCC diagnostic ignored "-Wattributes"
  74:Drivers/CMSIS/Include/cmsis_gcc.h ****   struct __attribute__((packed)) T_UINT32 { uint32_t v; };
  75:Drivers/CMSIS/Include/cmsis_gcc.h ****   #pragma GCC diagnostic pop
  76:Drivers/CMSIS/Include/cmsis_gcc.h ****   #define __UNALIGNED_UINT32(x)                  (((struct T_UINT32 *)(x))->v)
  77:Drivers/CMSIS/Include/cmsis_gcc.h **** #endif
  78:Drivers/CMSIS/Include/cmsis_gcc.h **** #ifndef   __UNALIGNED_UINT16_WRITE
  79:Drivers/CMSIS/Include/cmsis_gcc.h ****   #pragma GCC diagnostic push
  80:Drivers/CMSIS/Include/cmsis_gcc.h ****   #pragma GCC diagnostic ignored "-Wpacked"
  81:Drivers/CMSIS/Include/cmsis_gcc.h ****   #pragma GCC diagnostic ignored "-Wattributes"
  82:Drivers/CMSIS/Include/cmsis_gcc.h ****   __PACKED_STRUCT T_UINT16_WRITE { uint16_t v; };
  83:Drivers/CMSIS/Include/cmsis_gcc.h ****   #pragma GCC diagnostic pop
  84:Drivers/CMSIS/Include/cmsis_gcc.h ****   #define __UNALIGNED_UINT16_WRITE(addr, val)    (void)((((struct T_UINT16_WRITE *)(void *)(addr))-
  85:Drivers/CMSIS/Include/cmsis_gcc.h **** #endif
  86:Drivers/CMSIS/Include/cmsis_gcc.h **** #ifndef   __UNALIGNED_UINT16_READ
  87:Drivers/CMSIS/Include/cmsis_gcc.h ****   #pragma GCC diagnostic push
  88:Drivers/CMSIS/Include/cmsis_gcc.h ****   #pragma GCC diagnostic ignored "-Wpacked"
  89:Drivers/CMSIS/Include/cmsis_gcc.h ****   #pragma GCC diagnostic ignored "-Wattributes"
  90:Drivers/CMSIS/Include/cmsis_gcc.h ****   __PACKED_STRUCT T_UINT16_READ { uint16_t v; };
  91:Drivers/CMSIS/Include/cmsis_gcc.h ****   #pragma GCC diagnostic pop
  92:Drivers/CMSIS/Include/cmsis_gcc.h ****   #define __UNALIGNED_UINT16_READ(addr)          (((const struct T_UINT16_READ *)(const void *)(add
  93:Drivers/CMSIS/Include/cmsis_gcc.h **** #endif
  94:Drivers/CMSIS/Include/cmsis_gcc.h **** #ifndef   __UNALIGNED_UINT32_WRITE
ARM GAS  C:\Users\samue\AppData\Local\Temp\ccPE45pB.s 			page 55


  95:Drivers/CMSIS/Include/cmsis_gcc.h ****   #pragma GCC diagnostic push
  96:Drivers/CMSIS/Include/cmsis_gcc.h ****   #pragma GCC diagnostic ignored "-Wpacked"
  97:Drivers/CMSIS/Include/cmsis_gcc.h ****   #pragma GCC diagnostic ignored "-Wattributes"
  98:Drivers/CMSIS/Include/cmsis_gcc.h ****   __PACKED_STRUCT T_UINT32_WRITE { uint32_t v; };
  99:Drivers/CMSIS/Include/cmsis_gcc.h ****   #pragma GCC diagnostic pop
 100:Drivers/CMSIS/Include/cmsis_gcc.h ****   #define __UNALIGNED_UINT32_WRITE(addr, val)    (void)((((struct T_UINT32_WRITE *)(void *)(addr))-
 101:Drivers/CMSIS/Include/cmsis_gcc.h **** #endif
 102:Drivers/CMSIS/Include/cmsis_gcc.h **** #ifndef   __UNALIGNED_UINT32_READ
 103:Drivers/CMSIS/Include/cmsis_gcc.h ****   #pragma GCC diagnostic push
 104:Drivers/CMSIS/Include/cmsis_gcc.h ****   #pragma GCC diagnostic ignored "-Wpacked"
 105:Drivers/CMSIS/Include/cmsis_gcc.h ****   #pragma GCC diagnostic ignored "-Wattributes"
 106:Drivers/CMSIS/Include/cmsis_gcc.h ****   __PACKED_STRUCT T_UINT32_READ { uint32_t v; };
 107:Drivers/CMSIS/Include/cmsis_gcc.h ****   #pragma GCC diagnostic pop
 108:Drivers/CMSIS/Include/cmsis_gcc.h ****   #define __UNALIGNED_UINT32_READ(addr)          (((const struct T_UINT32_READ *)(const void *)(add
 109:Drivers/CMSIS/Include/cmsis_gcc.h **** #endif
 110:Drivers/CMSIS/Include/cmsis_gcc.h **** #ifndef   __ALIGNED
 111:Drivers/CMSIS/Include/cmsis_gcc.h ****   #define __ALIGNED(x)                           __attribute__((aligned(x)))
 112:Drivers/CMSIS/Include/cmsis_gcc.h **** #endif
 113:Drivers/CMSIS/Include/cmsis_gcc.h **** #ifndef   __RESTRICT
 114:Drivers/CMSIS/Include/cmsis_gcc.h ****   #define __RESTRICT                             __restrict
 115:Drivers/CMSIS/Include/cmsis_gcc.h **** #endif
 116:Drivers/CMSIS/Include/cmsis_gcc.h **** 
 117:Drivers/CMSIS/Include/cmsis_gcc.h **** 
 118:Drivers/CMSIS/Include/cmsis_gcc.h **** /* ###########################  Core Function Access  ########################### */
 119:Drivers/CMSIS/Include/cmsis_gcc.h **** /** \ingroup  CMSIS_Core_FunctionInterface
 120:Drivers/CMSIS/Include/cmsis_gcc.h ****     \defgroup CMSIS_Core_RegAccFunctions CMSIS Core Register Access Functions
 121:Drivers/CMSIS/Include/cmsis_gcc.h ****   @{
 122:Drivers/CMSIS/Include/cmsis_gcc.h ****  */
 123:Drivers/CMSIS/Include/cmsis_gcc.h **** 
 124:Drivers/CMSIS/Include/cmsis_gcc.h **** /**
 125:Drivers/CMSIS/Include/cmsis_gcc.h ****   \brief   Enable IRQ Interrupts
 126:Drivers/CMSIS/Include/cmsis_gcc.h ****   \details Enables IRQ interrupts by clearing the I-bit in the CPSR.
 127:Drivers/CMSIS/Include/cmsis_gcc.h ****            Can only be executed in Privileged modes.
 128:Drivers/CMSIS/Include/cmsis_gcc.h ****  */
 129:Drivers/CMSIS/Include/cmsis_gcc.h **** __STATIC_FORCEINLINE void __enable_irq(void)
 130:Drivers/CMSIS/Include/cmsis_gcc.h **** {
 131:Drivers/CMSIS/Include/cmsis_gcc.h ****   __ASM volatile ("cpsie i" : : : "memory");
 132:Drivers/CMSIS/Include/cmsis_gcc.h **** }
 133:Drivers/CMSIS/Include/cmsis_gcc.h **** 
 134:Drivers/CMSIS/Include/cmsis_gcc.h **** 
 135:Drivers/CMSIS/Include/cmsis_gcc.h **** /**
 136:Drivers/CMSIS/Include/cmsis_gcc.h ****   \brief   Disable IRQ Interrupts
 137:Drivers/CMSIS/Include/cmsis_gcc.h ****   \details Disables IRQ interrupts by setting the I-bit in the CPSR.
 138:Drivers/CMSIS/Include/cmsis_gcc.h ****            Can only be executed in Privileged modes.
 139:Drivers/CMSIS/Include/cmsis_gcc.h ****  */
 140:Drivers/CMSIS/Include/cmsis_gcc.h **** __STATIC_FORCEINLINE void __disable_irq(void)
 1937              		.loc 2 140 27 view .LVU462
 1938              	.LBB10:
 141:Drivers/CMSIS/Include/cmsis_gcc.h **** {
 142:Drivers/CMSIS/Include/cmsis_gcc.h ****   __ASM volatile ("cpsid i" : : : "memory");
 1939              		.loc 2 142 3 view .LVU463
 1940              		.syntax unified
 1941              	@ 142 "Drivers/CMSIS/Include/cmsis_gcc.h" 1
 1942 0000 72B6     		cpsid i
 1943              	@ 0 "" 2
 1944              		.thumb
 1945              		.syntax unified
ARM GAS  C:\Users\samue\AppData\Local\Temp\ccPE45pB.s 			page 56


 1946              	.L96:
 1947              	.LBE10:
 1948              	.LBE9:
 640:Core/Src/main.c ****   while (1)
 1949              		.loc 1 640 3 discriminator 1 view .LVU464
 641:Core/Src/main.c ****   {
 642:Core/Src/main.c ****   }
 1950              		.loc 1 642 3 discriminator 1 view .LVU465
 640:Core/Src/main.c ****   while (1)
 1951              		.loc 1 640 9 discriminator 1 view .LVU466
 1952 0002 FEE7     		b	.L96
 1953              		.cfi_endproc
 1954              	.LFE153:
 1956              		.section	.text.MX_USART2_UART_Init,"ax",%progbits
 1957              		.align	1
 1958              		.syntax unified
 1959              		.thumb
 1960              		.thumb_func
 1962              	MX_USART2_UART_Init:
 1963              	.LFB150:
 541:Core/Src/main.c **** 
 1964              		.loc 1 541 1 view -0
 1965              		.cfi_startproc
 1966              		@ args = 0, pretend = 0, frame = 0
 1967              		@ frame_needed = 0, uses_anonymous_args = 0
 1968 0000 08B5     		push	{r3, lr}
 1969              	.LCFI42:
 1970              		.cfi_def_cfa_offset 8
 1971              		.cfi_offset 3, -8
 1972              		.cfi_offset 14, -4
 550:Core/Src/main.c ****   huart2.Init.BaudRate = 115200;
 1973              		.loc 1 550 3 view .LVU468
 550:Core/Src/main.c ****   huart2.Init.BaudRate = 115200;
 1974              		.loc 1 550 19 is_stmt 0 view .LVU469
 1975 0002 0A48     		ldr	r0, .L101
 1976 0004 0A4B     		ldr	r3, .L101+4
 1977 0006 0360     		str	r3, [r0]
 551:Core/Src/main.c ****   huart2.Init.WordLength = UART_WORDLENGTH_8B;
 1978              		.loc 1 551 3 is_stmt 1 view .LVU470
 551:Core/Src/main.c ****   huart2.Init.WordLength = UART_WORDLENGTH_8B;
 1979              		.loc 1 551 24 is_stmt 0 view .LVU471
 1980 0008 4FF4E133 		mov	r3, #115200
 1981 000c 4360     		str	r3, [r0, #4]
 552:Core/Src/main.c ****   huart2.Init.StopBits = UART_STOPBITS_1;
 1982              		.loc 1 552 3 is_stmt 1 view .LVU472
 552:Core/Src/main.c ****   huart2.Init.StopBits = UART_STOPBITS_1;
 1983              		.loc 1 552 26 is_stmt 0 view .LVU473
 1984 000e 0023     		movs	r3, #0
 1985 0010 8360     		str	r3, [r0, #8]
 553:Core/Src/main.c ****   huart2.Init.Parity = UART_PARITY_NONE;
 1986              		.loc 1 553 3 is_stmt 1 view .LVU474
 553:Core/Src/main.c ****   huart2.Init.Parity = UART_PARITY_NONE;
 1987              		.loc 1 553 24 is_stmt 0 view .LVU475
 1988 0012 C360     		str	r3, [r0, #12]
 554:Core/Src/main.c ****   huart2.Init.Mode = UART_MODE_TX_RX;
 1989              		.loc 1 554 3 is_stmt 1 view .LVU476
 554:Core/Src/main.c ****   huart2.Init.Mode = UART_MODE_TX_RX;
ARM GAS  C:\Users\samue\AppData\Local\Temp\ccPE45pB.s 			page 57


 1990              		.loc 1 554 22 is_stmt 0 view .LVU477
 1991 0014 0361     		str	r3, [r0, #16]
 555:Core/Src/main.c ****   huart2.Init.HwFlowCtl = UART_HWCONTROL_NONE;
 1992              		.loc 1 555 3 is_stmt 1 view .LVU478
 555:Core/Src/main.c ****   huart2.Init.HwFlowCtl = UART_HWCONTROL_NONE;
 1993              		.loc 1 555 20 is_stmt 0 view .LVU479
 1994 0016 0C22     		movs	r2, #12
 1995 0018 4261     		str	r2, [r0, #20]
 556:Core/Src/main.c ****   huart2.Init.OverSampling = UART_OVERSAMPLING_16;
 1996              		.loc 1 556 3 is_stmt 1 view .LVU480
 556:Core/Src/main.c ****   huart2.Init.OverSampling = UART_OVERSAMPLING_16;
 1997              		.loc 1 556 25 is_stmt 0 view .LVU481
 1998 001a 8361     		str	r3, [r0, #24]
 557:Core/Src/main.c ****   if (HAL_UART_Init(&huart2) != HAL_OK)
 1999              		.loc 1 557 3 is_stmt 1 view .LVU482
 557:Core/Src/main.c ****   if (HAL_UART_Init(&huart2) != HAL_OK)
 2000              		.loc 1 557 28 is_stmt 0 view .LVU483
 2001 001c C361     		str	r3, [r0, #28]
 558:Core/Src/main.c ****   {
 2002              		.loc 1 558 3 is_stmt 1 view .LVU484
 558:Core/Src/main.c ****   {
 2003              		.loc 1 558 7 is_stmt 0 view .LVU485
 2004 001e FFF7FEFF 		bl	HAL_UART_Init
 2005              	.LVL154:
 558:Core/Src/main.c ****   {
 2006              		.loc 1 558 6 view .LVU486
 2007 0022 00B9     		cbnz	r0, .L100
 566:Core/Src/main.c **** 
 2008              		.loc 1 566 1 view .LVU487
 2009 0024 08BD     		pop	{r3, pc}
 2010              	.L100:
 560:Core/Src/main.c ****   }
 2011              		.loc 1 560 5 is_stmt 1 view .LVU488
 2012 0026 FFF7FEFF 		bl	Error_Handler
 2013              	.LVL155:
 2014              	.L102:
 2015 002a 00BF     		.align	2
 2016              	.L101:
 2017 002c 00000000 		.word	.LANCHOR11
 2018 0030 00440040 		.word	1073759232
 2019              		.cfi_endproc
 2020              	.LFE150:
 2022              		.section	.text.MX_I2C1_Init,"ax",%progbits
 2023              		.align	1
 2024              		.syntax unified
 2025              		.thumb
 2026              		.thumb_func
 2028              	MX_I2C1_Init:
 2029              	.LFB149:
 507:Core/Src/main.c **** 
 2030              		.loc 1 507 1 view -0
 2031              		.cfi_startproc
 2032              		@ args = 0, pretend = 0, frame = 0
 2033              		@ frame_needed = 0, uses_anonymous_args = 0
 2034 0000 08B5     		push	{r3, lr}
 2035              	.LCFI43:
 2036              		.cfi_def_cfa_offset 8
ARM GAS  C:\Users\samue\AppData\Local\Temp\ccPE45pB.s 			page 58


 2037              		.cfi_offset 3, -8
 2038              		.cfi_offset 14, -4
 516:Core/Src/main.c ****   hi2c1.Init.ClockSpeed = 100000;
 2039              		.loc 1 516 3 view .LVU490
 516:Core/Src/main.c ****   hi2c1.Init.ClockSpeed = 100000;
 2040              		.loc 1 516 18 is_stmt 0 view .LVU491
 2041 0002 0A48     		ldr	r0, .L107
 2042 0004 0A4B     		ldr	r3, .L107+4
 2043 0006 0360     		str	r3, [r0]
 517:Core/Src/main.c ****   hi2c1.Init.DutyCycle = I2C_DUTYCYCLE_2;
 2044              		.loc 1 517 3 is_stmt 1 view .LVU492
 517:Core/Src/main.c ****   hi2c1.Init.DutyCycle = I2C_DUTYCYCLE_2;
 2045              		.loc 1 517 25 is_stmt 0 view .LVU493
 2046 0008 0A4B     		ldr	r3, .L107+8
 2047 000a 4360     		str	r3, [r0, #4]
 518:Core/Src/main.c ****   hi2c1.Init.OwnAddress1 = 0;
 2048              		.loc 1 518 3 is_stmt 1 view .LVU494
 518:Core/Src/main.c ****   hi2c1.Init.OwnAddress1 = 0;
 2049              		.loc 1 518 24 is_stmt 0 view .LVU495
 2050 000c 0023     		movs	r3, #0
 2051 000e 8360     		str	r3, [r0, #8]
 519:Core/Src/main.c ****   hi2c1.Init.AddressingMode = I2C_ADDRESSINGMODE_7BIT;
 2052              		.loc 1 519 3 is_stmt 1 view .LVU496
 519:Core/Src/main.c ****   hi2c1.Init.AddressingMode = I2C_ADDRESSINGMODE_7BIT;
 2053              		.loc 1 519 26 is_stmt 0 view .LVU497
 2054 0010 C360     		str	r3, [r0, #12]
 520:Core/Src/main.c ****   hi2c1.Init.DualAddressMode = I2C_DUALADDRESS_DISABLE;
 2055              		.loc 1 520 3 is_stmt 1 view .LVU498
 520:Core/Src/main.c ****   hi2c1.Init.DualAddressMode = I2C_DUALADDRESS_DISABLE;
 2056              		.loc 1 520 29 is_stmt 0 view .LVU499
 2057 0012 4FF48042 		mov	r2, #16384
 2058 0016 0261     		str	r2, [r0, #16]
 521:Core/Src/main.c ****   hi2c1.Init.OwnAddress2 = 0;
 2059              		.loc 1 521 3 is_stmt 1 view .LVU500
 521:Core/Src/main.c ****   hi2c1.Init.OwnAddress2 = 0;
 2060              		.loc 1 521 30 is_stmt 0 view .LVU501
 2061 0018 4361     		str	r3, [r0, #20]
 522:Core/Src/main.c ****   hi2c1.Init.GeneralCallMode = I2C_GENERALCALL_DISABLE;
 2062              		.loc 1 522 3 is_stmt 1 view .LVU502
 522:Core/Src/main.c ****   hi2c1.Init.GeneralCallMode = I2C_GENERALCALL_DISABLE;
 2063              		.loc 1 522 26 is_stmt 0 view .LVU503
 2064 001a 8361     		str	r3, [r0, #24]
 523:Core/Src/main.c ****   hi2c1.Init.NoStretchMode = I2C_NOSTRETCH_DISABLE;
 2065              		.loc 1 523 3 is_stmt 1 view .LVU504
 523:Core/Src/main.c ****   hi2c1.Init.NoStretchMode = I2C_NOSTRETCH_DISABLE;
 2066              		.loc 1 523 30 is_stmt 0 view .LVU505
 2067 001c C361     		str	r3, [r0, #28]
 524:Core/Src/main.c ****   if (HAL_I2C_Init(&hi2c1) != HAL_OK)
 2068              		.loc 1 524 3 is_stmt 1 view .LVU506
 524:Core/Src/main.c ****   if (HAL_I2C_Init(&hi2c1) != HAL_OK)
 2069              		.loc 1 524 28 is_stmt 0 view .LVU507
 2070 001e 0362     		str	r3, [r0, #32]
 525:Core/Src/main.c ****   {
 2071              		.loc 1 525 3 is_stmt 1 view .LVU508
 525:Core/Src/main.c ****   {
 2072              		.loc 1 525 7 is_stmt 0 view .LVU509
 2073 0020 FFF7FEFF 		bl	HAL_I2C_Init
ARM GAS  C:\Users\samue\AppData\Local\Temp\ccPE45pB.s 			page 59


 2074              	.LVL156:
 525:Core/Src/main.c ****   {
 2075              		.loc 1 525 6 view .LVU510
 2076 0024 00B9     		cbnz	r0, .L106
 533:Core/Src/main.c **** 
 2077              		.loc 1 533 1 view .LVU511
 2078 0026 08BD     		pop	{r3, pc}
 2079              	.L106:
 527:Core/Src/main.c ****   }
 2080              		.loc 1 527 5 is_stmt 1 view .LVU512
 2081 0028 FFF7FEFF 		bl	Error_Handler
 2082              	.LVL157:
 2083              	.L108:
 2084              		.align	2
 2085              	.L107:
 2086 002c 00000000 		.word	.LANCHOR0
 2087 0030 00540040 		.word	1073763328
 2088 0034 A0860100 		.word	100000
 2089              		.cfi_endproc
 2090              	.LFE149:
 2092              		.section	.text.SystemClock_Config,"ax",%progbits
 2093              		.align	1
 2094              		.global	SystemClock_Config
 2095              		.syntax unified
 2096              		.thumb
 2097              		.thumb_func
 2099              	SystemClock_Config:
 2100              	.LFB148:
 462:Core/Src/main.c ****   RCC_OscInitTypeDef RCC_OscInitStruct = {0};
 2101              		.loc 1 462 1 view -0
 2102              		.cfi_startproc
 2103              		@ args = 0, pretend = 0, frame = 80
 2104              		@ frame_needed = 0, uses_anonymous_args = 0
 2105 0000 00B5     		push	{lr}
 2106              	.LCFI44:
 2107              		.cfi_def_cfa_offset 4
 2108              		.cfi_offset 14, -4
 2109 0002 95B0     		sub	sp, sp, #84
 2110              	.LCFI45:
 2111              		.cfi_def_cfa_offset 88
 463:Core/Src/main.c ****   RCC_ClkInitTypeDef RCC_ClkInitStruct = {0};
 2112              		.loc 1 463 3 view .LVU514
 463:Core/Src/main.c ****   RCC_ClkInitTypeDef RCC_ClkInitStruct = {0};
 2113              		.loc 1 463 22 is_stmt 0 view .LVU515
 2114 0004 3022     		movs	r2, #48
 2115 0006 0021     		movs	r1, #0
 2116 0008 08A8     		add	r0, sp, #32
 2117 000a FFF7FEFF 		bl	memset
 2118              	.LVL158:
 464:Core/Src/main.c **** 
 2119              		.loc 1 464 3 is_stmt 1 view .LVU516
 464:Core/Src/main.c **** 
 2120              		.loc 1 464 22 is_stmt 0 view .LVU517
 2121 000e 0023     		movs	r3, #0
 2122 0010 0393     		str	r3, [sp, #12]
 2123 0012 0493     		str	r3, [sp, #16]
 2124 0014 0593     		str	r3, [sp, #20]
ARM GAS  C:\Users\samue\AppData\Local\Temp\ccPE45pB.s 			page 60


 2125 0016 0693     		str	r3, [sp, #24]
 2126 0018 0793     		str	r3, [sp, #28]
 468:Core/Src/main.c ****   __HAL_PWR_VOLTAGESCALING_CONFIG(PWR_REGULATOR_VOLTAGE_SCALE1);
 2127              		.loc 1 468 3 is_stmt 1 view .LVU518
 2128              	.LBB11:
 468:Core/Src/main.c ****   __HAL_PWR_VOLTAGESCALING_CONFIG(PWR_REGULATOR_VOLTAGE_SCALE1);
 2129              		.loc 1 468 3 view .LVU519
 2130 001a 0193     		str	r3, [sp, #4]
 468:Core/Src/main.c ****   __HAL_PWR_VOLTAGESCALING_CONFIG(PWR_REGULATOR_VOLTAGE_SCALE1);
 2131              		.loc 1 468 3 view .LVU520
 2132 001c 1E4A     		ldr	r2, .L115
 2133 001e 116C     		ldr	r1, [r2, #64]
 2134 0020 41F08051 		orr	r1, r1, #268435456
 2135 0024 1164     		str	r1, [r2, #64]
 468:Core/Src/main.c ****   __HAL_PWR_VOLTAGESCALING_CONFIG(PWR_REGULATOR_VOLTAGE_SCALE1);
 2136              		.loc 1 468 3 view .LVU521
 2137 0026 126C     		ldr	r2, [r2, #64]
 2138 0028 02F08052 		and	r2, r2, #268435456
 2139 002c 0192     		str	r2, [sp, #4]
 468:Core/Src/main.c ****   __HAL_PWR_VOLTAGESCALING_CONFIG(PWR_REGULATOR_VOLTAGE_SCALE1);
 2140              		.loc 1 468 3 view .LVU522
 2141 002e 019A     		ldr	r2, [sp, #4]
 2142              	.LBE11:
 468:Core/Src/main.c ****   __HAL_PWR_VOLTAGESCALING_CONFIG(PWR_REGULATOR_VOLTAGE_SCALE1);
 2143              		.loc 1 468 3 view .LVU523
 469:Core/Src/main.c ****   /** Initializes the RCC Oscillators according to the specified parameters
 2144              		.loc 1 469 3 view .LVU524
 2145              	.LBB12:
 469:Core/Src/main.c ****   /** Initializes the RCC Oscillators according to the specified parameters
 2146              		.loc 1 469 3 view .LVU525
 2147 0030 0293     		str	r3, [sp, #8]
 469:Core/Src/main.c ****   /** Initializes the RCC Oscillators according to the specified parameters
 2148              		.loc 1 469 3 view .LVU526
 2149 0032 1A4A     		ldr	r2, .L115+4
 2150 0034 1168     		ldr	r1, [r2]
 2151 0036 41F44041 		orr	r1, r1, #49152
 2152 003a 1160     		str	r1, [r2]
 469:Core/Src/main.c ****   /** Initializes the RCC Oscillators according to the specified parameters
 2153              		.loc 1 469 3 view .LVU527
 2154 003c 1268     		ldr	r2, [r2]
 2155 003e 02F44042 		and	r2, r2, #49152
 2156 0042 0292     		str	r2, [sp, #8]
 469:Core/Src/main.c ****   /** Initializes the RCC Oscillators according to the specified parameters
 2157              		.loc 1 469 3 view .LVU528
 2158 0044 029A     		ldr	r2, [sp, #8]
 2159              	.LBE12:
 469:Core/Src/main.c ****   /** Initializes the RCC Oscillators according to the specified parameters
 2160              		.loc 1 469 3 view .LVU529
 473:Core/Src/main.c ****   RCC_OscInitStruct.HSIState = RCC_HSI_ON;
 2161              		.loc 1 473 3 view .LVU530
 473:Core/Src/main.c ****   RCC_OscInitStruct.HSIState = RCC_HSI_ON;
 2162              		.loc 1 473 36 is_stmt 0 view .LVU531
 2163 0046 0221     		movs	r1, #2
 2164 0048 0891     		str	r1, [sp, #32]
 474:Core/Src/main.c ****   RCC_OscInitStruct.HSICalibrationValue = RCC_HSICALIBRATION_DEFAULT;
 2165              		.loc 1 474 3 is_stmt 1 view .LVU532
 474:Core/Src/main.c ****   RCC_OscInitStruct.HSICalibrationValue = RCC_HSICALIBRATION_DEFAULT;
ARM GAS  C:\Users\samue\AppData\Local\Temp\ccPE45pB.s 			page 61


 2166              		.loc 1 474 30 is_stmt 0 view .LVU533
 2167 004a 0122     		movs	r2, #1
 2168 004c 0B92     		str	r2, [sp, #44]
 475:Core/Src/main.c ****   RCC_OscInitStruct.PLL.PLLState = RCC_PLL_ON;
 2169              		.loc 1 475 3 is_stmt 1 view .LVU534
 475:Core/Src/main.c ****   RCC_OscInitStruct.PLL.PLLState = RCC_PLL_ON;
 2170              		.loc 1 475 41 is_stmt 0 view .LVU535
 2171 004e 1022     		movs	r2, #16
 2172 0050 0C92     		str	r2, [sp, #48]
 476:Core/Src/main.c ****   RCC_OscInitStruct.PLL.PLLSource = RCC_PLLSOURCE_HSI;
 2173              		.loc 1 476 3 is_stmt 1 view .LVU536
 476:Core/Src/main.c ****   RCC_OscInitStruct.PLL.PLLSource = RCC_PLLSOURCE_HSI;
 2174              		.loc 1 476 34 is_stmt 0 view .LVU537
 2175 0052 0E91     		str	r1, [sp, #56]
 477:Core/Src/main.c ****   RCC_OscInitStruct.PLL.PLLM = 16;
 2176              		.loc 1 477 3 is_stmt 1 view .LVU538
 477:Core/Src/main.c ****   RCC_OscInitStruct.PLL.PLLM = 16;
 2177              		.loc 1 477 35 is_stmt 0 view .LVU539
 2178 0054 0F93     		str	r3, [sp, #60]
 478:Core/Src/main.c ****   RCC_OscInitStruct.PLL.PLLN = 336;
 2179              		.loc 1 478 3 is_stmt 1 view .LVU540
 478:Core/Src/main.c ****   RCC_OscInitStruct.PLL.PLLN = 336;
 2180              		.loc 1 478 30 is_stmt 0 view .LVU541
 2181 0056 1092     		str	r2, [sp, #64]
 479:Core/Src/main.c ****   RCC_OscInitStruct.PLL.PLLP = RCC_PLLP_DIV4;
 2182              		.loc 1 479 3 is_stmt 1 view .LVU542
 479:Core/Src/main.c ****   RCC_OscInitStruct.PLL.PLLP = RCC_PLLP_DIV4;
 2183              		.loc 1 479 30 is_stmt 0 view .LVU543
 2184 0058 4FF4A873 		mov	r3, #336
 2185 005c 1193     		str	r3, [sp, #68]
 480:Core/Src/main.c ****   RCC_OscInitStruct.PLL.PLLQ = 4;
 2186              		.loc 1 480 3 is_stmt 1 view .LVU544
 480:Core/Src/main.c ****   RCC_OscInitStruct.PLL.PLLQ = 4;
 2187              		.loc 1 480 30 is_stmt 0 view .LVU545
 2188 005e 0423     		movs	r3, #4
 2189 0060 1293     		str	r3, [sp, #72]
 481:Core/Src/main.c ****   if (HAL_RCC_OscConfig(&RCC_OscInitStruct) != HAL_OK)
 2190              		.loc 1 481 3 is_stmt 1 view .LVU546
 481:Core/Src/main.c ****   if (HAL_RCC_OscConfig(&RCC_OscInitStruct) != HAL_OK)
 2191              		.loc 1 481 30 is_stmt 0 view .LVU547
 2192 0062 1393     		str	r3, [sp, #76]
 482:Core/Src/main.c ****   {
 2193              		.loc 1 482 3 is_stmt 1 view .LVU548
 482:Core/Src/main.c ****   {
 2194              		.loc 1 482 7 is_stmt 0 view .LVU549
 2195 0064 08A8     		add	r0, sp, #32
 2196 0066 FFF7FEFF 		bl	HAL_RCC_OscConfig
 2197              	.LVL159:
 482:Core/Src/main.c ****   {
 2198              		.loc 1 482 6 view .LVU550
 2199 006a 80B9     		cbnz	r0, .L113
 488:Core/Src/main.c ****                               |RCC_CLOCKTYPE_PCLK1|RCC_CLOCKTYPE_PCLK2;
 2200              		.loc 1 488 3 is_stmt 1 view .LVU551
 488:Core/Src/main.c ****                               |RCC_CLOCKTYPE_PCLK1|RCC_CLOCKTYPE_PCLK2;
 2201              		.loc 1 488 31 is_stmt 0 view .LVU552
 2202 006c 0F23     		movs	r3, #15
 2203 006e 0393     		str	r3, [sp, #12]
ARM GAS  C:\Users\samue\AppData\Local\Temp\ccPE45pB.s 			page 62


 490:Core/Src/main.c ****   RCC_ClkInitStruct.AHBCLKDivider = RCC_SYSCLK_DIV1;
 2204              		.loc 1 490 3 is_stmt 1 view .LVU553
 490:Core/Src/main.c ****   RCC_ClkInitStruct.AHBCLKDivider = RCC_SYSCLK_DIV1;
 2205              		.loc 1 490 34 is_stmt 0 view .LVU554
 2206 0070 0221     		movs	r1, #2
 2207 0072 0491     		str	r1, [sp, #16]
 491:Core/Src/main.c ****   RCC_ClkInitStruct.APB1CLKDivider = RCC_HCLK_DIV2;
 2208              		.loc 1 491 3 is_stmt 1 view .LVU555
 491:Core/Src/main.c ****   RCC_ClkInitStruct.APB1CLKDivider = RCC_HCLK_DIV2;
 2209              		.loc 1 491 35 is_stmt 0 view .LVU556
 2210 0074 0023     		movs	r3, #0
 2211 0076 0593     		str	r3, [sp, #20]
 492:Core/Src/main.c ****   RCC_ClkInitStruct.APB2CLKDivider = RCC_HCLK_DIV1;
 2212              		.loc 1 492 3 is_stmt 1 view .LVU557
 492:Core/Src/main.c ****   RCC_ClkInitStruct.APB2CLKDivider = RCC_HCLK_DIV1;
 2213              		.loc 1 492 36 is_stmt 0 view .LVU558
 2214 0078 4FF48052 		mov	r2, #4096
 2215 007c 0692     		str	r2, [sp, #24]
 493:Core/Src/main.c **** 
 2216              		.loc 1 493 3 is_stmt 1 view .LVU559
 493:Core/Src/main.c **** 
 2217              		.loc 1 493 36 is_stmt 0 view .LVU560
 2218 007e 0793     		str	r3, [sp, #28]
 495:Core/Src/main.c ****   {
 2219              		.loc 1 495 3 is_stmt 1 view .LVU561
 495:Core/Src/main.c ****   {
 2220              		.loc 1 495 7 is_stmt 0 view .LVU562
 2221 0080 03A8     		add	r0, sp, #12
 2222 0082 FFF7FEFF 		bl	HAL_RCC_ClockConfig
 2223              	.LVL160:
 495:Core/Src/main.c ****   {
 2224              		.loc 1 495 6 view .LVU563
 2225 0086 20B9     		cbnz	r0, .L114
 499:Core/Src/main.c **** 
 2226              		.loc 1 499 1 view .LVU564
 2227 0088 15B0     		add	sp, sp, #84
 2228              	.LCFI46:
 2229              		.cfi_remember_state
 2230              		.cfi_def_cfa_offset 4
 2231              		@ sp needed
 2232 008a 5DF804FB 		ldr	pc, [sp], #4
 2233              	.L113:
 2234              	.LCFI47:
 2235              		.cfi_restore_state
 484:Core/Src/main.c ****   }
 2236              		.loc 1 484 5 is_stmt 1 view .LVU565
 2237 008e FFF7FEFF 		bl	Error_Handler
 2238              	.LVL161:
 2239              	.L114:
 497:Core/Src/main.c ****   }
 2240              		.loc 1 497 5 view .LVU566
 2241 0092 FFF7FEFF 		bl	Error_Handler
 2242              	.LVL162:
 2243              	.L116:
 2244 0096 00BF     		.align	2
 2245              	.L115:
 2246 0098 00380240 		.word	1073887232
ARM GAS  C:\Users\samue\AppData\Local\Temp\ccPE45pB.s 			page 63


 2247 009c 00700040 		.word	1073770496
 2248              		.cfi_endproc
 2249              	.LFE148:
 2251              		.section	.text.main,"ax",%progbits
 2252              		.align	1
 2253              		.global	main
 2254              		.syntax unified
 2255              		.thumb
 2256              		.thumb_func
 2258              	main:
 2259              	.LFB147:
 404:Core/Src/main.c ****   /* USER CODE BEGIN 1 */
 2260              		.loc 1 404 1 view -0
 2261              		.cfi_startproc
 2262              		@ Volatile: function does not return.
 2263              		@ args = 0, pretend = 0, frame = 0
 2264              		@ frame_needed = 0, uses_anonymous_args = 0
 2265 0000 08B5     		push	{r3, lr}
 2266              	.LCFI48:
 2267              		.cfi_def_cfa_offset 8
 2268              		.cfi_offset 3, -8
 2269              		.cfi_offset 14, -4
 407:Core/Src/main.c **** 
 2270              		.loc 1 407 2 view .LVU568
 407:Core/Src/main.c **** 
 2271              		.loc 1 407 8 is_stmt 0 view .LVU569
 2272 0002 124B     		ldr	r3, .L120
 2273 0004 0022     		movs	r2, #0
 2274 0006 1A60     		str	r2, [r3]
 414:Core/Src/main.c **** 
 2275              		.loc 1 414 3 is_stmt 1 view .LVU570
 2276 0008 FFF7FEFF 		bl	HAL_Init
 2277              	.LVL163:
 424:Core/Src/main.c **** 
 2278              		.loc 1 424 3 view .LVU571
 2279 000c FFF7FEFF 		bl	SystemClock_Config
 2280              	.LVL164:
 431:Core/Src/main.c ****   MX_DMA_Init();
 2281              		.loc 1 431 3 view .LVU572
 2282 0010 FFF7FEFF 		bl	MX_GPIO_Init
 2283              	.LVL165:
 432:Core/Src/main.c ****   MX_USART2_UART_Init();
 2284              		.loc 1 432 3 view .LVU573
 2285 0014 FFF7FEFF 		bl	MX_DMA_Init
 2286              	.LVL166:
 433:Core/Src/main.c ****   MX_I2C1_Init();
 2287              		.loc 1 433 3 view .LVU574
 2288 0018 FFF7FEFF 		bl	MX_USART2_UART_Init
 2289              	.LVL167:
 434:Core/Src/main.c ****   /* USER CODE BEGIN 2 */
 2290              		.loc 1 434 3 view .LVU575
 2291 001c FFF7FEFF 		bl	MX_I2C1_Init
 2292              	.LVL168:
 2293              	.L118:
 443:Core/Src/main.c ****   {
 2294              		.loc 1 443 3 discriminator 1 view .LVU576
 449:Core/Src/main.c **** 	  HAL_Delay(FSM[state].time_delay);
ARM GAS  C:\Users\samue\AppData\Local\Temp\ccPE45pB.s 			page 64


 2295              		.loc 1 449 4 discriminator 1 view .LVU577
 449:Core/Src/main.c **** 	  HAL_Delay(FSM[state].time_delay);
 2296              		.loc 1 449 15 is_stmt 0 discriminator 1 view .LVU578
 2297 0020 0B4D     		ldr	r5, .L120+4
 2298 0022 0A4C     		ldr	r4, .L120
 2299 0024 2368     		ldr	r3, [r4]
 2300 0026 1B01     		lsls	r3, r3, #4
 2301 0028 EB58     		ldr	r3, [r5, r3]
 2302 002a 9847     		blx	r3
 2303              	.LVL169:
 450:Core/Src/main.c **** 	  state = FSM[state].next_state[flag];
 2304              		.loc 1 450 4 is_stmt 1 discriminator 1 view .LVU579
 2305 002c 2368     		ldr	r3, [r4]
 2306 002e 05EB0313 		add	r3, r5, r3, lsl #4
 2307 0032 5868     		ldr	r0, [r3, #4]
 2308 0034 FFF7FEFF 		bl	HAL_Delay
 2309              	.LVL170:
 451:Core/Src/main.c **** 
 2310              		.loc 1 451 4 discriminator 1 view .LVU580
 451:Core/Src/main.c **** 
 2311              		.loc 1 451 33 is_stmt 0 discriminator 1 view .LVU581
 2312 0038 2268     		ldr	r2, [r4]
 2313 003a 064B     		ldr	r3, .L120+8
 2314 003c 1B78     		ldrb	r3, [r3]	@ zero_extendqisi2
 2315 003e 03EB8203 		add	r3, r3, r2, lsl #2
 2316 0042 0233     		adds	r3, r3, #2
 2317 0044 55F82330 		ldr	r3, [r5, r3, lsl #2]
 451:Core/Src/main.c **** 
 2318              		.loc 1 451 10 discriminator 1 view .LVU582
 2319 0048 2360     		str	r3, [r4]
 443:Core/Src/main.c ****   {
 2320              		.loc 1 443 9 is_stmt 1 discriminator 1 view .LVU583
 2321 004a E9E7     		b	.L118
 2322              	.L121:
 2323              		.align	2
 2324              	.L120:
 2325 004c 00000000 		.word	.LANCHOR12
 2326 0050 00000000 		.word	.LANCHOR13
 2327 0054 00000000 		.word	.LANCHOR1
 2328              		.cfi_endproc
 2329              	.LFE147:
 2331              		.global	buf
 2332              		.global	gyro_corr_p
 2333              		.global	gyro_corr
 2334              		.global	gyro_data_p
 2335              		.global	gyro_data
 2336              		.global	accel_corr_p
 2337              		.global	accel_corr
 2338              		.global	accel_data_p
 2339              		.global	accel_data
 2340              		.global	input
 2341              		.global	state
 2342              		.global	flag
 2343              		.global	FSM
 2344              		.global	hdma_usart2_tx
 2345              		.global	huart2
 2346              		.global	hi2c1
ARM GAS  C:\Users\samue\AppData\Local\Temp\ccPE45pB.s 			page 65


 2347              		.section	.bss.accel_corr,"aw",%nobits
 2348              		.align	2
 2349              		.set	.LANCHOR2,. + 0
 2352              	accel_corr:
 2353 0000 00000000 		.space	12
 2353      00000000 
 2353      00000000 
 2354              		.section	.bss.accel_corr_p,"aw",%nobits
 2355              		.align	2
 2356              		.set	.LANCHOR3,. + 0
 2359              	accel_corr_p:
 2360 0000 00000000 		.space	4
 2361              		.section	.bss.accel_data,"aw",%nobits
 2362              		.align	2
 2363              		.set	.LANCHOR6,. + 0
 2366              	accel_data:
 2367 0000 00000000 		.space	12
 2367      00000000 
 2367      00000000 
 2368              		.section	.bss.accel_data_p,"aw",%nobits
 2369              		.align	2
 2370              		.set	.LANCHOR7,. + 0
 2373              	accel_data_p:
 2374 0000 00000000 		.space	4
 2375              		.section	.bss.buf,"aw",%nobits
 2376              		.align	2
 2377              		.set	.LANCHOR10,. + 0
 2380              	buf:
 2381 0000 00000000 		.space	5
 2381      00
 2382              		.section	.bss.flag,"aw",%nobits
 2383              		.set	.LANCHOR1,. + 0
 2386              	flag:
 2387 0000 00       		.space	1
 2388              		.section	.bss.gyro_corr,"aw",%nobits
 2389              		.align	2
 2390              		.set	.LANCHOR4,. + 0
 2393              	gyro_corr:
 2394 0000 00000000 		.space	12
 2394      00000000 
 2394      00000000 
 2395              		.section	.bss.gyro_corr_p,"aw",%nobits
 2396              		.align	2
 2397              		.set	.LANCHOR5,. + 0
 2400              	gyro_corr_p:
 2401 0000 00000000 		.space	4
 2402              		.section	.bss.gyro_data,"aw",%nobits
 2403              		.align	2
 2404              		.set	.LANCHOR8,. + 0
 2407              	gyro_data:
 2408 0000 00000000 		.space	12
 2408      00000000 
 2408      00000000 
 2409              		.section	.bss.gyro_data_p,"aw",%nobits
 2410              		.align	2
 2411              		.set	.LANCHOR9,. + 0
 2414              	gyro_data_p:
ARM GAS  C:\Users\samue\AppData\Local\Temp\ccPE45pB.s 			page 66


 2415 0000 00000000 		.space	4
 2416              		.section	.bss.hdma_usart2_tx,"aw",%nobits
 2417              		.align	2
 2420              	hdma_usart2_tx:
 2421 0000 00000000 		.space	96
 2421      00000000 
 2421      00000000 
 2421      00000000 
 2421      00000000 
 2422              		.section	.bss.hi2c1,"aw",%nobits
 2423              		.align	2
 2424              		.set	.LANCHOR0,. + 0
 2427              	hi2c1:
 2428 0000 00000000 		.space	84
 2428      00000000 
 2428      00000000 
 2428      00000000 
 2428      00000000 
 2429              		.section	.bss.huart2,"aw",%nobits
 2430              		.align	2
 2431              		.set	.LANCHOR11,. + 0
 2434              	huart2:
 2435 0000 00000000 		.space	68
 2435      00000000 
 2435      00000000 
 2435      00000000 
 2435      00000000 
 2436              		.section	.bss.input,"aw",%nobits
 2437              		.align	2
 2440              	input:
 2441 0000 00000000 		.space	4
 2442              		.section	.bss.state,"aw",%nobits
 2443              		.align	2
 2444              		.set	.LANCHOR12,. + 0
 2447              	state:
 2448 0000 00000000 		.space	4
 2449              		.section	.rodata.FSM,"a"
 2450              		.align	2
 2451              		.set	.LANCHOR13,. + 0
 2454              	FSM:
 2455 0000 00000000 		.word	startup
 2456 0004 B80B0000 		.word	3000
 2457 0008 01000000 		.word	1
 2458 000c 01000000 		.word	1
 2459 0010 00000000 		.word	normal
 2460 0014 F4010000 		.word	500
 2461 0018 01000000 		.word	1
 2462 001c 02000000 		.word	2
 2463 0020 00000000 		.word	accel_cal_prep
 2464 0024 E8030000 		.word	1000
 2465 0028 02000000 		.word	2
 2466 002c 03000000 		.word	3
 2467 0030 00000000 		.word	accel_cal
 2468 0034 D0070000 		.word	2000
 2469 0038 01000000 		.word	1
 2470 003c 01000000 		.word	1
 2471              		.text
ARM GAS  C:\Users\samue\AppData\Local\Temp\ccPE45pB.s 			page 67


 2472              	.Letext0:
 2473              		.file 3 "c:\\dev_tools\\gcc-arm-none-eabi-10.3-2021.10-win32\\gcc-arm-none-eabi-10.3-2021.10\\arm-
 2474              		.file 4 "c:\\dev_tools\\gcc-arm-none-eabi-10.3-2021.10-win32\\gcc-arm-none-eabi-10.3-2021.10\\arm-
 2475              		.file 5 "Drivers/CMSIS/Device/ST/STM32F4xx/Include/stm32f411xe.h"
 2476              		.file 6 "Drivers/STM32F4xx_HAL_Driver/Inc/stm32f4xx_hal_def.h"
 2477              		.file 7 "Drivers/STM32F4xx_HAL_Driver/Inc/stm32f4xx_hal_rcc_ex.h"
 2478              		.file 8 "Drivers/STM32F4xx_HAL_Driver/Inc/stm32f4xx_hal_rcc.h"
 2479              		.file 9 "Drivers/STM32F4xx_HAL_Driver/Inc/stm32f4xx_hal_gpio.h"
 2480              		.file 10 "Drivers/STM32F4xx_HAL_Driver/Inc/stm32f4xx_hal_dma.h"
 2481              		.file 11 "Drivers/STM32F4xx_HAL_Driver/Inc/stm32f4xx_hal_i2c.h"
 2482              		.file 12 "Drivers/STM32F4xx_HAL_Driver/Inc/stm32f4xx_hal_uart.h"
 2483              		.file 13 "Drivers/STM32F4xx_HAL_Driver/Inc/stm32f4xx_hal_cortex.h"
 2484              		.file 14 "Drivers/STM32F4xx_HAL_Driver/Inc/stm32f4xx_hal.h"
 2485              		.file 15 "Core/Inc/i2c-lcd.h"
 2486              		.file 16 "c:\\dev_tools\\gcc-arm-none-eabi-10.3-2021.10-win32\\gcc-arm-none-eabi-10.3-2021.10\\arm
 2487              		.file 17 "<built-in>"
ARM GAS  C:\Users\samue\AppData\Local\Temp\ccPE45pB.s 			page 68


DEFINED SYMBOLS
                            *ABS*:00000000 main.c
C:\Users\samue\AppData\Local\Temp\ccPE45pB.s:20     .text.MX_GPIO_Init:00000000 $t
C:\Users\samue\AppData\Local\Temp\ccPE45pB.s:25     .text.MX_GPIO_Init:00000000 MX_GPIO_Init
C:\Users\samue\AppData\Local\Temp\ccPE45pB.s:193    .text.MX_GPIO_Init:000000c4 $d
C:\Users\samue\AppData\Local\Temp\ccPE45pB.s:200    .text.MX_DMA_Init:00000000 $t
C:\Users\samue\AppData\Local\Temp\ccPE45pB.s:205    .text.MX_DMA_Init:00000000 MX_DMA_Init
C:\Users\samue\AppData\Local\Temp\ccPE45pB.s:254    .text.MX_DMA_Init:00000030 $d
C:\Users\samue\AppData\Local\Temp\ccPE45pB.s:259    .text.lcd_send_cmd:00000000 $t
C:\Users\samue\AppData\Local\Temp\ccPE45pB.s:265    .text.lcd_send_cmd:00000000 lcd_send_cmd
C:\Users\samue\AppData\Local\Temp\ccPE45pB.s:331    .text.lcd_send_cmd:00000044 $d
C:\Users\samue\AppData\Local\Temp\ccPE45pB.s:336    .text.lcd_send_data:00000000 $t
C:\Users\samue\AppData\Local\Temp\ccPE45pB.s:342    .text.lcd_send_data:00000000 lcd_send_data
C:\Users\samue\AppData\Local\Temp\ccPE45pB.s:408    .text.lcd_send_data:00000044 $d
C:\Users\samue\AppData\Local\Temp\ccPE45pB.s:413    .text.lcd_init:00000000 $t
C:\Users\samue\AppData\Local\Temp\ccPE45pB.s:419    .text.lcd_init:00000000 lcd_init
C:\Users\samue\AppData\Local\Temp\ccPE45pB.s:508    .text.lcd_send_string:00000000 $t
C:\Users\samue\AppData\Local\Temp\ccPE45pB.s:514    .text.lcd_send_string:00000000 lcd_send_string
C:\Users\samue\AppData\Local\Temp\ccPE45pB.s:554    .rodata.MPU6050_Init.str1.4:00000000 $d
C:\Users\samue\AppData\Local\Temp\ccPE45pB.s:558    .text.MPU6050_Init:00000000 $t
C:\Users\samue\AppData\Local\Temp\ccPE45pB.s:564    .text.MPU6050_Init:00000000 MPU6050_Init
C:\Users\samue\AppData\Local\Temp\ccPE45pB.s:683    .text.MPU6050_Init:000000a8 $d
C:\Users\samue\AppData\Local\Temp\ccPE45pB.s:689    .rodata.accel_cal_prep.str1.4:00000000 $d
C:\Users\samue\AppData\Local\Temp\ccPE45pB.s:699    .text.accel_cal_prep:00000000 $t
C:\Users\samue\AppData\Local\Temp\ccPE45pB.s:705    .text.accel_cal_prep:00000000 accel_cal_prep
C:\Users\samue\AppData\Local\Temp\ccPE45pB.s:753    .text.accel_cal_prep:00000034 $d
C:\Users\samue\AppData\Local\Temp\ccPE45pB.s:761    .text.MPU6050_read_accel_raw:00000000 $t
C:\Users\samue\AppData\Local\Temp\ccPE45pB.s:767    .text.MPU6050_read_accel_raw:00000000 MPU6050_read_accel_raw
C:\Users\samue\AppData\Local\Temp\ccPE45pB.s:872    .text.MPU6050_read_accel_raw:0000008c $d
C:\Users\samue\AppData\Local\Temp\ccPE45pB.s:877    .text.MPU6050_read_accel:00000000 $t
C:\Users\samue\AppData\Local\Temp\ccPE45pB.s:883    .text.MPU6050_read_accel:00000000 MPU6050_read_accel
C:\Users\samue\AppData\Local\Temp\ccPE45pB.s:1004   .text.MPU6050_read_accel:000000a8 $d
C:\Users\samue\AppData\Local\Temp\ccPE45pB.s:1009   .text.MPU6050_read_gyro_raw:00000000 $t
C:\Users\samue\AppData\Local\Temp\ccPE45pB.s:1015   .text.MPU6050_read_gyro_raw:00000000 MPU6050_read_gyro_raw
C:\Users\samue\AppData\Local\Temp\ccPE45pB.s:1120   .text.MPU6050_read_gyro_raw:0000008c $d
C:\Users\samue\AppData\Local\Temp\ccPE45pB.s:1125   .rodata.startup.str1.4:00000000 $d
C:\Users\samue\AppData\Local\Temp\ccPE45pB.s:1129   .text.startup:00000000 $t
C:\Users\samue\AppData\Local\Temp\ccPE45pB.s:1135   .text.startup:00000000 startup
C:\Users\samue\AppData\Local\Temp\ccPE45pB.s:1214   .text.startup:00000054 $d
C:\Users\samue\AppData\Local\Temp\ccPE45pB.s:1225   .rodata.accel_cal.str1.4:00000000 $d
C:\Users\samue\AppData\Local\Temp\ccPE45pB.s:1229   .text.accel_cal:00000000 $t
C:\Users\samue\AppData\Local\Temp\ccPE45pB.s:1235   .text.accel_cal:00000000 accel_cal
C:\Users\samue\AppData\Local\Temp\ccPE45pB.s:1320   .text.accel_cal:0000005c $d
C:\Users\samue\AppData\Local\Temp\ccPE45pB.s:1332   .text.MPU6050_read_gyro:00000000 $t
C:\Users\samue\AppData\Local\Temp\ccPE45pB.s:1338   .text.MPU6050_read_gyro:00000000 MPU6050_read_gyro
C:\Users\samue\AppData\Local\Temp\ccPE45pB.s:1459   .text.MPU6050_read_gyro:000000a8 $d
C:\Users\samue\AppData\Local\Temp\ccPE45pB.s:1464   .rodata.normal.str1.4:00000000 $d
C:\Users\samue\AppData\Local\Temp\ccPE45pB.s:1493   .text.normal:00000000 $t
C:\Users\samue\AppData\Local\Temp\ccPE45pB.s:1499   .text.normal:00000000 normal
C:\Users\samue\AppData\Local\Temp\ccPE45pB.s:1868   .text.normal:00000200 $d
C:\Users\samue\AppData\Local\Temp\ccPE45pB.s:1890   .text.HAL_GPIO_EXTI_Callback:00000000 $t
C:\Users\samue\AppData\Local\Temp\ccPE45pB.s:1896   .text.HAL_GPIO_EXTI_Callback:00000000 HAL_GPIO_EXTI_Callback
C:\Users\samue\AppData\Local\Temp\ccPE45pB.s:1914   .text.HAL_GPIO_EXTI_Callback:00000008 $d
C:\Users\samue\AppData\Local\Temp\ccPE45pB.s:1919   .text.Error_Handler:00000000 $t
C:\Users\samue\AppData\Local\Temp\ccPE45pB.s:1925   .text.Error_Handler:00000000 Error_Handler
C:\Users\samue\AppData\Local\Temp\ccPE45pB.s:1957   .text.MX_USART2_UART_Init:00000000 $t
C:\Users\samue\AppData\Local\Temp\ccPE45pB.s:1962   .text.MX_USART2_UART_Init:00000000 MX_USART2_UART_Init
ARM GAS  C:\Users\samue\AppData\Local\Temp\ccPE45pB.s 			page 69


C:\Users\samue\AppData\Local\Temp\ccPE45pB.s:2017   .text.MX_USART2_UART_Init:0000002c $d
C:\Users\samue\AppData\Local\Temp\ccPE45pB.s:2023   .text.MX_I2C1_Init:00000000 $t
C:\Users\samue\AppData\Local\Temp\ccPE45pB.s:2028   .text.MX_I2C1_Init:00000000 MX_I2C1_Init
C:\Users\samue\AppData\Local\Temp\ccPE45pB.s:2086   .text.MX_I2C1_Init:0000002c $d
C:\Users\samue\AppData\Local\Temp\ccPE45pB.s:2093   .text.SystemClock_Config:00000000 $t
C:\Users\samue\AppData\Local\Temp\ccPE45pB.s:2099   .text.SystemClock_Config:00000000 SystemClock_Config
C:\Users\samue\AppData\Local\Temp\ccPE45pB.s:2246   .text.SystemClock_Config:00000098 $d
C:\Users\samue\AppData\Local\Temp\ccPE45pB.s:2252   .text.main:00000000 $t
C:\Users\samue\AppData\Local\Temp\ccPE45pB.s:2258   .text.main:00000000 main
C:\Users\samue\AppData\Local\Temp\ccPE45pB.s:2325   .text.main:0000004c $d
C:\Users\samue\AppData\Local\Temp\ccPE45pB.s:2380   .bss.buf:00000000 buf
C:\Users\samue\AppData\Local\Temp\ccPE45pB.s:2400   .bss.gyro_corr_p:00000000 gyro_corr_p
C:\Users\samue\AppData\Local\Temp\ccPE45pB.s:2393   .bss.gyro_corr:00000000 gyro_corr
C:\Users\samue\AppData\Local\Temp\ccPE45pB.s:2414   .bss.gyro_data_p:00000000 gyro_data_p
C:\Users\samue\AppData\Local\Temp\ccPE45pB.s:2407   .bss.gyro_data:00000000 gyro_data
C:\Users\samue\AppData\Local\Temp\ccPE45pB.s:2359   .bss.accel_corr_p:00000000 accel_corr_p
C:\Users\samue\AppData\Local\Temp\ccPE45pB.s:2352   .bss.accel_corr:00000000 accel_corr
C:\Users\samue\AppData\Local\Temp\ccPE45pB.s:2373   .bss.accel_data_p:00000000 accel_data_p
C:\Users\samue\AppData\Local\Temp\ccPE45pB.s:2366   .bss.accel_data:00000000 accel_data
C:\Users\samue\AppData\Local\Temp\ccPE45pB.s:2440   .bss.input:00000000 input
C:\Users\samue\AppData\Local\Temp\ccPE45pB.s:2447   .bss.state:00000000 state
C:\Users\samue\AppData\Local\Temp\ccPE45pB.s:2386   .bss.flag:00000000 flag
C:\Users\samue\AppData\Local\Temp\ccPE45pB.s:2454   .rodata.FSM:00000000 FSM
C:\Users\samue\AppData\Local\Temp\ccPE45pB.s:2420   .bss.hdma_usart2_tx:00000000 hdma_usart2_tx
C:\Users\samue\AppData\Local\Temp\ccPE45pB.s:2434   .bss.huart2:00000000 huart2
C:\Users\samue\AppData\Local\Temp\ccPE45pB.s:2427   .bss.hi2c1:00000000 hi2c1
C:\Users\samue\AppData\Local\Temp\ccPE45pB.s:2348   .bss.accel_corr:00000000 $d
C:\Users\samue\AppData\Local\Temp\ccPE45pB.s:2355   .bss.accel_corr_p:00000000 $d
C:\Users\samue\AppData\Local\Temp\ccPE45pB.s:2362   .bss.accel_data:00000000 $d
C:\Users\samue\AppData\Local\Temp\ccPE45pB.s:2369   .bss.accel_data_p:00000000 $d
C:\Users\samue\AppData\Local\Temp\ccPE45pB.s:2376   .bss.buf:00000000 $d
C:\Users\samue\AppData\Local\Temp\ccPE45pB.s:2387   .bss.flag:00000000 $d
C:\Users\samue\AppData\Local\Temp\ccPE45pB.s:2389   .bss.gyro_corr:00000000 $d
C:\Users\samue\AppData\Local\Temp\ccPE45pB.s:2396   .bss.gyro_corr_p:00000000 $d
C:\Users\samue\AppData\Local\Temp\ccPE45pB.s:2403   .bss.gyro_data:00000000 $d
C:\Users\samue\AppData\Local\Temp\ccPE45pB.s:2410   .bss.gyro_data_p:00000000 $d
C:\Users\samue\AppData\Local\Temp\ccPE45pB.s:2417   .bss.hdma_usart2_tx:00000000 $d
C:\Users\samue\AppData\Local\Temp\ccPE45pB.s:2423   .bss.hi2c1:00000000 $d
C:\Users\samue\AppData\Local\Temp\ccPE45pB.s:2430   .bss.huart2:00000000 $d
C:\Users\samue\AppData\Local\Temp\ccPE45pB.s:2437   .bss.input:00000000 $d
C:\Users\samue\AppData\Local\Temp\ccPE45pB.s:2443   .bss.state:00000000 $d
C:\Users\samue\AppData\Local\Temp\ccPE45pB.s:2450   .rodata.FSM:00000000 $d

UNDEFINED SYMBOLS
HAL_GPIO_WritePin
HAL_GPIO_Init
HAL_NVIC_SetPriority
HAL_NVIC_EnableIRQ
HAL_I2C_Master_Transmit
HAL_Delay
HAL_I2C_Mem_Read
HAL_I2C_Mem_Write
lcd_clear
__aeabi_f2d
sprintf
HAL_UART_Init
HAL_I2C_Init
ARM GAS  C:\Users\samue\AppData\Local\Temp\ccPE45pB.s 			page 70


memset
HAL_RCC_OscConfig
HAL_RCC_ClockConfig
HAL_Init
