ARM GAS  C:\Users\samue\AppData\Local\Temp\ccNHm7Ur.s 			page 1


   1              		.cpu cortex-m4
   2              		.arch armv7e-m
   3              		.fpu fpv4-sp-d16
   4              		.eabi_attribute 27, 1
   5              		.eabi_attribute 28, 1
   6              		.eabi_attribute 20, 1
   7              		.eabi_attribute 21, 1
   8              		.eabi_attribute 23, 3
   9              		.eabi_attribute 24, 1
  10              		.eabi_attribute 25, 1
  11              		.eabi_attribute 26, 1
  12              		.eabi_attribute 30, 1
  13              		.eabi_attribute 34, 1
  14              		.eabi_attribute 18, 4
  15              		.file	"main.c"
  16              		.text
  17              	.Ltext0:
  18              		.cfi_sections	.debug_frame
  19              		.section	.text.MX_GPIO_Init,"ax",%progbits
  20              		.align	1
  21              		.syntax unified
  22              		.thumb
  23              		.thumb_func
  25              	MX_GPIO_Init:
  26              	.LFB135:
  27              		.file 1 "Core/Src/main.c"
   1:Core/Src/main.c **** /* USER CODE BEGIN Header */
   2:Core/Src/main.c **** /**
   3:Core/Src/main.c ****   ******************************************************************************
   4:Core/Src/main.c ****   * @file           : main.c
   5:Core/Src/main.c ****   * @brief          : Main program body
   6:Core/Src/main.c ****   ******************************************************************************
   7:Core/Src/main.c ****   * @attention
   8:Core/Src/main.c ****   *
   9:Core/Src/main.c ****   * <h2><center>&copy; Copyright (c) 2021 STMicroelectronics.
  10:Core/Src/main.c ****   * All rights reserved.</center></h2>
  11:Core/Src/main.c ****   *
  12:Core/Src/main.c ****   * This software component is licensed by ST under BSD 3-Clause license,
  13:Core/Src/main.c ****   * the "License"; You may not use this file except in compliance with the
  14:Core/Src/main.c ****   * License. You may obtain a copy of the License at:
  15:Core/Src/main.c ****   *                        opensource.org/licenses/BSD-3-Clause
  16:Core/Src/main.c ****   *
  17:Core/Src/main.c ****   ******************************************************************************
  18:Core/Src/main.c ****   */
  19:Core/Src/main.c **** /* USER CODE END Header */
  20:Core/Src/main.c **** /* Includes ------------------------------------------------------------------*/
  21:Core/Src/main.c **** #include "main.h"
  22:Core/Src/main.c **** #include "main_functions.h"
  23:Core/Src/main.c **** 
  24:Core/Src/main.c **** /* Private includes ----------------------------------------------------------*/
  25:Core/Src/main.c **** /* USER CODE BEGIN Includes */
  26:Core/Src/main.c **** 
  27:Core/Src/main.c **** /* USER CODE END Includes */
  28:Core/Src/main.c **** 
  29:Core/Src/main.c **** /* Private typedef -----------------------------------------------------------*/
  30:Core/Src/main.c **** /* USER CODE BEGIN PTD */
  31:Core/Src/main.c **** 
ARM GAS  C:\Users\samue\AppData\Local\Temp\ccNHm7Ur.s 			page 2


  32:Core/Src/main.c **** /* USER CODE END PTD */
  33:Core/Src/main.c **** 
  34:Core/Src/main.c **** /* Private define ------------------------------------------------------------*/
  35:Core/Src/main.c **** /* USER CODE BEGIN PD */
  36:Core/Src/main.c **** 
  37:Core/Src/main.c **** /* USER CODE END PD */
  38:Core/Src/main.c **** 
  39:Core/Src/main.c **** /* Private macro -------------------------------------------------------------*/
  40:Core/Src/main.c **** /* USER CODE BEGIN PM */
  41:Core/Src/main.c **** 
  42:Core/Src/main.c **** /* USER CODE END PM */
  43:Core/Src/main.c **** 
  44:Core/Src/main.c **** /* Private variables ---------------------------------------------------------*/
  45:Core/Src/main.c **** I2C_HandleTypeDef hi2c1;
  46:Core/Src/main.c **** 
  47:Core/Src/main.c **** UART_HandleTypeDef huart2;
  48:Core/Src/main.c **** DMA_HandleTypeDef hdma_usart2_tx;
  49:Core/Src/main.c **** 
  50:Core/Src/main.c **** /* USER CODE BEGIN PV */
  51:Core/Src/main.c **** 
  52:Core/Src/main.c **** /* USER CODE END PV */
  53:Core/Src/main.c **** 
  54:Core/Src/main.c **** /* Private function prototypes -----------------------------------------------*/
  55:Core/Src/main.c **** void SystemClock_Config(void);
  56:Core/Src/main.c **** static void MX_GPIO_Init(void);
  57:Core/Src/main.c **** static void MX_DMA_Init(void);
  58:Core/Src/main.c **** static void MX_USART2_UART_Init(void);
  59:Core/Src/main.c **** static void MX_I2C1_Init(void);
  60:Core/Src/main.c **** /* USER CODE BEGIN PFP */
  61:Core/Src/main.c **** 
  62:Core/Src/main.c **** /* USER CODE END PFP */
  63:Core/Src/main.c **** 
  64:Core/Src/main.c **** /* Private user code ---------------------------------------------------------*/
  65:Core/Src/main.c **** /* USER CODE BEGIN 0 */
  66:Core/Src/main.c **** 
  67:Core/Src/main.c **** /* USER CODE END 0 */
  68:Core/Src/main.c **** 
  69:Core/Src/main.c **** /**
  70:Core/Src/main.c ****   * @brief  The application entry point.
  71:Core/Src/main.c ****   * @retval int
  72:Core/Src/main.c ****   */
  73:Core/Src/main.c **** int main(void)
  74:Core/Src/main.c **** {
  75:Core/Src/main.c ****   /* USER CODE BEGIN 1 */
  76:Core/Src/main.c **** 
  77:Core/Src/main.c **** 	// state = startup_state;   // Initialize to state 0
  78:Core/Src/main.c **** 
  79:Core/Src/main.c ****   /* USER CODE END 1 */
  80:Core/Src/main.c **** 
  81:Core/Src/main.c ****   /* MCU Configuration--------------------------------------------------------*/
  82:Core/Src/main.c **** 
  83:Core/Src/main.c ****   /* Reset of all peripherals, Initializes the Flash interface and the Systick. */
  84:Core/Src/main.c ****   HAL_Init();
  85:Core/Src/main.c **** 
  86:Core/Src/main.c ****   /* USER CODE BEGIN Init */
  87:Core/Src/main.c **** 
  88:Core/Src/main.c ****   /* USER CODE END Init */
ARM GAS  C:\Users\samue\AppData\Local\Temp\ccNHm7Ur.s 			page 3


  89:Core/Src/main.c **** 
  90:Core/Src/main.c ****   /* Configure the system clock */
  91:Core/Src/main.c ****   SystemClock_Config();
  92:Core/Src/main.c **** 
  93:Core/Src/main.c ****   /* USER CODE BEGIN SysInit */
  94:Core/Src/main.c **** 
  95:Core/Src/main.c ****   /* USER CODE END SysInit */
  96:Core/Src/main.c **** 
  97:Core/Src/main.c ****   /* Initialize all configured peripherals */
  98:Core/Src/main.c ****   MX_GPIO_Init();
  99:Core/Src/main.c ****   MX_DMA_Init();
 100:Core/Src/main.c ****   MX_USART2_UART_Init();
 101:Core/Src/main.c ****   MX_I2C1_Init();
 102:Core/Src/main.c ****   /* USER CODE BEGIN 2 */
 103:Core/Src/main.c **** 
 104:Core/Src/main.c ****   // HAL_UART_Transmit_DMA(&huart2, (uint8_t*)msg, sizeof(msg)/sizeof(msg[0]));
 105:Core/Src/main.c **** 
 106:Core/Src/main.c ****   /* USER CODE END 2 */
 107:Core/Src/main.c **** 
 108:Core/Src/main.c ****   /* Infinite loop */
 109:Core/Src/main.c ****   /* USER CODE BEGIN WHILE */
 110:Core/Src/main.c ****   while (1)
 111:Core/Src/main.c ****   {
 112:Core/Src/main.c ****     /* USER CODE END WHILE */
 113:Core/Src/main.c **** 
 114:Core/Src/main.c ****     /* USER CODE BEGIN 3 */
 115:Core/Src/main.c ****     main_function();
 116:Core/Src/main.c ****   }
 117:Core/Src/main.c ****   /* USER CODE END 3 */
 118:Core/Src/main.c **** }
 119:Core/Src/main.c **** 
 120:Core/Src/main.c **** /**
 121:Core/Src/main.c ****   * @brief System Clock Configuration
 122:Core/Src/main.c ****   * @retval None
 123:Core/Src/main.c ****   */
 124:Core/Src/main.c **** void SystemClock_Config(void)
 125:Core/Src/main.c **** {
 126:Core/Src/main.c ****   RCC_OscInitTypeDef RCC_OscInitStruct = {0};
 127:Core/Src/main.c ****   RCC_ClkInitTypeDef RCC_ClkInitStruct = {0};
 128:Core/Src/main.c **** 
 129:Core/Src/main.c ****   /** Configure the main internal regulator output voltage
 130:Core/Src/main.c ****   */
 131:Core/Src/main.c ****   __HAL_RCC_PWR_CLK_ENABLE();
 132:Core/Src/main.c ****   __HAL_PWR_VOLTAGESCALING_CONFIG(PWR_REGULATOR_VOLTAGE_SCALE1);
 133:Core/Src/main.c ****   /** Initializes the RCC Oscillators according to the specified parameters
 134:Core/Src/main.c ****   * in the RCC_OscInitTypeDef structure.
 135:Core/Src/main.c ****   */
 136:Core/Src/main.c ****   RCC_OscInitStruct.OscillatorType = RCC_OSCILLATORTYPE_HSI;
 137:Core/Src/main.c ****   RCC_OscInitStruct.HSIState = RCC_HSI_ON;
 138:Core/Src/main.c ****   RCC_OscInitStruct.HSICalibrationValue = RCC_HSICALIBRATION_DEFAULT;
 139:Core/Src/main.c ****   RCC_OscInitStruct.PLL.PLLState = RCC_PLL_ON;
 140:Core/Src/main.c ****   RCC_OscInitStruct.PLL.PLLSource = RCC_PLLSOURCE_HSI;
 141:Core/Src/main.c ****   RCC_OscInitStruct.PLL.PLLM = 16;
 142:Core/Src/main.c ****   RCC_OscInitStruct.PLL.PLLN = 336;
 143:Core/Src/main.c ****   RCC_OscInitStruct.PLL.PLLP = RCC_PLLP_DIV4;
 144:Core/Src/main.c ****   RCC_OscInitStruct.PLL.PLLQ = 4;
 145:Core/Src/main.c ****   if (HAL_RCC_OscConfig(&RCC_OscInitStruct) != HAL_OK)
ARM GAS  C:\Users\samue\AppData\Local\Temp\ccNHm7Ur.s 			page 4


 146:Core/Src/main.c ****   {
 147:Core/Src/main.c ****     Error_Handler();
 148:Core/Src/main.c ****   }
 149:Core/Src/main.c ****   /** Initializes the CPU, AHB and APB buses clocks
 150:Core/Src/main.c ****   */
 151:Core/Src/main.c ****   RCC_ClkInitStruct.ClockType = RCC_CLOCKTYPE_HCLK|RCC_CLOCKTYPE_SYSCLK
 152:Core/Src/main.c ****                               |RCC_CLOCKTYPE_PCLK1|RCC_CLOCKTYPE_PCLK2;
 153:Core/Src/main.c ****   RCC_ClkInitStruct.SYSCLKSource = RCC_SYSCLKSOURCE_PLLCLK;
 154:Core/Src/main.c ****   RCC_ClkInitStruct.AHBCLKDivider = RCC_SYSCLK_DIV1;
 155:Core/Src/main.c ****   RCC_ClkInitStruct.APB1CLKDivider = RCC_HCLK_DIV2;
 156:Core/Src/main.c ****   RCC_ClkInitStruct.APB2CLKDivider = RCC_HCLK_DIV1;
 157:Core/Src/main.c **** 
 158:Core/Src/main.c ****   if (HAL_RCC_ClockConfig(&RCC_ClkInitStruct, FLASH_LATENCY_2) != HAL_OK)
 159:Core/Src/main.c ****   {
 160:Core/Src/main.c ****     Error_Handler();
 161:Core/Src/main.c ****   }
 162:Core/Src/main.c **** }
 163:Core/Src/main.c **** 
 164:Core/Src/main.c **** /**
 165:Core/Src/main.c ****   * @brief I2C1 Initialization Function
 166:Core/Src/main.c ****   * @param None
 167:Core/Src/main.c ****   * @retval None
 168:Core/Src/main.c ****   */
 169:Core/Src/main.c **** static void MX_I2C1_Init(void)
 170:Core/Src/main.c **** {
 171:Core/Src/main.c **** 
 172:Core/Src/main.c ****   /* USER CODE BEGIN I2C1_Init 0 */
 173:Core/Src/main.c **** 
 174:Core/Src/main.c ****   /* USER CODE END I2C1_Init 0 */
 175:Core/Src/main.c **** 
 176:Core/Src/main.c ****   /* USER CODE BEGIN I2C1_Init 1 */
 177:Core/Src/main.c **** 
 178:Core/Src/main.c ****   /* USER CODE END I2C1_Init 1 */
 179:Core/Src/main.c ****   hi2c1.Instance = I2C1;
 180:Core/Src/main.c ****   hi2c1.Init.ClockSpeed = 100000;
 181:Core/Src/main.c ****   hi2c1.Init.DutyCycle = I2C_DUTYCYCLE_2;
 182:Core/Src/main.c ****   hi2c1.Init.OwnAddress1 = 0;
 183:Core/Src/main.c ****   hi2c1.Init.AddressingMode = I2C_ADDRESSINGMODE_7BIT;
 184:Core/Src/main.c ****   hi2c1.Init.DualAddressMode = I2C_DUALADDRESS_DISABLE;
 185:Core/Src/main.c ****   hi2c1.Init.OwnAddress2 = 0;
 186:Core/Src/main.c ****   hi2c1.Init.GeneralCallMode = I2C_GENERALCALL_DISABLE;
 187:Core/Src/main.c ****   hi2c1.Init.NoStretchMode = I2C_NOSTRETCH_DISABLE;
 188:Core/Src/main.c ****   if (HAL_I2C_Init(&hi2c1) != HAL_OK)
 189:Core/Src/main.c ****   {
 190:Core/Src/main.c ****     Error_Handler();
 191:Core/Src/main.c ****   }
 192:Core/Src/main.c ****   /* USER CODE BEGIN I2C1_Init 2 */
 193:Core/Src/main.c **** 
 194:Core/Src/main.c ****   /* USER CODE END I2C1_Init 2 */
 195:Core/Src/main.c **** 
 196:Core/Src/main.c **** }
 197:Core/Src/main.c **** 
 198:Core/Src/main.c **** /**
 199:Core/Src/main.c ****   * @brief USART2 Initialization Function
 200:Core/Src/main.c ****   * @param None
 201:Core/Src/main.c ****   * @retval None
 202:Core/Src/main.c ****   */
ARM GAS  C:\Users\samue\AppData\Local\Temp\ccNHm7Ur.s 			page 5


 203:Core/Src/main.c **** static void MX_USART2_UART_Init(void)
 204:Core/Src/main.c **** {
 205:Core/Src/main.c **** 
 206:Core/Src/main.c ****   /* USER CODE BEGIN USART2_Init 0 */
 207:Core/Src/main.c **** 
 208:Core/Src/main.c ****   /* USER CODE END USART2_Init 0 */
 209:Core/Src/main.c **** 
 210:Core/Src/main.c ****   /* USER CODE BEGIN USART2_Init 1 */
 211:Core/Src/main.c **** 
 212:Core/Src/main.c ****   /* USER CODE END USART2_Init 1 */
 213:Core/Src/main.c ****   huart2.Instance = USART2;
 214:Core/Src/main.c ****   huart2.Init.BaudRate = 115200;
 215:Core/Src/main.c ****   huart2.Init.WordLength = UART_WORDLENGTH_8B;
 216:Core/Src/main.c ****   huart2.Init.StopBits = UART_STOPBITS_1;
 217:Core/Src/main.c ****   huart2.Init.Parity = UART_PARITY_NONE;
 218:Core/Src/main.c ****   huart2.Init.Mode = UART_MODE_TX_RX;
 219:Core/Src/main.c ****   huart2.Init.HwFlowCtl = UART_HWCONTROL_NONE;
 220:Core/Src/main.c ****   huart2.Init.OverSampling = UART_OVERSAMPLING_16;
 221:Core/Src/main.c ****   if (HAL_UART_Init(&huart2) != HAL_OK)
 222:Core/Src/main.c ****   {
 223:Core/Src/main.c ****     Error_Handler();
 224:Core/Src/main.c ****   }
 225:Core/Src/main.c ****   /* USER CODE BEGIN USART2_Init 2 */
 226:Core/Src/main.c **** 
 227:Core/Src/main.c ****   /* USER CODE END USART2_Init 2 */
 228:Core/Src/main.c **** 
 229:Core/Src/main.c **** }
 230:Core/Src/main.c **** 
 231:Core/Src/main.c **** /**
 232:Core/Src/main.c ****   * Enable DMA controller clock
 233:Core/Src/main.c ****   */
 234:Core/Src/main.c **** static void MX_DMA_Init(void)
 235:Core/Src/main.c **** {
 236:Core/Src/main.c **** 
 237:Core/Src/main.c ****   /* DMA controller clock enable */
 238:Core/Src/main.c ****   __HAL_RCC_DMA1_CLK_ENABLE();
 239:Core/Src/main.c **** 
 240:Core/Src/main.c ****   /* DMA interrupt init */
 241:Core/Src/main.c ****   /* DMA1_Stream6_IRQn interrupt configuration */
 242:Core/Src/main.c ****   HAL_NVIC_SetPriority(DMA1_Stream6_IRQn, 0, 0);
 243:Core/Src/main.c ****   HAL_NVIC_EnableIRQ(DMA1_Stream6_IRQn);
 244:Core/Src/main.c **** 
 245:Core/Src/main.c **** }
 246:Core/Src/main.c **** 
 247:Core/Src/main.c **** /**
 248:Core/Src/main.c ****   * @brief GPIO Initialization Function
 249:Core/Src/main.c ****   * @param None
 250:Core/Src/main.c ****   * @retval None
 251:Core/Src/main.c ****   */
 252:Core/Src/main.c **** static void MX_GPIO_Init(void)
 253:Core/Src/main.c **** {
  28              		.loc 1 253 1 view -0
  29              		.cfi_startproc
  30              		@ args = 0, pretend = 0, frame = 40
  31              		@ frame_needed = 0, uses_anonymous_args = 0
  32 0000 70B5     		push	{r4, r5, r6, lr}
  33              	.LCFI0:
ARM GAS  C:\Users\samue\AppData\Local\Temp\ccNHm7Ur.s 			page 6


  34              		.cfi_def_cfa_offset 16
  35              		.cfi_offset 4, -16
  36              		.cfi_offset 5, -12
  37              		.cfi_offset 6, -8
  38              		.cfi_offset 14, -4
  39 0002 8AB0     		sub	sp, sp, #40
  40              	.LCFI1:
  41              		.cfi_def_cfa_offset 56
 254:Core/Src/main.c ****   GPIO_InitTypeDef GPIO_InitStruct = {0};
  42              		.loc 1 254 3 view .LVU1
  43              		.loc 1 254 20 is_stmt 0 view .LVU2
  44 0004 0024     		movs	r4, #0
  45 0006 0594     		str	r4, [sp, #20]
  46 0008 0694     		str	r4, [sp, #24]
  47 000a 0794     		str	r4, [sp, #28]
  48 000c 0894     		str	r4, [sp, #32]
  49 000e 0994     		str	r4, [sp, #36]
 255:Core/Src/main.c **** 
 256:Core/Src/main.c ****   /* GPIO Ports Clock Enable */
 257:Core/Src/main.c ****   __HAL_RCC_GPIOC_CLK_ENABLE();
  50              		.loc 1 257 3 is_stmt 1 view .LVU3
  51              	.LBB4:
  52              		.loc 1 257 3 view .LVU4
  53 0010 0194     		str	r4, [sp, #4]
  54              		.loc 1 257 3 view .LVU5
  55 0012 2C4B     		ldr	r3, .L3
  56 0014 1A6B     		ldr	r2, [r3, #48]
  57 0016 42F00402 		orr	r2, r2, #4
  58 001a 1A63     		str	r2, [r3, #48]
  59              		.loc 1 257 3 view .LVU6
  60 001c 1A6B     		ldr	r2, [r3, #48]
  61 001e 02F00402 		and	r2, r2, #4
  62 0022 0192     		str	r2, [sp, #4]
  63              		.loc 1 257 3 view .LVU7
  64 0024 019A     		ldr	r2, [sp, #4]
  65              	.LBE4:
  66              		.loc 1 257 3 view .LVU8
 258:Core/Src/main.c ****   __HAL_RCC_GPIOH_CLK_ENABLE();
  67              		.loc 1 258 3 view .LVU9
  68              	.LBB5:
  69              		.loc 1 258 3 view .LVU10
  70 0026 0294     		str	r4, [sp, #8]
  71              		.loc 1 258 3 view .LVU11
  72 0028 1A6B     		ldr	r2, [r3, #48]
  73 002a 42F08002 		orr	r2, r2, #128
  74 002e 1A63     		str	r2, [r3, #48]
  75              		.loc 1 258 3 view .LVU12
  76 0030 1A6B     		ldr	r2, [r3, #48]
  77 0032 02F08002 		and	r2, r2, #128
  78 0036 0292     		str	r2, [sp, #8]
  79              		.loc 1 258 3 view .LVU13
  80 0038 029A     		ldr	r2, [sp, #8]
  81              	.LBE5:
  82              		.loc 1 258 3 view .LVU14
 259:Core/Src/main.c ****   __HAL_RCC_GPIOA_CLK_ENABLE();
  83              		.loc 1 259 3 view .LVU15
  84              	.LBB6:
ARM GAS  C:\Users\samue\AppData\Local\Temp\ccNHm7Ur.s 			page 7


  85              		.loc 1 259 3 view .LVU16
  86 003a 0394     		str	r4, [sp, #12]
  87              		.loc 1 259 3 view .LVU17
  88 003c 1A6B     		ldr	r2, [r3, #48]
  89 003e 42F00102 		orr	r2, r2, #1
  90 0042 1A63     		str	r2, [r3, #48]
  91              		.loc 1 259 3 view .LVU18
  92 0044 1A6B     		ldr	r2, [r3, #48]
  93 0046 02F00102 		and	r2, r2, #1
  94 004a 0392     		str	r2, [sp, #12]
  95              		.loc 1 259 3 view .LVU19
  96 004c 039A     		ldr	r2, [sp, #12]
  97              	.LBE6:
  98              		.loc 1 259 3 view .LVU20
 260:Core/Src/main.c ****   __HAL_RCC_GPIOB_CLK_ENABLE();
  99              		.loc 1 260 3 view .LVU21
 100              	.LBB7:
 101              		.loc 1 260 3 view .LVU22
 102 004e 0494     		str	r4, [sp, #16]
 103              		.loc 1 260 3 view .LVU23
 104 0050 1A6B     		ldr	r2, [r3, #48]
 105 0052 42F00202 		orr	r2, r2, #2
 106 0056 1A63     		str	r2, [r3, #48]
 107              		.loc 1 260 3 view .LVU24
 108 0058 1B6B     		ldr	r3, [r3, #48]
 109 005a 03F00203 		and	r3, r3, #2
 110 005e 0493     		str	r3, [sp, #16]
 111              		.loc 1 260 3 view .LVU25
 112 0060 049B     		ldr	r3, [sp, #16]
 113              	.LBE7:
 114              		.loc 1 260 3 view .LVU26
 261:Core/Src/main.c **** 
 262:Core/Src/main.c ****   /*Configure GPIO pin Output Level */
 263:Core/Src/main.c ****   HAL_GPIO_WritePin(LD2_GPIO_Port, LD2_Pin, GPIO_PIN_RESET);
 115              		.loc 1 263 3 view .LVU27
 116 0062 194D     		ldr	r5, .L3+4
 117 0064 2246     		mov	r2, r4
 118 0066 2021     		movs	r1, #32
 119 0068 2846     		mov	r0, r5
 120 006a FFF7FEFF 		bl	HAL_GPIO_WritePin
 121              	.LVL0:
 264:Core/Src/main.c **** 
 265:Core/Src/main.c ****   /*Configure GPIO pin : B1_Pin */
 266:Core/Src/main.c ****   GPIO_InitStruct.Pin = B1_Pin;
 122              		.loc 1 266 3 view .LVU28
 123              		.loc 1 266 23 is_stmt 0 view .LVU29
 124 006e 4FF40053 		mov	r3, #8192
 125 0072 0593     		str	r3, [sp, #20]
 267:Core/Src/main.c ****   GPIO_InitStruct.Mode = GPIO_MODE_IT_FALLING;
 126              		.loc 1 267 3 is_stmt 1 view .LVU30
 127              		.loc 1 267 24 is_stmt 0 view .LVU31
 128 0074 4FF40413 		mov	r3, #2162688
 129 0078 0693     		str	r3, [sp, #24]
 268:Core/Src/main.c ****   GPIO_InitStruct.Pull = GPIO_NOPULL;
 130              		.loc 1 268 3 is_stmt 1 view .LVU32
 131              		.loc 1 268 24 is_stmt 0 view .LVU33
 132 007a 0794     		str	r4, [sp, #28]
ARM GAS  C:\Users\samue\AppData\Local\Temp\ccNHm7Ur.s 			page 8


 269:Core/Src/main.c ****   HAL_GPIO_Init(B1_GPIO_Port, &GPIO_InitStruct);
 133              		.loc 1 269 3 is_stmt 1 view .LVU34
 134 007c 134E     		ldr	r6, .L3+8
 135 007e 05A9     		add	r1, sp, #20
 136 0080 3046     		mov	r0, r6
 137 0082 FFF7FEFF 		bl	HAL_GPIO_Init
 138              	.LVL1:
 270:Core/Src/main.c **** 
 271:Core/Src/main.c ****   /*Configure GPIO pin : PC2 */
 272:Core/Src/main.c ****   GPIO_InitStruct.Pin = GPIO_PIN_2;
 139              		.loc 1 272 3 view .LVU35
 140              		.loc 1 272 23 is_stmt 0 view .LVU36
 141 0086 0423     		movs	r3, #4
 142 0088 0593     		str	r3, [sp, #20]
 273:Core/Src/main.c ****   GPIO_InitStruct.Mode = GPIO_MODE_IT_RISING;
 143              		.loc 1 273 3 is_stmt 1 view .LVU37
 144              		.loc 1 273 24 is_stmt 0 view .LVU38
 145 008a 4FF48813 		mov	r3, #1114112
 146 008e 0693     		str	r3, [sp, #24]
 274:Core/Src/main.c ****   GPIO_InitStruct.Pull = GPIO_NOPULL;
 147              		.loc 1 274 3 is_stmt 1 view .LVU39
 148              		.loc 1 274 24 is_stmt 0 view .LVU40
 149 0090 0794     		str	r4, [sp, #28]
 275:Core/Src/main.c ****   HAL_GPIO_Init(GPIOC, &GPIO_InitStruct);
 150              		.loc 1 275 3 is_stmt 1 view .LVU41
 151 0092 05A9     		add	r1, sp, #20
 152 0094 3046     		mov	r0, r6
 153 0096 FFF7FEFF 		bl	HAL_GPIO_Init
 154              	.LVL2:
 276:Core/Src/main.c **** 
 277:Core/Src/main.c ****   /*Configure GPIO pin : LD2_Pin */
 278:Core/Src/main.c ****   GPIO_InitStruct.Pin = LD2_Pin;
 155              		.loc 1 278 3 view .LVU42
 156              		.loc 1 278 23 is_stmt 0 view .LVU43
 157 009a 2023     		movs	r3, #32
 158 009c 0593     		str	r3, [sp, #20]
 279:Core/Src/main.c ****   GPIO_InitStruct.Mode = GPIO_MODE_OUTPUT_PP;
 159              		.loc 1 279 3 is_stmt 1 view .LVU44
 160              		.loc 1 279 24 is_stmt 0 view .LVU45
 161 009e 0123     		movs	r3, #1
 162 00a0 0693     		str	r3, [sp, #24]
 280:Core/Src/main.c ****   GPIO_InitStruct.Pull = GPIO_NOPULL;
 163              		.loc 1 280 3 is_stmt 1 view .LVU46
 164              		.loc 1 280 24 is_stmt 0 view .LVU47
 165 00a2 0794     		str	r4, [sp, #28]
 281:Core/Src/main.c ****   GPIO_InitStruct.Speed = GPIO_SPEED_FREQ_LOW;
 166              		.loc 1 281 3 is_stmt 1 view .LVU48
 167              		.loc 1 281 25 is_stmt 0 view .LVU49
 168 00a4 0894     		str	r4, [sp, #32]
 282:Core/Src/main.c ****   HAL_GPIO_Init(LD2_GPIO_Port, &GPIO_InitStruct);
 169              		.loc 1 282 3 is_stmt 1 view .LVU50
 170 00a6 05A9     		add	r1, sp, #20
 171 00a8 2846     		mov	r0, r5
 172 00aa FFF7FEFF 		bl	HAL_GPIO_Init
 173              	.LVL3:
 283:Core/Src/main.c **** 
 284:Core/Src/main.c ****   /* EXTI interrupt init*/
ARM GAS  C:\Users\samue\AppData\Local\Temp\ccNHm7Ur.s 			page 9


 285:Core/Src/main.c ****   HAL_NVIC_SetPriority(EXTI2_IRQn, 0, 0);
 174              		.loc 1 285 3 view .LVU51
 175 00ae 2246     		mov	r2, r4
 176 00b0 2146     		mov	r1, r4
 177 00b2 0820     		movs	r0, #8
 178 00b4 FFF7FEFF 		bl	HAL_NVIC_SetPriority
 179              	.LVL4:
 286:Core/Src/main.c ****   HAL_NVIC_EnableIRQ(EXTI2_IRQn);
 180              		.loc 1 286 3 view .LVU52
 181 00b8 0820     		movs	r0, #8
 182 00ba FFF7FEFF 		bl	HAL_NVIC_EnableIRQ
 183              	.LVL5:
 287:Core/Src/main.c **** 
 288:Core/Src/main.c **** }
 184              		.loc 1 288 1 is_stmt 0 view .LVU53
 185 00be 0AB0     		add	sp, sp, #40
 186              	.LCFI2:
 187              		.cfi_def_cfa_offset 16
 188              		@ sp needed
 189 00c0 70BD     		pop	{r4, r5, r6, pc}
 190              	.L4:
 191 00c2 00BF     		.align	2
 192              	.L3:
 193 00c4 00380240 		.word	1073887232
 194 00c8 00000240 		.word	1073872896
 195 00cc 00080240 		.word	1073874944
 196              		.cfi_endproc
 197              	.LFE135:
 199              		.section	.text.MX_DMA_Init,"ax",%progbits
 200              		.align	1
 201              		.syntax unified
 202              		.thumb
 203              		.thumb_func
 205              	MX_DMA_Init:
 206              	.LFB134:
 235:Core/Src/main.c **** 
 207              		.loc 1 235 1 is_stmt 1 view -0
 208              		.cfi_startproc
 209              		@ args = 0, pretend = 0, frame = 8
 210              		@ frame_needed = 0, uses_anonymous_args = 0
 211 0000 00B5     		push	{lr}
 212              	.LCFI3:
 213              		.cfi_def_cfa_offset 4
 214              		.cfi_offset 14, -4
 215 0002 83B0     		sub	sp, sp, #12
 216              	.LCFI4:
 217              		.cfi_def_cfa_offset 16
 238:Core/Src/main.c **** 
 218              		.loc 1 238 3 view .LVU55
 219              	.LBB8:
 238:Core/Src/main.c **** 
 220              		.loc 1 238 3 view .LVU56
 221 0004 0021     		movs	r1, #0
 222 0006 0191     		str	r1, [sp, #4]
 238:Core/Src/main.c **** 
 223              		.loc 1 238 3 view .LVU57
 224 0008 094B     		ldr	r3, .L7
ARM GAS  C:\Users\samue\AppData\Local\Temp\ccNHm7Ur.s 			page 10


 225 000a 1A6B     		ldr	r2, [r3, #48]
 226 000c 42F40012 		orr	r2, r2, #2097152
 227 0010 1A63     		str	r2, [r3, #48]
 238:Core/Src/main.c **** 
 228              		.loc 1 238 3 view .LVU58
 229 0012 1B6B     		ldr	r3, [r3, #48]
 230 0014 03F40013 		and	r3, r3, #2097152
 231 0018 0193     		str	r3, [sp, #4]
 238:Core/Src/main.c **** 
 232              		.loc 1 238 3 view .LVU59
 233 001a 019B     		ldr	r3, [sp, #4]
 234              	.LBE8:
 238:Core/Src/main.c **** 
 235              		.loc 1 238 3 view .LVU60
 242:Core/Src/main.c ****   HAL_NVIC_EnableIRQ(DMA1_Stream6_IRQn);
 236              		.loc 1 242 3 view .LVU61
 237 001c 0A46     		mov	r2, r1
 238 001e 1120     		movs	r0, #17
 239 0020 FFF7FEFF 		bl	HAL_NVIC_SetPriority
 240              	.LVL6:
 243:Core/Src/main.c **** 
 241              		.loc 1 243 3 view .LVU62
 242 0024 1120     		movs	r0, #17
 243 0026 FFF7FEFF 		bl	HAL_NVIC_EnableIRQ
 244              	.LVL7:
 245:Core/Src/main.c **** 
 245              		.loc 1 245 1 is_stmt 0 view .LVU63
 246 002a 03B0     		add	sp, sp, #12
 247              	.LCFI5:
 248              		.cfi_def_cfa_offset 4
 249              		@ sp needed
 250 002c 5DF804FB 		ldr	pc, [sp], #4
 251              	.L8:
 252              		.align	2
 253              	.L7:
 254 0030 00380240 		.word	1073887232
 255              		.cfi_endproc
 256              	.LFE134:
 258              		.section	.text.Error_Handler,"ax",%progbits
 259              		.align	1
 260              		.global	Error_Handler
 261              		.syntax unified
 262              		.thumb
 263              		.thumb_func
 265              	Error_Handler:
 266              	.LFB136:
 289:Core/Src/main.c **** 
 290:Core/Src/main.c **** /* USER CODE BEGIN 4 */
 291:Core/Src/main.c **** 
 292:Core/Src/main.c **** /* USER CODE END 4 */
 293:Core/Src/main.c **** 
 294:Core/Src/main.c **** /**
 295:Core/Src/main.c ****   * @brief  This function is executed in case of error occurrence.
 296:Core/Src/main.c ****   * @retval None
 297:Core/Src/main.c ****   */
 298:Core/Src/main.c **** void Error_Handler(void)
 299:Core/Src/main.c **** {
ARM GAS  C:\Users\samue\AppData\Local\Temp\ccNHm7Ur.s 			page 11


 267              		.loc 1 299 1 is_stmt 1 view -0
 268              		.cfi_startproc
 269              		@ Volatile: function does not return.
 270              		@ args = 0, pretend = 0, frame = 0
 271              		@ frame_needed = 0, uses_anonymous_args = 0
 272              		@ link register save eliminated.
 300:Core/Src/main.c ****   /* USER CODE BEGIN Error_Handler_Debug */
 301:Core/Src/main.c ****   /* User can add his own implementation to report the HAL error return state */
 302:Core/Src/main.c ****   __disable_irq();
 273              		.loc 1 302 3 view .LVU65
 274              	.LBB9:
 275              	.LBI9:
 276              		.file 2 "Drivers/CMSIS/Include/cmsis_gcc.h"
   1:Drivers/CMSIS/Include/cmsis_gcc.h **** /**************************************************************************//**
   2:Drivers/CMSIS/Include/cmsis_gcc.h ****  * @file     cmsis_gcc.h
   3:Drivers/CMSIS/Include/cmsis_gcc.h ****  * @brief    CMSIS compiler GCC header file
   4:Drivers/CMSIS/Include/cmsis_gcc.h ****  * @version  V5.0.4
   5:Drivers/CMSIS/Include/cmsis_gcc.h ****  * @date     09. April 2018
   6:Drivers/CMSIS/Include/cmsis_gcc.h ****  ******************************************************************************/
   7:Drivers/CMSIS/Include/cmsis_gcc.h **** /*
   8:Drivers/CMSIS/Include/cmsis_gcc.h ****  * Copyright (c) 2009-2018 Arm Limited. All rights reserved.
   9:Drivers/CMSIS/Include/cmsis_gcc.h ****  *
  10:Drivers/CMSIS/Include/cmsis_gcc.h ****  * SPDX-License-Identifier: Apache-2.0
  11:Drivers/CMSIS/Include/cmsis_gcc.h ****  *
  12:Drivers/CMSIS/Include/cmsis_gcc.h ****  * Licensed under the Apache License, Version 2.0 (the License); you may
  13:Drivers/CMSIS/Include/cmsis_gcc.h ****  * not use this file except in compliance with the License.
  14:Drivers/CMSIS/Include/cmsis_gcc.h ****  * You may obtain a copy of the License at
  15:Drivers/CMSIS/Include/cmsis_gcc.h ****  *
  16:Drivers/CMSIS/Include/cmsis_gcc.h ****  * www.apache.org/licenses/LICENSE-2.0
  17:Drivers/CMSIS/Include/cmsis_gcc.h ****  *
  18:Drivers/CMSIS/Include/cmsis_gcc.h ****  * Unless required by applicable law or agreed to in writing, software
  19:Drivers/CMSIS/Include/cmsis_gcc.h ****  * distributed under the License is distributed on an AS IS BASIS, WITHOUT
  20:Drivers/CMSIS/Include/cmsis_gcc.h ****  * WARRANTIES OR CONDITIONS OF ANY KIND, either express or implied.
  21:Drivers/CMSIS/Include/cmsis_gcc.h ****  * See the License for the specific language governing permissions and
  22:Drivers/CMSIS/Include/cmsis_gcc.h ****  * limitations under the License.
  23:Drivers/CMSIS/Include/cmsis_gcc.h ****  */
  24:Drivers/CMSIS/Include/cmsis_gcc.h **** 
  25:Drivers/CMSIS/Include/cmsis_gcc.h **** #ifndef __CMSIS_GCC_H
  26:Drivers/CMSIS/Include/cmsis_gcc.h **** #define __CMSIS_GCC_H
  27:Drivers/CMSIS/Include/cmsis_gcc.h **** 
  28:Drivers/CMSIS/Include/cmsis_gcc.h **** /* ignore some GCC warnings */
  29:Drivers/CMSIS/Include/cmsis_gcc.h **** #pragma GCC diagnostic push
  30:Drivers/CMSIS/Include/cmsis_gcc.h **** #pragma GCC diagnostic ignored "-Wsign-conversion"
  31:Drivers/CMSIS/Include/cmsis_gcc.h **** #pragma GCC diagnostic ignored "-Wconversion"
  32:Drivers/CMSIS/Include/cmsis_gcc.h **** #pragma GCC diagnostic ignored "-Wunused-parameter"
  33:Drivers/CMSIS/Include/cmsis_gcc.h **** 
  34:Drivers/CMSIS/Include/cmsis_gcc.h **** /* Fallback for __has_builtin */
  35:Drivers/CMSIS/Include/cmsis_gcc.h **** #ifndef __has_builtin
  36:Drivers/CMSIS/Include/cmsis_gcc.h ****   #define __has_builtin(x) (0)
  37:Drivers/CMSIS/Include/cmsis_gcc.h **** #endif
  38:Drivers/CMSIS/Include/cmsis_gcc.h **** 
  39:Drivers/CMSIS/Include/cmsis_gcc.h **** /* CMSIS compiler specific defines */
  40:Drivers/CMSIS/Include/cmsis_gcc.h **** #ifndef   __ASM
  41:Drivers/CMSIS/Include/cmsis_gcc.h ****   #define __ASM                                  __asm
  42:Drivers/CMSIS/Include/cmsis_gcc.h **** #endif
  43:Drivers/CMSIS/Include/cmsis_gcc.h **** #ifndef   __INLINE
  44:Drivers/CMSIS/Include/cmsis_gcc.h ****   #define __INLINE                               inline
ARM GAS  C:\Users\samue\AppData\Local\Temp\ccNHm7Ur.s 			page 12


  45:Drivers/CMSIS/Include/cmsis_gcc.h **** #endif
  46:Drivers/CMSIS/Include/cmsis_gcc.h **** #ifndef   __STATIC_INLINE
  47:Drivers/CMSIS/Include/cmsis_gcc.h ****   #define __STATIC_INLINE                        static inline
  48:Drivers/CMSIS/Include/cmsis_gcc.h **** #endif
  49:Drivers/CMSIS/Include/cmsis_gcc.h **** #ifndef   __STATIC_FORCEINLINE                 
  50:Drivers/CMSIS/Include/cmsis_gcc.h ****   #define __STATIC_FORCEINLINE                   __attribute__((always_inline)) static inline
  51:Drivers/CMSIS/Include/cmsis_gcc.h **** #endif                                           
  52:Drivers/CMSIS/Include/cmsis_gcc.h **** #ifndef   __NO_RETURN
  53:Drivers/CMSIS/Include/cmsis_gcc.h ****   #define __NO_RETURN                            __attribute__((__noreturn__))
  54:Drivers/CMSIS/Include/cmsis_gcc.h **** #endif
  55:Drivers/CMSIS/Include/cmsis_gcc.h **** #ifndef   __USED
  56:Drivers/CMSIS/Include/cmsis_gcc.h ****   #define __USED                                 __attribute__((used))
  57:Drivers/CMSIS/Include/cmsis_gcc.h **** #endif
  58:Drivers/CMSIS/Include/cmsis_gcc.h **** #ifndef   __WEAK
  59:Drivers/CMSIS/Include/cmsis_gcc.h ****   #define __WEAK                                 __attribute__((weak))
  60:Drivers/CMSIS/Include/cmsis_gcc.h **** #endif
  61:Drivers/CMSIS/Include/cmsis_gcc.h **** #ifndef   __PACKED
  62:Drivers/CMSIS/Include/cmsis_gcc.h ****   #define __PACKED                               __attribute__((packed, aligned(1)))
  63:Drivers/CMSIS/Include/cmsis_gcc.h **** #endif
  64:Drivers/CMSIS/Include/cmsis_gcc.h **** #ifndef   __PACKED_STRUCT
  65:Drivers/CMSIS/Include/cmsis_gcc.h ****   #define __PACKED_STRUCT                        struct __attribute__((packed, aligned(1)))
  66:Drivers/CMSIS/Include/cmsis_gcc.h **** #endif
  67:Drivers/CMSIS/Include/cmsis_gcc.h **** #ifndef   __PACKED_UNION
  68:Drivers/CMSIS/Include/cmsis_gcc.h ****   #define __PACKED_UNION                         union __attribute__((packed, aligned(1)))
  69:Drivers/CMSIS/Include/cmsis_gcc.h **** #endif
  70:Drivers/CMSIS/Include/cmsis_gcc.h **** #ifndef   __UNALIGNED_UINT32        /* deprecated */
  71:Drivers/CMSIS/Include/cmsis_gcc.h ****   #pragma GCC diagnostic push
  72:Drivers/CMSIS/Include/cmsis_gcc.h ****   #pragma GCC diagnostic ignored "-Wpacked"
  73:Drivers/CMSIS/Include/cmsis_gcc.h ****   #pragma GCC diagnostic ignored "-Wattributes"
  74:Drivers/CMSIS/Include/cmsis_gcc.h ****   struct __attribute__((packed)) T_UINT32 { uint32_t v; };
  75:Drivers/CMSIS/Include/cmsis_gcc.h ****   #pragma GCC diagnostic pop
  76:Drivers/CMSIS/Include/cmsis_gcc.h ****   #define __UNALIGNED_UINT32(x)                  (((struct T_UINT32 *)(x))->v)
  77:Drivers/CMSIS/Include/cmsis_gcc.h **** #endif
  78:Drivers/CMSIS/Include/cmsis_gcc.h **** #ifndef   __UNALIGNED_UINT16_WRITE
  79:Drivers/CMSIS/Include/cmsis_gcc.h ****   #pragma GCC diagnostic push
  80:Drivers/CMSIS/Include/cmsis_gcc.h ****   #pragma GCC diagnostic ignored "-Wpacked"
  81:Drivers/CMSIS/Include/cmsis_gcc.h ****   #pragma GCC diagnostic ignored "-Wattributes"
  82:Drivers/CMSIS/Include/cmsis_gcc.h ****   __PACKED_STRUCT T_UINT16_WRITE { uint16_t v; };
  83:Drivers/CMSIS/Include/cmsis_gcc.h ****   #pragma GCC diagnostic pop
  84:Drivers/CMSIS/Include/cmsis_gcc.h ****   #define __UNALIGNED_UINT16_WRITE(addr, val)    (void)((((struct T_UINT16_WRITE *)(void *)(addr))-
  85:Drivers/CMSIS/Include/cmsis_gcc.h **** #endif
  86:Drivers/CMSIS/Include/cmsis_gcc.h **** #ifndef   __UNALIGNED_UINT16_READ
  87:Drivers/CMSIS/Include/cmsis_gcc.h ****   #pragma GCC diagnostic push
  88:Drivers/CMSIS/Include/cmsis_gcc.h ****   #pragma GCC diagnostic ignored "-Wpacked"
  89:Drivers/CMSIS/Include/cmsis_gcc.h ****   #pragma GCC diagnostic ignored "-Wattributes"
  90:Drivers/CMSIS/Include/cmsis_gcc.h ****   __PACKED_STRUCT T_UINT16_READ { uint16_t v; };
  91:Drivers/CMSIS/Include/cmsis_gcc.h ****   #pragma GCC diagnostic pop
  92:Drivers/CMSIS/Include/cmsis_gcc.h ****   #define __UNALIGNED_UINT16_READ(addr)          (((const struct T_UINT16_READ *)(const void *)(add
  93:Drivers/CMSIS/Include/cmsis_gcc.h **** #endif
  94:Drivers/CMSIS/Include/cmsis_gcc.h **** #ifndef   __UNALIGNED_UINT32_WRITE
  95:Drivers/CMSIS/Include/cmsis_gcc.h ****   #pragma GCC diagnostic push
  96:Drivers/CMSIS/Include/cmsis_gcc.h ****   #pragma GCC diagnostic ignored "-Wpacked"
  97:Drivers/CMSIS/Include/cmsis_gcc.h ****   #pragma GCC diagnostic ignored "-Wattributes"
  98:Drivers/CMSIS/Include/cmsis_gcc.h ****   __PACKED_STRUCT T_UINT32_WRITE { uint32_t v; };
  99:Drivers/CMSIS/Include/cmsis_gcc.h ****   #pragma GCC diagnostic pop
 100:Drivers/CMSIS/Include/cmsis_gcc.h ****   #define __UNALIGNED_UINT32_WRITE(addr, val)    (void)((((struct T_UINT32_WRITE *)(void *)(addr))-
 101:Drivers/CMSIS/Include/cmsis_gcc.h **** #endif
ARM GAS  C:\Users\samue\AppData\Local\Temp\ccNHm7Ur.s 			page 13


 102:Drivers/CMSIS/Include/cmsis_gcc.h **** #ifndef   __UNALIGNED_UINT32_READ
 103:Drivers/CMSIS/Include/cmsis_gcc.h ****   #pragma GCC diagnostic push
 104:Drivers/CMSIS/Include/cmsis_gcc.h ****   #pragma GCC diagnostic ignored "-Wpacked"
 105:Drivers/CMSIS/Include/cmsis_gcc.h ****   #pragma GCC diagnostic ignored "-Wattributes"
 106:Drivers/CMSIS/Include/cmsis_gcc.h ****   __PACKED_STRUCT T_UINT32_READ { uint32_t v; };
 107:Drivers/CMSIS/Include/cmsis_gcc.h ****   #pragma GCC diagnostic pop
 108:Drivers/CMSIS/Include/cmsis_gcc.h ****   #define __UNALIGNED_UINT32_READ(addr)          (((const struct T_UINT32_READ *)(const void *)(add
 109:Drivers/CMSIS/Include/cmsis_gcc.h **** #endif
 110:Drivers/CMSIS/Include/cmsis_gcc.h **** #ifndef   __ALIGNED
 111:Drivers/CMSIS/Include/cmsis_gcc.h ****   #define __ALIGNED(x)                           __attribute__((aligned(x)))
 112:Drivers/CMSIS/Include/cmsis_gcc.h **** #endif
 113:Drivers/CMSIS/Include/cmsis_gcc.h **** #ifndef   __RESTRICT
 114:Drivers/CMSIS/Include/cmsis_gcc.h ****   #define __RESTRICT                             __restrict
 115:Drivers/CMSIS/Include/cmsis_gcc.h **** #endif
 116:Drivers/CMSIS/Include/cmsis_gcc.h **** 
 117:Drivers/CMSIS/Include/cmsis_gcc.h **** 
 118:Drivers/CMSIS/Include/cmsis_gcc.h **** /* ###########################  Core Function Access  ########################### */
 119:Drivers/CMSIS/Include/cmsis_gcc.h **** /** \ingroup  CMSIS_Core_FunctionInterface
 120:Drivers/CMSIS/Include/cmsis_gcc.h ****     \defgroup CMSIS_Core_RegAccFunctions CMSIS Core Register Access Functions
 121:Drivers/CMSIS/Include/cmsis_gcc.h ****   @{
 122:Drivers/CMSIS/Include/cmsis_gcc.h ****  */
 123:Drivers/CMSIS/Include/cmsis_gcc.h **** 
 124:Drivers/CMSIS/Include/cmsis_gcc.h **** /**
 125:Drivers/CMSIS/Include/cmsis_gcc.h ****   \brief   Enable IRQ Interrupts
 126:Drivers/CMSIS/Include/cmsis_gcc.h ****   \details Enables IRQ interrupts by clearing the I-bit in the CPSR.
 127:Drivers/CMSIS/Include/cmsis_gcc.h ****            Can only be executed in Privileged modes.
 128:Drivers/CMSIS/Include/cmsis_gcc.h ****  */
 129:Drivers/CMSIS/Include/cmsis_gcc.h **** __STATIC_FORCEINLINE void __enable_irq(void)
 130:Drivers/CMSIS/Include/cmsis_gcc.h **** {
 131:Drivers/CMSIS/Include/cmsis_gcc.h ****   __ASM volatile ("cpsie i" : : : "memory");
 132:Drivers/CMSIS/Include/cmsis_gcc.h **** }
 133:Drivers/CMSIS/Include/cmsis_gcc.h **** 
 134:Drivers/CMSIS/Include/cmsis_gcc.h **** 
 135:Drivers/CMSIS/Include/cmsis_gcc.h **** /**
 136:Drivers/CMSIS/Include/cmsis_gcc.h ****   \brief   Disable IRQ Interrupts
 137:Drivers/CMSIS/Include/cmsis_gcc.h ****   \details Disables IRQ interrupts by setting the I-bit in the CPSR.
 138:Drivers/CMSIS/Include/cmsis_gcc.h ****            Can only be executed in Privileged modes.
 139:Drivers/CMSIS/Include/cmsis_gcc.h ****  */
 140:Drivers/CMSIS/Include/cmsis_gcc.h **** __STATIC_FORCEINLINE void __disable_irq(void)
 277              		.loc 2 140 27 view .LVU66
 278              	.LBB10:
 141:Drivers/CMSIS/Include/cmsis_gcc.h **** {
 142:Drivers/CMSIS/Include/cmsis_gcc.h ****   __ASM volatile ("cpsid i" : : : "memory");
 279              		.loc 2 142 3 view .LVU67
 280              		.syntax unified
 281              	@ 142 "Drivers/CMSIS/Include/cmsis_gcc.h" 1
 282 0000 72B6     		cpsid i
 283              	@ 0 "" 2
 284              		.thumb
 285              		.syntax unified
 286              	.L10:
 287              	.LBE10:
 288              	.LBE9:
 303:Core/Src/main.c ****   while (1)
 289              		.loc 1 303 3 discriminator 1 view .LVU68
 304:Core/Src/main.c ****   {
 305:Core/Src/main.c ****   }
ARM GAS  C:\Users\samue\AppData\Local\Temp\ccNHm7Ur.s 			page 14


 290              		.loc 1 305 3 discriminator 1 view .LVU69
 303:Core/Src/main.c ****   while (1)
 291              		.loc 1 303 9 discriminator 1 view .LVU70
 292 0002 FEE7     		b	.L10
 293              		.cfi_endproc
 294              	.LFE136:
 296              		.section	.text.MX_USART2_UART_Init,"ax",%progbits
 297              		.align	1
 298              		.syntax unified
 299              		.thumb
 300              		.thumb_func
 302              	MX_USART2_UART_Init:
 303              	.LFB133:
 204:Core/Src/main.c **** 
 304              		.loc 1 204 1 view -0
 305              		.cfi_startproc
 306              		@ args = 0, pretend = 0, frame = 0
 307              		@ frame_needed = 0, uses_anonymous_args = 0
 308 0000 08B5     		push	{r3, lr}
 309              	.LCFI6:
 310              		.cfi_def_cfa_offset 8
 311              		.cfi_offset 3, -8
 312              		.cfi_offset 14, -4
 213:Core/Src/main.c ****   huart2.Init.BaudRate = 115200;
 313              		.loc 1 213 3 view .LVU72
 213:Core/Src/main.c ****   huart2.Init.BaudRate = 115200;
 314              		.loc 1 213 19 is_stmt 0 view .LVU73
 315 0002 0A48     		ldr	r0, .L15
 316 0004 0A4B     		ldr	r3, .L15+4
 317 0006 0360     		str	r3, [r0]
 214:Core/Src/main.c ****   huart2.Init.WordLength = UART_WORDLENGTH_8B;
 318              		.loc 1 214 3 is_stmt 1 view .LVU74
 214:Core/Src/main.c ****   huart2.Init.WordLength = UART_WORDLENGTH_8B;
 319              		.loc 1 214 24 is_stmt 0 view .LVU75
 320 0008 4FF4E133 		mov	r3, #115200
 321 000c 4360     		str	r3, [r0, #4]
 215:Core/Src/main.c ****   huart2.Init.StopBits = UART_STOPBITS_1;
 322              		.loc 1 215 3 is_stmt 1 view .LVU76
 215:Core/Src/main.c ****   huart2.Init.StopBits = UART_STOPBITS_1;
 323              		.loc 1 215 26 is_stmt 0 view .LVU77
 324 000e 0023     		movs	r3, #0
 325 0010 8360     		str	r3, [r0, #8]
 216:Core/Src/main.c ****   huart2.Init.Parity = UART_PARITY_NONE;
 326              		.loc 1 216 3 is_stmt 1 view .LVU78
 216:Core/Src/main.c ****   huart2.Init.Parity = UART_PARITY_NONE;
 327              		.loc 1 216 24 is_stmt 0 view .LVU79
 328 0012 C360     		str	r3, [r0, #12]
 217:Core/Src/main.c ****   huart2.Init.Mode = UART_MODE_TX_RX;
 329              		.loc 1 217 3 is_stmt 1 view .LVU80
 217:Core/Src/main.c ****   huart2.Init.Mode = UART_MODE_TX_RX;
 330              		.loc 1 217 22 is_stmt 0 view .LVU81
 331 0014 0361     		str	r3, [r0, #16]
 218:Core/Src/main.c ****   huart2.Init.HwFlowCtl = UART_HWCONTROL_NONE;
 332              		.loc 1 218 3 is_stmt 1 view .LVU82
 218:Core/Src/main.c ****   huart2.Init.HwFlowCtl = UART_HWCONTROL_NONE;
 333              		.loc 1 218 20 is_stmt 0 view .LVU83
 334 0016 0C22     		movs	r2, #12
ARM GAS  C:\Users\samue\AppData\Local\Temp\ccNHm7Ur.s 			page 15


 335 0018 4261     		str	r2, [r0, #20]
 219:Core/Src/main.c ****   huart2.Init.OverSampling = UART_OVERSAMPLING_16;
 336              		.loc 1 219 3 is_stmt 1 view .LVU84
 219:Core/Src/main.c ****   huart2.Init.OverSampling = UART_OVERSAMPLING_16;
 337              		.loc 1 219 25 is_stmt 0 view .LVU85
 338 001a 8361     		str	r3, [r0, #24]
 220:Core/Src/main.c ****   if (HAL_UART_Init(&huart2) != HAL_OK)
 339              		.loc 1 220 3 is_stmt 1 view .LVU86
 220:Core/Src/main.c ****   if (HAL_UART_Init(&huart2) != HAL_OK)
 340              		.loc 1 220 28 is_stmt 0 view .LVU87
 341 001c C361     		str	r3, [r0, #28]
 221:Core/Src/main.c ****   {
 342              		.loc 1 221 3 is_stmt 1 view .LVU88
 221:Core/Src/main.c ****   {
 343              		.loc 1 221 7 is_stmt 0 view .LVU89
 344 001e FFF7FEFF 		bl	HAL_UART_Init
 345              	.LVL8:
 221:Core/Src/main.c ****   {
 346              		.loc 1 221 6 view .LVU90
 347 0022 00B9     		cbnz	r0, .L14
 229:Core/Src/main.c **** 
 348              		.loc 1 229 1 view .LVU91
 349 0024 08BD     		pop	{r3, pc}
 350              	.L14:
 223:Core/Src/main.c ****   }
 351              		.loc 1 223 5 is_stmt 1 view .LVU92
 352 0026 FFF7FEFF 		bl	Error_Handler
 353              	.LVL9:
 354              	.L16:
 355 002a 00BF     		.align	2
 356              	.L15:
 357 002c 00000000 		.word	.LANCHOR0
 358 0030 00440040 		.word	1073759232
 359              		.cfi_endproc
 360              	.LFE133:
 362              		.section	.text.MX_I2C1_Init,"ax",%progbits
 363              		.align	1
 364              		.syntax unified
 365              		.thumb
 366              		.thumb_func
 368              	MX_I2C1_Init:
 369              	.LFB132:
 170:Core/Src/main.c **** 
 370              		.loc 1 170 1 view -0
 371              		.cfi_startproc
 372              		@ args = 0, pretend = 0, frame = 0
 373              		@ frame_needed = 0, uses_anonymous_args = 0
 374 0000 08B5     		push	{r3, lr}
 375              	.LCFI7:
 376              		.cfi_def_cfa_offset 8
 377              		.cfi_offset 3, -8
 378              		.cfi_offset 14, -4
 179:Core/Src/main.c ****   hi2c1.Init.ClockSpeed = 100000;
 379              		.loc 1 179 3 view .LVU94
 179:Core/Src/main.c ****   hi2c1.Init.ClockSpeed = 100000;
 380              		.loc 1 179 18 is_stmt 0 view .LVU95
 381 0002 0A48     		ldr	r0, .L21
ARM GAS  C:\Users\samue\AppData\Local\Temp\ccNHm7Ur.s 			page 16


 382 0004 0A4B     		ldr	r3, .L21+4
 383 0006 0360     		str	r3, [r0]
 180:Core/Src/main.c ****   hi2c1.Init.DutyCycle = I2C_DUTYCYCLE_2;
 384              		.loc 1 180 3 is_stmt 1 view .LVU96
 180:Core/Src/main.c ****   hi2c1.Init.DutyCycle = I2C_DUTYCYCLE_2;
 385              		.loc 1 180 25 is_stmt 0 view .LVU97
 386 0008 0A4B     		ldr	r3, .L21+8
 387 000a 4360     		str	r3, [r0, #4]
 181:Core/Src/main.c ****   hi2c1.Init.OwnAddress1 = 0;
 388              		.loc 1 181 3 is_stmt 1 view .LVU98
 181:Core/Src/main.c ****   hi2c1.Init.OwnAddress1 = 0;
 389              		.loc 1 181 24 is_stmt 0 view .LVU99
 390 000c 0023     		movs	r3, #0
 391 000e 8360     		str	r3, [r0, #8]
 182:Core/Src/main.c ****   hi2c1.Init.AddressingMode = I2C_ADDRESSINGMODE_7BIT;
 392              		.loc 1 182 3 is_stmt 1 view .LVU100
 182:Core/Src/main.c ****   hi2c1.Init.AddressingMode = I2C_ADDRESSINGMODE_7BIT;
 393              		.loc 1 182 26 is_stmt 0 view .LVU101
 394 0010 C360     		str	r3, [r0, #12]
 183:Core/Src/main.c ****   hi2c1.Init.DualAddressMode = I2C_DUALADDRESS_DISABLE;
 395              		.loc 1 183 3 is_stmt 1 view .LVU102
 183:Core/Src/main.c ****   hi2c1.Init.DualAddressMode = I2C_DUALADDRESS_DISABLE;
 396              		.loc 1 183 29 is_stmt 0 view .LVU103
 397 0012 4FF48042 		mov	r2, #16384
 398 0016 0261     		str	r2, [r0, #16]
 184:Core/Src/main.c ****   hi2c1.Init.OwnAddress2 = 0;
 399              		.loc 1 184 3 is_stmt 1 view .LVU104
 184:Core/Src/main.c ****   hi2c1.Init.OwnAddress2 = 0;
 400              		.loc 1 184 30 is_stmt 0 view .LVU105
 401 0018 4361     		str	r3, [r0, #20]
 185:Core/Src/main.c ****   hi2c1.Init.GeneralCallMode = I2C_GENERALCALL_DISABLE;
 402              		.loc 1 185 3 is_stmt 1 view .LVU106
 185:Core/Src/main.c ****   hi2c1.Init.GeneralCallMode = I2C_GENERALCALL_DISABLE;
 403              		.loc 1 185 26 is_stmt 0 view .LVU107
 404 001a 8361     		str	r3, [r0, #24]
 186:Core/Src/main.c ****   hi2c1.Init.NoStretchMode = I2C_NOSTRETCH_DISABLE;
 405              		.loc 1 186 3 is_stmt 1 view .LVU108
 186:Core/Src/main.c ****   hi2c1.Init.NoStretchMode = I2C_NOSTRETCH_DISABLE;
 406              		.loc 1 186 30 is_stmt 0 view .LVU109
 407 001c C361     		str	r3, [r0, #28]
 187:Core/Src/main.c ****   if (HAL_I2C_Init(&hi2c1) != HAL_OK)
 408              		.loc 1 187 3 is_stmt 1 view .LVU110
 187:Core/Src/main.c ****   if (HAL_I2C_Init(&hi2c1) != HAL_OK)
 409              		.loc 1 187 28 is_stmt 0 view .LVU111
 410 001e 0362     		str	r3, [r0, #32]
 188:Core/Src/main.c ****   {
 411              		.loc 1 188 3 is_stmt 1 view .LVU112
 188:Core/Src/main.c ****   {
 412              		.loc 1 188 7 is_stmt 0 view .LVU113
 413 0020 FFF7FEFF 		bl	HAL_I2C_Init
 414              	.LVL10:
 188:Core/Src/main.c ****   {
 415              		.loc 1 188 6 view .LVU114
 416 0024 00B9     		cbnz	r0, .L20
 196:Core/Src/main.c **** 
 417              		.loc 1 196 1 view .LVU115
 418 0026 08BD     		pop	{r3, pc}
ARM GAS  C:\Users\samue\AppData\Local\Temp\ccNHm7Ur.s 			page 17


 419              	.L20:
 190:Core/Src/main.c ****   }
 420              		.loc 1 190 5 is_stmt 1 view .LVU116
 421 0028 FFF7FEFF 		bl	Error_Handler
 422              	.LVL11:
 423              	.L22:
 424              		.align	2
 425              	.L21:
 426 002c 00000000 		.word	.LANCHOR1
 427 0030 00540040 		.word	1073763328
 428 0034 A0860100 		.word	100000
 429              		.cfi_endproc
 430              	.LFE132:
 432              		.section	.text.SystemClock_Config,"ax",%progbits
 433              		.align	1
 434              		.global	SystemClock_Config
 435              		.syntax unified
 436              		.thumb
 437              		.thumb_func
 439              	SystemClock_Config:
 440              	.LFB131:
 125:Core/Src/main.c ****   RCC_OscInitTypeDef RCC_OscInitStruct = {0};
 441              		.loc 1 125 1 view -0
 442              		.cfi_startproc
 443              		@ args = 0, pretend = 0, frame = 80
 444              		@ frame_needed = 0, uses_anonymous_args = 0
 445 0000 00B5     		push	{lr}
 446              	.LCFI8:
 447              		.cfi_def_cfa_offset 4
 448              		.cfi_offset 14, -4
 449 0002 95B0     		sub	sp, sp, #84
 450              	.LCFI9:
 451              		.cfi_def_cfa_offset 88
 126:Core/Src/main.c ****   RCC_ClkInitTypeDef RCC_ClkInitStruct = {0};
 452              		.loc 1 126 3 view .LVU118
 126:Core/Src/main.c ****   RCC_ClkInitTypeDef RCC_ClkInitStruct = {0};
 453              		.loc 1 126 22 is_stmt 0 view .LVU119
 454 0004 3022     		movs	r2, #48
 455 0006 0021     		movs	r1, #0
 456 0008 08A8     		add	r0, sp, #32
 457 000a FFF7FEFF 		bl	memset
 458              	.LVL12:
 127:Core/Src/main.c **** 
 459              		.loc 1 127 3 is_stmt 1 view .LVU120
 127:Core/Src/main.c **** 
 460              		.loc 1 127 22 is_stmt 0 view .LVU121
 461 000e 0023     		movs	r3, #0
 462 0010 0393     		str	r3, [sp, #12]
 463 0012 0493     		str	r3, [sp, #16]
 464 0014 0593     		str	r3, [sp, #20]
 465 0016 0693     		str	r3, [sp, #24]
 466 0018 0793     		str	r3, [sp, #28]
 131:Core/Src/main.c ****   __HAL_PWR_VOLTAGESCALING_CONFIG(PWR_REGULATOR_VOLTAGE_SCALE1);
 467              		.loc 1 131 3 is_stmt 1 view .LVU122
 468              	.LBB11:
 131:Core/Src/main.c ****   __HAL_PWR_VOLTAGESCALING_CONFIG(PWR_REGULATOR_VOLTAGE_SCALE1);
 469              		.loc 1 131 3 view .LVU123
ARM GAS  C:\Users\samue\AppData\Local\Temp\ccNHm7Ur.s 			page 18


 470 001a 0193     		str	r3, [sp, #4]
 131:Core/Src/main.c ****   __HAL_PWR_VOLTAGESCALING_CONFIG(PWR_REGULATOR_VOLTAGE_SCALE1);
 471              		.loc 1 131 3 view .LVU124
 472 001c 1E4A     		ldr	r2, .L29
 473 001e 116C     		ldr	r1, [r2, #64]
 474 0020 41F08051 		orr	r1, r1, #268435456
 475 0024 1164     		str	r1, [r2, #64]
 131:Core/Src/main.c ****   __HAL_PWR_VOLTAGESCALING_CONFIG(PWR_REGULATOR_VOLTAGE_SCALE1);
 476              		.loc 1 131 3 view .LVU125
 477 0026 126C     		ldr	r2, [r2, #64]
 478 0028 02F08052 		and	r2, r2, #268435456
 479 002c 0192     		str	r2, [sp, #4]
 131:Core/Src/main.c ****   __HAL_PWR_VOLTAGESCALING_CONFIG(PWR_REGULATOR_VOLTAGE_SCALE1);
 480              		.loc 1 131 3 view .LVU126
 481 002e 019A     		ldr	r2, [sp, #4]
 482              	.LBE11:
 131:Core/Src/main.c ****   __HAL_PWR_VOLTAGESCALING_CONFIG(PWR_REGULATOR_VOLTAGE_SCALE1);
 483              		.loc 1 131 3 view .LVU127
 132:Core/Src/main.c ****   /** Initializes the RCC Oscillators according to the specified parameters
 484              		.loc 1 132 3 view .LVU128
 485              	.LBB12:
 132:Core/Src/main.c ****   /** Initializes the RCC Oscillators according to the specified parameters
 486              		.loc 1 132 3 view .LVU129
 487 0030 0293     		str	r3, [sp, #8]
 132:Core/Src/main.c ****   /** Initializes the RCC Oscillators according to the specified parameters
 488              		.loc 1 132 3 view .LVU130
 489 0032 1A4A     		ldr	r2, .L29+4
 490 0034 1168     		ldr	r1, [r2]
 491 0036 41F44041 		orr	r1, r1, #49152
 492 003a 1160     		str	r1, [r2]
 132:Core/Src/main.c ****   /** Initializes the RCC Oscillators according to the specified parameters
 493              		.loc 1 132 3 view .LVU131
 494 003c 1268     		ldr	r2, [r2]
 495 003e 02F44042 		and	r2, r2, #49152
 496 0042 0292     		str	r2, [sp, #8]
 132:Core/Src/main.c ****   /** Initializes the RCC Oscillators according to the specified parameters
 497              		.loc 1 132 3 view .LVU132
 498 0044 029A     		ldr	r2, [sp, #8]
 499              	.LBE12:
 132:Core/Src/main.c ****   /** Initializes the RCC Oscillators according to the specified parameters
 500              		.loc 1 132 3 view .LVU133
 136:Core/Src/main.c ****   RCC_OscInitStruct.HSIState = RCC_HSI_ON;
 501              		.loc 1 136 3 view .LVU134
 136:Core/Src/main.c ****   RCC_OscInitStruct.HSIState = RCC_HSI_ON;
 502              		.loc 1 136 36 is_stmt 0 view .LVU135
 503 0046 0221     		movs	r1, #2
 504 0048 0891     		str	r1, [sp, #32]
 137:Core/Src/main.c ****   RCC_OscInitStruct.HSICalibrationValue = RCC_HSICALIBRATION_DEFAULT;
 505              		.loc 1 137 3 is_stmt 1 view .LVU136
 137:Core/Src/main.c ****   RCC_OscInitStruct.HSICalibrationValue = RCC_HSICALIBRATION_DEFAULT;
 506              		.loc 1 137 30 is_stmt 0 view .LVU137
 507 004a 0122     		movs	r2, #1
 508 004c 0B92     		str	r2, [sp, #44]
 138:Core/Src/main.c ****   RCC_OscInitStruct.PLL.PLLState = RCC_PLL_ON;
 509              		.loc 1 138 3 is_stmt 1 view .LVU138
 138:Core/Src/main.c ****   RCC_OscInitStruct.PLL.PLLState = RCC_PLL_ON;
 510              		.loc 1 138 41 is_stmt 0 view .LVU139
ARM GAS  C:\Users\samue\AppData\Local\Temp\ccNHm7Ur.s 			page 19


 511 004e 1022     		movs	r2, #16
 512 0050 0C92     		str	r2, [sp, #48]
 139:Core/Src/main.c ****   RCC_OscInitStruct.PLL.PLLSource = RCC_PLLSOURCE_HSI;
 513              		.loc 1 139 3 is_stmt 1 view .LVU140
 139:Core/Src/main.c ****   RCC_OscInitStruct.PLL.PLLSource = RCC_PLLSOURCE_HSI;
 514              		.loc 1 139 34 is_stmt 0 view .LVU141
 515 0052 0E91     		str	r1, [sp, #56]
 140:Core/Src/main.c ****   RCC_OscInitStruct.PLL.PLLM = 16;
 516              		.loc 1 140 3 is_stmt 1 view .LVU142
 140:Core/Src/main.c ****   RCC_OscInitStruct.PLL.PLLM = 16;
 517              		.loc 1 140 35 is_stmt 0 view .LVU143
 518 0054 0F93     		str	r3, [sp, #60]
 141:Core/Src/main.c ****   RCC_OscInitStruct.PLL.PLLN = 336;
 519              		.loc 1 141 3 is_stmt 1 view .LVU144
 141:Core/Src/main.c ****   RCC_OscInitStruct.PLL.PLLN = 336;
 520              		.loc 1 141 30 is_stmt 0 view .LVU145
 521 0056 1092     		str	r2, [sp, #64]
 142:Core/Src/main.c ****   RCC_OscInitStruct.PLL.PLLP = RCC_PLLP_DIV4;
 522              		.loc 1 142 3 is_stmt 1 view .LVU146
 142:Core/Src/main.c ****   RCC_OscInitStruct.PLL.PLLP = RCC_PLLP_DIV4;
 523              		.loc 1 142 30 is_stmt 0 view .LVU147
 524 0058 4FF4A873 		mov	r3, #336
 525 005c 1193     		str	r3, [sp, #68]
 143:Core/Src/main.c ****   RCC_OscInitStruct.PLL.PLLQ = 4;
 526              		.loc 1 143 3 is_stmt 1 view .LVU148
 143:Core/Src/main.c ****   RCC_OscInitStruct.PLL.PLLQ = 4;
 527              		.loc 1 143 30 is_stmt 0 view .LVU149
 528 005e 0423     		movs	r3, #4
 529 0060 1293     		str	r3, [sp, #72]
 144:Core/Src/main.c ****   if (HAL_RCC_OscConfig(&RCC_OscInitStruct) != HAL_OK)
 530              		.loc 1 144 3 is_stmt 1 view .LVU150
 144:Core/Src/main.c ****   if (HAL_RCC_OscConfig(&RCC_OscInitStruct) != HAL_OK)
 531              		.loc 1 144 30 is_stmt 0 view .LVU151
 532 0062 1393     		str	r3, [sp, #76]
 145:Core/Src/main.c ****   {
 533              		.loc 1 145 3 is_stmt 1 view .LVU152
 145:Core/Src/main.c ****   {
 534              		.loc 1 145 7 is_stmt 0 view .LVU153
 535 0064 08A8     		add	r0, sp, #32
 536 0066 FFF7FEFF 		bl	HAL_RCC_OscConfig
 537              	.LVL13:
 145:Core/Src/main.c ****   {
 538              		.loc 1 145 6 view .LVU154
 539 006a 80B9     		cbnz	r0, .L27
 151:Core/Src/main.c ****                               |RCC_CLOCKTYPE_PCLK1|RCC_CLOCKTYPE_PCLK2;
 540              		.loc 1 151 3 is_stmt 1 view .LVU155
 151:Core/Src/main.c ****                               |RCC_CLOCKTYPE_PCLK1|RCC_CLOCKTYPE_PCLK2;
 541              		.loc 1 151 31 is_stmt 0 view .LVU156
 542 006c 0F23     		movs	r3, #15
 543 006e 0393     		str	r3, [sp, #12]
 153:Core/Src/main.c ****   RCC_ClkInitStruct.AHBCLKDivider = RCC_SYSCLK_DIV1;
 544              		.loc 1 153 3 is_stmt 1 view .LVU157
 153:Core/Src/main.c ****   RCC_ClkInitStruct.AHBCLKDivider = RCC_SYSCLK_DIV1;
 545              		.loc 1 153 34 is_stmt 0 view .LVU158
 546 0070 0221     		movs	r1, #2
 547 0072 0491     		str	r1, [sp, #16]
 154:Core/Src/main.c ****   RCC_ClkInitStruct.APB1CLKDivider = RCC_HCLK_DIV2;
ARM GAS  C:\Users\samue\AppData\Local\Temp\ccNHm7Ur.s 			page 20


 548              		.loc 1 154 3 is_stmt 1 view .LVU159
 154:Core/Src/main.c ****   RCC_ClkInitStruct.APB1CLKDivider = RCC_HCLK_DIV2;
 549              		.loc 1 154 35 is_stmt 0 view .LVU160
 550 0074 0023     		movs	r3, #0
 551 0076 0593     		str	r3, [sp, #20]
 155:Core/Src/main.c ****   RCC_ClkInitStruct.APB2CLKDivider = RCC_HCLK_DIV1;
 552              		.loc 1 155 3 is_stmt 1 view .LVU161
 155:Core/Src/main.c ****   RCC_ClkInitStruct.APB2CLKDivider = RCC_HCLK_DIV1;
 553              		.loc 1 155 36 is_stmt 0 view .LVU162
 554 0078 4FF48052 		mov	r2, #4096
 555 007c 0692     		str	r2, [sp, #24]
 156:Core/Src/main.c **** 
 556              		.loc 1 156 3 is_stmt 1 view .LVU163
 156:Core/Src/main.c **** 
 557              		.loc 1 156 36 is_stmt 0 view .LVU164
 558 007e 0793     		str	r3, [sp, #28]
 158:Core/Src/main.c ****   {
 559              		.loc 1 158 3 is_stmt 1 view .LVU165
 158:Core/Src/main.c ****   {
 560              		.loc 1 158 7 is_stmt 0 view .LVU166
 561 0080 03A8     		add	r0, sp, #12
 562 0082 FFF7FEFF 		bl	HAL_RCC_ClockConfig
 563              	.LVL14:
 158:Core/Src/main.c ****   {
 564              		.loc 1 158 6 view .LVU167
 565 0086 20B9     		cbnz	r0, .L28
 162:Core/Src/main.c **** 
 566              		.loc 1 162 1 view .LVU168
 567 0088 15B0     		add	sp, sp, #84
 568              	.LCFI10:
 569              		.cfi_remember_state
 570              		.cfi_def_cfa_offset 4
 571              		@ sp needed
 572 008a 5DF804FB 		ldr	pc, [sp], #4
 573              	.L27:
 574              	.LCFI11:
 575              		.cfi_restore_state
 147:Core/Src/main.c ****   }
 576              		.loc 1 147 5 is_stmt 1 view .LVU169
 577 008e FFF7FEFF 		bl	Error_Handler
 578              	.LVL15:
 579              	.L28:
 160:Core/Src/main.c ****   }
 580              		.loc 1 160 5 view .LVU170
 581 0092 FFF7FEFF 		bl	Error_Handler
 582              	.LVL16:
 583              	.L30:
 584 0096 00BF     		.align	2
 585              	.L29:
 586 0098 00380240 		.word	1073887232
 587 009c 00700040 		.word	1073770496
 588              		.cfi_endproc
 589              	.LFE131:
 591              		.section	.text.main,"ax",%progbits
 592              		.align	1
 593              		.global	main
 594              		.syntax unified
ARM GAS  C:\Users\samue\AppData\Local\Temp\ccNHm7Ur.s 			page 21


 595              		.thumb
 596              		.thumb_func
 598              	main:
 599              	.LFB130:
  74:Core/Src/main.c ****   /* USER CODE BEGIN 1 */
 600              		.loc 1 74 1 view -0
 601              		.cfi_startproc
 602              		@ Volatile: function does not return.
 603              		@ args = 0, pretend = 0, frame = 0
 604              		@ frame_needed = 0, uses_anonymous_args = 0
 605 0000 08B5     		push	{r3, lr}
 606              	.LCFI12:
 607              		.cfi_def_cfa_offset 8
 608              		.cfi_offset 3, -8
 609              		.cfi_offset 14, -4
  84:Core/Src/main.c **** 
 610              		.loc 1 84 3 view .LVU172
 611 0002 FFF7FEFF 		bl	HAL_Init
 612              	.LVL17:
  91:Core/Src/main.c **** 
 613              		.loc 1 91 3 view .LVU173
 614 0006 FFF7FEFF 		bl	SystemClock_Config
 615              	.LVL18:
  98:Core/Src/main.c ****   MX_DMA_Init();
 616              		.loc 1 98 3 view .LVU174
 617 000a FFF7FEFF 		bl	MX_GPIO_Init
 618              	.LVL19:
  99:Core/Src/main.c ****   MX_USART2_UART_Init();
 619              		.loc 1 99 3 view .LVU175
 620 000e FFF7FEFF 		bl	MX_DMA_Init
 621              	.LVL20:
 100:Core/Src/main.c ****   MX_I2C1_Init();
 622              		.loc 1 100 3 view .LVU176
 623 0012 FFF7FEFF 		bl	MX_USART2_UART_Init
 624              	.LVL21:
 101:Core/Src/main.c ****   /* USER CODE BEGIN 2 */
 625              		.loc 1 101 3 view .LVU177
 626 0016 FFF7FEFF 		bl	MX_I2C1_Init
 627              	.LVL22:
 628              	.L32:
 110:Core/Src/main.c ****   {
 629              		.loc 1 110 3 discriminator 1 view .LVU178
 115:Core/Src/main.c ****   }
 630              		.loc 1 115 5 discriminator 1 view .LVU179
 631 001a FFF7FEFF 		bl	main_function
 632              	.LVL23:
 110:Core/Src/main.c ****   {
 633              		.loc 1 110 9 discriminator 1 view .LVU180
 634 001e FCE7     		b	.L32
 635              		.cfi_endproc
 636              	.LFE130:
 638              		.global	hdma_usart2_tx
 639              		.global	huart2
 640              		.global	hi2c1
 641              		.section	.bss.hdma_usart2_tx,"aw",%nobits
 642              		.align	2
 645              	hdma_usart2_tx:
ARM GAS  C:\Users\samue\AppData\Local\Temp\ccNHm7Ur.s 			page 22


 646 0000 00000000 		.space	96
 646      00000000 
 646      00000000 
 646      00000000 
 646      00000000 
 647              		.section	.bss.hi2c1,"aw",%nobits
 648              		.align	2
 649              		.set	.LANCHOR1,. + 0
 652              	hi2c1:
 653 0000 00000000 		.space	84
 653      00000000 
 653      00000000 
 653      00000000 
 653      00000000 
 654              		.section	.bss.huart2,"aw",%nobits
 655              		.align	2
 656              		.set	.LANCHOR0,. + 0
 659              	huart2:
 660 0000 00000000 		.space	68
 660      00000000 
 660      00000000 
 660      00000000 
 660      00000000 
 661              		.text
 662              	.Letext0:
 663              		.file 3 "c:\\dev_tools\\gcc-arm-none-eabi-10.3-2021.10-win32\\gcc-arm-none-eabi-10.3-2021.10\\arm-
 664              		.file 4 "c:\\dev_tools\\gcc-arm-none-eabi-10.3-2021.10-win32\\gcc-arm-none-eabi-10.3-2021.10\\arm-
 665              		.file 5 "c:\\users\\samue\\documents\\projects\\bike data aquisition\\software\\bike-data-aquisiti
 666              		.file 6 "Drivers/STM32F4xx_HAL_Driver/Inc/stm32f4xx_hal_def.h"
 667              		.file 7 "Drivers/STM32F4xx_HAL_Driver/Inc/stm32f4xx_hal_rcc_ex.h"
 668              		.file 8 "Drivers/STM32F4xx_HAL_Driver/Inc/stm32f4xx_hal_rcc.h"
 669              		.file 9 "Drivers/STM32F4xx_HAL_Driver/Inc/stm32f4xx_hal_gpio.h"
 670              		.file 10 "Drivers/STM32F4xx_HAL_Driver/Inc/stm32f4xx_hal_dma.h"
 671              		.file 11 "Drivers/STM32F4xx_HAL_Driver/Inc/stm32f4xx_hal_i2c.h"
 672              		.file 12 "Drivers/STM32F4xx_HAL_Driver/Inc/stm32f4xx_hal_uart.h"
 673              		.file 13 "Drivers/STM32F4xx_HAL_Driver/Inc/stm32f4xx_hal_cortex.h"
 674              		.file 14 "Drivers/STM32F4xx_HAL_Driver/Inc/stm32f4xx_hal.h"
 675              		.file 15 "Core/Inc/main_functions.h"
 676              		.file 16 "<built-in>"
ARM GAS  C:\Users\samue\AppData\Local\Temp\ccNHm7Ur.s 			page 23

