ARM GAS  C:\Users\samue\AppData\Local\Temp\ccxwy6p9.s 			page 1


   1              		.cpu cortex-m4
   2              		.arch armv7e-m
   3              		.fpu fpv4-sp-d16
   4              		.eabi_attribute 27, 1
   5              		.eabi_attribute 28, 1
   6              		.eabi_attribute 20, 1
   7              		.eabi_attribute 21, 1
   8              		.eabi_attribute 23, 3
   9              		.eabi_attribute 24, 1
  10              		.eabi_attribute 25, 1
  11              		.eabi_attribute 26, 1
  12              		.eabi_attribute 30, 1
  13              		.eabi_attribute 34, 1
  14              		.eabi_attribute 18, 4
  15              		.file	"main_functions.c"
  16              		.text
  17              	.Ltext0:
  18              		.cfi_sections	.debug_frame
  19              		.section	.rodata.accel_cal_prep.str1.4,"aMS",%progbits,1
  20              		.align	2
  21              	.LC0:
  22 0000 506F7369 		.ascii	"Position the\000"
  22      74696F6E 
  22      20746865 
  22      00
  23 000d 000000   		.align	2
  24              	.LC1:
  25 0010 61636365 		.ascii	"accelerometer to its\000"
  25      6C65726F 
  25      6D657465 
  25      7220746F 
  25      20697473 
  26 0025 000000   		.align	2
  27              	.LC2:
  28 0028 7A65726F 		.ascii	"zero position\000"
  28      20706F73 
  28      6974696F 
  28      6E00
  29              		.section	.text.accel_cal_prep,"ax",%progbits
  30              		.align	1
  31              		.global	accel_cal_prep
  32              		.syntax unified
  33              		.thumb
  34              		.thumb_func
  36              	accel_cal_prep:
  37              	.LFB137:
  38              		.file 1 "Core/Src/main_functions.c"
   1:Core/Src/main_functions.c **** /*
   2:Core/Src/main_functions.c ****  * File: main_functions.c
   3:Core/Src/main_functions.c ****  * Purpose: Main source file created to avoid using main.c as much as possible due 
   4:Core/Src/main_functions.c ****  *          to all the generated code by STM32CubeMX making it hard to read.  
   5:Core/Src/main_functions.c ****  * 
   6:Core/Src/main_functions.c ****  * Created on: Sep 20, 2021
   7:Core/Src/main_functions.c ****  * Author: External
   8:Core/Src/main_functions.c ****  */
   9:Core/Src/main_functions.c **** 
  10:Core/Src/main_functions.c **** /* 
ARM GAS  C:\Users\samue\AppData\Local\Temp\ccxwy6p9.s 			page 2


  11:Core/Src/main_functions.c ****  * ---------------------------------------------------------------------------------------------
  12:Core/Src/main_functions.c ****  * Libraries and Header Files
  13:Core/Src/main_functions.c ****  * ---------------------------------------------------------------------------------------------
  14:Core/Src/main_functions.c ****  */
  15:Core/Src/main_functions.c **** 
  16:Core/Src/main_functions.c **** #include <stdio.h>
  17:Core/Src/main_functions.c **** #include <stdlib.h>
  18:Core/Src/main_functions.c **** #include <stdint.h>
  19:Core/Src/main_functions.c **** #include <string.h>
  20:Core/Src/main_functions.c **** 
  21:Core/Src/main_functions.c **** #include "main.h"
  22:Core/Src/main_functions.c **** #include "main_functions.h"
  23:Core/Src/main_functions.c **** #include "i2c-lcd.h"
  24:Core/Src/main_functions.c **** #include "accelerometer_data.h"
  25:Core/Src/main_functions.c **** #include "fatfs_sd.h"
  26:Core/Src/main_functions.c **** #include "sd-card-spi.h"
  27:Core/Src/main_functions.c **** 
  28:Core/Src/main_functions.c **** 
  29:Core/Src/main_functions.c **** /* 
  30:Core/Src/main_functions.c ****  * ---------------------------------------------------------------------------------------------
  31:Core/Src/main_functions.c ****  * Variables
  32:Core/Src/main_functions.c ****  * ---------------------------------------------------------------------------------------------
  33:Core/Src/main_functions.c ****  */
  34:Core/Src/main_functions.c **** 
  35:Core/Src/main_functions.c **** // External global variables 
  36:Core/Src/main_functions.c **** extern SPI_HandleTypeDef hspi2;
  37:Core/Src/main_functions.c **** extern UART_HandleTypeDef huart2;
  38:Core/Src/main_functions.c **** 
  39:Core/Src/main_functions.c **** // Interrupt flag
  40:Core/Src/main_functions.c **** uint8_t flag;
  41:Core/Src/main_functions.c **** 
  42:Core/Src/main_functions.c **** // Current state
  43:Core/Src/main_functions.c **** unsigned long state;  
  44:Core/Src/main_functions.c **** 
  45:Core/Src/main_functions.c **** // Accelerometer data handlers 
  46:Core/Src/main_functions.c **** int accel_data_value[9];
  47:Core/Src/main_functions.c **** float *accel_data_p;
  48:Core/Src/main_functions.c **** float accel_corr[3];
  49:Core/Src/main_functions.c **** float *accel_corr_p;
  50:Core/Src/main_functions.c **** int gyro_data_value[9];
  51:Core/Src/main_functions.c **** float *gyro_data_p;
  52:Core/Src/main_functions.c **** float gyro_corr[3];
  53:Core/Src/main_functions.c **** float *gyro_corr_p;
  54:Core/Src/main_functions.c **** float zero_corr[3] = {0.0, 0.0, 0.0};
  55:Core/Src/main_functions.c **** 
  56:Core/Src/main_functions.c **** // Accelerometer data buffer
  57:Core/Src/main_functions.c **** char buf[6];
  58:Core/Src/main_functions.c **** 
  59:Core/Src/main_functions.c **** // Position of text on LCD display 
  60:Core/Src/main_functions.c **** uint8_t line_pos;
  61:Core/Src/main_functions.c **** 
  62:Core/Src/main_functions.c **** // String to print to the LCD display 
  63:Core/Src/main_functions.c **** char Ax_string[] = "Ax=       ";
  64:Core/Src/main_functions.c **** char Ay_string[] = "Ay=       ";
  65:Core/Src/main_functions.c **** char Az_string[] = "Az=       ";
  66:Core/Src/main_functions.c **** char Gx_string[] = "Gx=       ";
  67:Core/Src/main_functions.c **** char Gy_string[] = "Gy=       ";
ARM GAS  C:\Users\samue\AppData\Local\Temp\ccxwy6p9.s 			page 3


  68:Core/Src/main_functions.c **** char Gz_string[] = "Gz=       ";
  69:Core/Src/main_functions.c **** 
  70:Core/Src/main_functions.c **** 
  71:Core/Src/main_functions.c **** /* 
  72:Core/Src/main_functions.c ****  * ---------------------------------------------------------------------------------------------
  73:Core/Src/main_functions.c ****  * Structures and lists
  74:Core/Src/main_functions.c ****  * ---------------------------------------------------------------------------------------------
  75:Core/Src/main_functions.c ****  */
  76:Core/Src/main_functions.c **** 
  77:Core/Src/main_functions.c **** // Primary state machine structure
  78:Core/Src/main_functions.c **** typedef const struct BSDA {
  79:Core/Src/main_functions.c **** 	void (*output_func)(void);
  80:Core/Src/main_functions.c **** 	unsigned long time_delay;
  81:Core/Src/main_functions.c **** 	unsigned long next_state[NUM_OPTIONS];
  82:Core/Src/main_functions.c **** } BSDA;
  83:Core/Src/main_functions.c **** 
  84:Core/Src/main_functions.c **** // Primary state machine
  85:Core/Src/main_functions.c **** BSDA FSM[NUM_STATES] = {
  86:Core/Src/main_functions.c ****     {&normal,         S1_DELAY, {normal_state,         accel_cal_prep_state }},
  87:Core/Src/main_functions.c ****     {&accel_cal_prep, S2_DELAY, {accel_cal_prep_state, accel_cal_state      }},
  88:Core/Src/main_functions.c ****     {&accel_cal,      S3_DELAY, {normal_state,         normal_state         }}
  89:Core/Src/main_functions.c **** };
  90:Core/Src/main_functions.c **** 
  91:Core/Src/main_functions.c **** 
  92:Core/Src/main_functions.c **** /* 
  93:Core/Src/main_functions.c ****  * ---------------------------------------------------------------------------------------------
  94:Core/Src/main_functions.c ****  * Psudo Main Function 
  95:Core/Src/main_functions.c ****  * ---------------------------------------------------------------------------------------------
  96:Core/Src/main_functions.c ****  */
  97:Core/Src/main_functions.c **** void main_function(void) {
  98:Core/Src/main_functions.c ****      
  99:Core/Src/main_functions.c ****     flag = 0;
 100:Core/Src/main_functions.c ****     state = accel_cal_state;
 101:Core/Src/main_functions.c **** 
 102:Core/Src/main_functions.c ****     lcd_init();
 103:Core/Src/main_functions.c ****     MPU6050_Init();
 104:Core/Src/main_functions.c ****     lcd_send_string("Initialized");
 105:Core/Src/main_functions.c ****     HAL_Delay(1500);
 106:Core/Src/main_functions.c **** 
 107:Core/Src/main_functions.c ****     // SD tests ------------------------------------
 108:Core/Src/main_functions.c **** 
 109:Core/Src/main_functions.c ****     // Initialize card  
 110:Core/Src/main_functions.c ****     sd_card(INIT);
 111:Core/Src/main_functions.c **** 
 112:Core/Src/main_functions.c ****     // Get available card space
 113:Core/Src/main_functions.c ****     sd_card(SPACE);
 114:Core/Src/main_functions.c **** 
 115:Core/Src/main_functions.c ****     // sd_card(CREATE);
 116:Core/Src/main_functions.c **** 
 117:Core/Src/main_functions.c ****     // sd_card(UPDATE);
 118:Core/Src/main_functions.c **** 
 119:Core/Src/main_functions.c ****     // sd_card(REMOVE);
 120:Core/Src/main_functions.c ****     
 121:Core/Src/main_functions.c ****     // Main loop 
 122:Core/Src/main_functions.c ****     while(1) {
 123:Core/Src/main_functions.c **** 
 124:Core/Src/main_functions.c ****         // Execute state machine 
ARM GAS  C:\Users\samue\AppData\Local\Temp\ccxwy6p9.s 			page 4


 125:Core/Src/main_functions.c ****         (FSM[state].output_func)();
 126:Core/Src/main_functions.c ****         HAL_Delay(FSM[state].time_delay);
 127:Core/Src/main_functions.c ****         state = FSM[state].next_state[flag];
 128:Core/Src/main_functions.c **** 
 129:Core/Src/main_functions.c ****     }
 130:Core/Src/main_functions.c **** }
 131:Core/Src/main_functions.c **** 
 132:Core/Src/main_functions.c **** 
 133:Core/Src/main_functions.c **** /* 
 134:Core/Src/main_functions.c ****  * ---------------------------------------------------------------------------------------------
 135:Core/Src/main_functions.c ****  * Functions
 136:Core/Src/main_functions.c ****  * ---------------------------------------------------------------------------------------------
 137:Core/Src/main_functions.c ****  */
 138:Core/Src/main_functions.c **** 
 139:Core/Src/main_functions.c **** // External Interrupt
 140:Core/Src/main_functions.c **** void HAL_GPIO_EXTI_Callback(uint16_t GPIO_Pin) {
 141:Core/Src/main_functions.c **** 	flag = 1;
 142:Core/Src/main_functions.c **** }
 143:Core/Src/main_functions.c **** 
 144:Core/Src/main_functions.c **** // Normal run mode
 145:Core/Src/main_functions.c **** void normal(void) {
 146:Core/Src/main_functions.c **** 
 147:Core/Src/main_functions.c ****     // Read linear acceleration data (x, y, z) - in units of gravity (g's)
 148:Core/Src/main_functions.c ****     accel_data_p = MPU6050_read(ACCEL_CONST, MPU6050_ADDR, ACCEL_XOUT_H_REG, accel_corr);	
 149:Core/Src/main_functions.c **** 
 150:Core/Src/main_functions.c ****     // Parse linear acceleration data (x, y, z)
 151:Core/Src/main_functions.c **** 	accel_data_value[0] = abs((int)accel_data_p[0]);
 152:Core/Src/main_functions.c **** 	accel_data_value[1] = abs((int)(10*accel_data_p[0])  % 10);
 153:Core/Src/main_functions.c ****     accel_data_value[2] = abs((int)(100*accel_data_p[0]) % 10);
 154:Core/Src/main_functions.c **** 
 155:Core/Src/main_functions.c **** 	accel_data_value[3] = abs((int)accel_data_p[1]);
 156:Core/Src/main_functions.c **** 	accel_data_value[4] = abs((int)(10*accel_data_p[1])  % 10);
 157:Core/Src/main_functions.c ****     accel_data_value[5] = abs((int)(100*accel_data_p[1]) % 10);
 158:Core/Src/main_functions.c **** 
 159:Core/Src/main_functions.c **** 	accel_data_value[6] = abs((int)accel_data_p[2]);
 160:Core/Src/main_functions.c **** 	accel_data_value[7] = abs((int)(10*accel_data_p[2])  % 10);
 161:Core/Src/main_functions.c ****     accel_data_value[8] = abs((int)(100*accel_data_p[2]) % 10);
 162:Core/Src/main_functions.c **** 
 163:Core/Src/main_functions.c ****     // Read angular acceleration data (alpha, beta, gamma) - in units of deg/s
 164:Core/Src/main_functions.c ****     gyro_data_p  = MPU6050_read(GYRO_CONST, MPU6050_ADDR, GYRO_XOUT_H_REG, gyro_corr);
 165:Core/Src/main_functions.c **** 
 166:Core/Src/main_functions.c ****      // Parse angular acceleration data (alpha, beta, gamma)
 167:Core/Src/main_functions.c ****     gyro_data_value[0] = abs((int)gyro_data_p[0]);
 168:Core/Src/main_functions.c **** 	gyro_data_value[1] = abs((int)(10*gyro_data_p[0])  % 10);
 169:Core/Src/main_functions.c ****     gyro_data_value[2] = abs((int)(100*gyro_data_p[0]) % 10);
 170:Core/Src/main_functions.c **** 
 171:Core/Src/main_functions.c **** 	gyro_data_value[3] = abs((int)gyro_data_p[1]);
 172:Core/Src/main_functions.c **** 	gyro_data_value[4] = abs((int)(10*gyro_data_p[1])  % 10);
 173:Core/Src/main_functions.c ****     gyro_data_value[5] = abs((int)(100*gyro_data_p[1]) % 10);
 174:Core/Src/main_functions.c **** 
 175:Core/Src/main_functions.c **** 	gyro_data_value[6] = abs((int)gyro_data_p[2]);
 176:Core/Src/main_functions.c **** 	gyro_data_value[7] = abs((int)(10*gyro_data_p[2])  % 10);
 177:Core/Src/main_functions.c ****     gyro_data_value[8] = abs((int)(100*gyro_data_p[2]) % 10);
 178:Core/Src/main_functions.c **** 
 179:Core/Src/main_functions.c **** 	// Print parsed data to the screen
 180:Core/Src/main_functions.c ****     // Ax
 181:Core/Src/main_functions.c ****     print_data(0x00, 0x04, 0x03, Ax_string, 0, accel_data_p[0], accel_data_value);
ARM GAS  C:\Users\samue\AppData\Local\Temp\ccxwy6p9.s 			page 5


 182:Core/Src/main_functions.c **** 
 183:Core/Src/main_functions.c ****     // Ay
 184:Core/Src/main_functions.c ****     print_data(0x40, 0x44, 0x43, Ay_string, 3, accel_data_p[1], accel_data_value);
 185:Core/Src/main_functions.c **** 
 186:Core/Src/main_functions.c ****     // Az
 187:Core/Src/main_functions.c ****     print_data(0x14, 0x18, 0x17, Az_string, 6, accel_data_p[2], accel_data_value);
 188:Core/Src/main_functions.c **** 
 189:Core/Src/main_functions.c ****     // Gx
 190:Core/Src/main_functions.c ****     print_data(0x0A, 0x0E, 0x0D, Gx_string, 0, gyro_data_p[0], gyro_data_value);
 191:Core/Src/main_functions.c **** 
 192:Core/Src/main_functions.c ****     // Gy
 193:Core/Src/main_functions.c ****     print_data(0x4A, 0x4E, 0x4D, Gy_string, 3, gyro_data_p[1], gyro_data_value);
 194:Core/Src/main_functions.c **** 
 195:Core/Src/main_functions.c ****     // Gz
 196:Core/Src/main_functions.c ****     print_data(0x1E, 0x22, 0x21, Gz_string, 6, gyro_data_p[2], gyro_data_value);
 197:Core/Src/main_functions.c **** 
 198:Core/Src/main_functions.c ****     // To ensure any additional text that was printed to the screen is cleared
 199:Core/Src/main_functions.c **** 	lcd_send_cmd(0x80|0x54);
 200:Core/Src/main_functions.c **** 	lcd_send_string("                    ");
 201:Core/Src/main_functions.c **** }
 202:Core/Src/main_functions.c **** 
 203:Core/Src/main_functions.c **** // Print parsed data to the LCD display 
 204:Core/Src/main_functions.c **** void print_data(
 205:Core/Src/main_functions.c ****     uint8_t pos1, 
 206:Core/Src/main_functions.c ****     uint8_t pos2, 
 207:Core/Src/main_functions.c ****     uint8_t pos3, 
 208:Core/Src/main_functions.c ****     char str[], 
 209:Core/Src/main_functions.c ****     uint8_t index, 
 210:Core/Src/main_functions.c ****     float val,
 211:Core/Src/main_functions.c ****     int data[]) 
 212:Core/Src/main_functions.c **** {
 213:Core/Src/main_functions.c **** 
 214:Core/Src/main_functions.c ****     lcd_send_cmd(0x80|pos1);
 215:Core/Src/main_functions.c **** 	lcd_send_string(str);
 216:Core/Src/main_functions.c ****     if (val >= 0) {
 217:Core/Src/main_functions.c ****         line_pos = pos2;
 218:Core/Src/main_functions.c ****         sprintf(buf, "%d.%d%d", data[index], data[index+1], data[index+2]);
 219:Core/Src/main_functions.c ****     }
 220:Core/Src/main_functions.c ****     else {
 221:Core/Src/main_functions.c ****         line_pos = pos3;
 222:Core/Src/main_functions.c ****         sprintf(buf, "-%d.%d%d", data[index], data[index+1], data[index+2]);
 223:Core/Src/main_functions.c ****     }
 224:Core/Src/main_functions.c **** 	lcd_send_cmd(0x80|line_pos);
 225:Core/Src/main_functions.c **** 	lcd_send_string(buf);
 226:Core/Src/main_functions.c **** }
 227:Core/Src/main_functions.c **** 
 228:Core/Src/main_functions.c **** // Prepare to calibrate the accelerometer
 229:Core/Src/main_functions.c **** void accel_cal_prep(void) 
 230:Core/Src/main_functions.c **** {
  39              		.loc 1 230 1 view -0
  40              		.cfi_startproc
  41              		@ args = 0, pretend = 0, frame = 0
  42              		@ frame_needed = 0, uses_anonymous_args = 0
  43 0000 08B5     		push	{r3, lr}
  44              	.LCFI0:
  45              		.cfi_def_cfa_offset 8
  46              		.cfi_offset 3, -8
ARM GAS  C:\Users\samue\AppData\Local\Temp\ccxwy6p9.s 			page 6


  47              		.cfi_offset 14, -4
 231:Core/Src/main_functions.c ****     if (flag == 1) {
  48              		.loc 1 231 5 view .LVU1
  49              		.loc 1 231 14 is_stmt 0 view .LVU2
  50 0002 0E4B     		ldr	r3, .L5
  51 0004 1B78     		ldrb	r3, [r3]	@ zero_extendqisi2
  52              		.loc 1 231 8 view .LVU3
  53 0006 012B     		cmp	r3, #1
  54 0008 12D0     		beq	.L4
  55              	.L2:
 232:Core/Src/main_functions.c ****         lcd_clear();
 233:Core/Src/main_functions.c ****         flag = 0;
 234:Core/Src/main_functions.c ****     }
 235:Core/Src/main_functions.c **** 
 236:Core/Src/main_functions.c **** 	lcd_send_cmd(0x80|0x00);
  56              		.loc 1 236 2 is_stmt 1 view .LVU4
  57 000a 8020     		movs	r0, #128
  58 000c FFF7FEFF 		bl	lcd_send_cmd
  59              	.LVL0:
 237:Core/Src/main_functions.c **** 	lcd_send_string("Position the");
  60              		.loc 1 237 2 view .LVU5
  61 0010 0B48     		ldr	r0, .L5+4
  62 0012 FFF7FEFF 		bl	lcd_send_string
  63              	.LVL1:
 238:Core/Src/main_functions.c **** 	lcd_send_cmd(0x80|0x40);
  64              		.loc 1 238 2 view .LVU6
  65 0016 C020     		movs	r0, #192
  66 0018 FFF7FEFF 		bl	lcd_send_cmd
  67              	.LVL2:
 239:Core/Src/main_functions.c **** 	lcd_send_string("accelerometer to its");
  68              		.loc 1 239 2 view .LVU7
  69 001c 0948     		ldr	r0, .L5+8
  70 001e FFF7FEFF 		bl	lcd_send_string
  71              	.LVL3:
 240:Core/Src/main_functions.c **** 	lcd_send_cmd(0x80|0x14);
  72              		.loc 1 240 2 view .LVU8
  73 0022 9420     		movs	r0, #148
  74 0024 FFF7FEFF 		bl	lcd_send_cmd
  75              	.LVL4:
 241:Core/Src/main_functions.c **** 	lcd_send_string("zero position");
  76              		.loc 1 241 2 view .LVU9
  77 0028 0748     		ldr	r0, .L5+12
  78 002a FFF7FEFF 		bl	lcd_send_string
  79              	.LVL5:
 242:Core/Src/main_functions.c **** }
  80              		.loc 1 242 1 is_stmt 0 view .LVU10
  81 002e 08BD     		pop	{r3, pc}
  82              	.L4:
 232:Core/Src/main_functions.c ****         flag = 0;
  83              		.loc 1 232 9 is_stmt 1 view .LVU11
  84 0030 FFF7FEFF 		bl	lcd_clear
  85              	.LVL6:
 233:Core/Src/main_functions.c ****     }
  86              		.loc 1 233 9 view .LVU12
 233:Core/Src/main_functions.c ****     }
  87              		.loc 1 233 14 is_stmt 0 view .LVU13
  88 0034 014B     		ldr	r3, .L5
ARM GAS  C:\Users\samue\AppData\Local\Temp\ccxwy6p9.s 			page 7


  89 0036 0022     		movs	r2, #0
  90 0038 1A70     		strb	r2, [r3]
  91 003a E6E7     		b	.L2
  92              	.L6:
  93              		.align	2
  94              	.L5:
  95 003c 00000000 		.word	.LANCHOR0
  96 0040 00000000 		.word	.LC0
  97 0044 10000000 		.word	.LC1
  98 0048 28000000 		.word	.LC2
  99              		.cfi_endproc
 100              	.LFE137:
 102              		.section	.rodata.accel_cal.str1.4,"aMS",%progbits,1
 103              		.align	2
 104              	.LC3:
 105 0000 43616C69 		.ascii	"Calibration Complete\000"
 105      62726174 
 105      696F6E20 
 105      436F6D70 
 105      6C657465 
 106              		.section	.text.accel_cal,"ax",%progbits
 107              		.align	1
 108              		.global	accel_cal
 109              		.syntax unified
 110              		.thumb
 111              		.thumb_func
 113              	accel_cal:
 114              	.LFB138:
 243:Core/Src/main_functions.c **** 
 244:Core/Src/main_functions.c **** // Calibrate the accelerometer
 245:Core/Src/main_functions.c **** void accel_cal(void) 
 246:Core/Src/main_functions.c **** {
 115              		.loc 1 246 1 is_stmt 1 view -0
 116              		.cfi_startproc
 117              		@ args = 0, pretend = 0, frame = 0
 118              		@ frame_needed = 0, uses_anonymous_args = 0
 119 0000 10B5     		push	{r4, lr}
 120              	.LCFI1:
 121              		.cfi_def_cfa_offset 8
 122              		.cfi_offset 4, -8
 123              		.cfi_offset 14, -4
 247:Core/Src/main_functions.c **** 	lcd_clear();
 124              		.loc 1 247 2 view .LVU15
 125 0002 FFF7FEFF 		bl	lcd_clear
 126              	.LVL7:
 248:Core/Src/main_functions.c ****     flag = 0;
 127              		.loc 1 248 5 view .LVU16
 128              		.loc 1 248 10 is_stmt 0 view .LVU17
 129 0006 154B     		ldr	r3, .L9
 130 0008 0022     		movs	r2, #0
 131 000a 1A70     		strb	r2, [r3]
 249:Core/Src/main_functions.c **** 	
 250:Core/Src/main_functions.c ****     accel_corr_p = MPU6050_read(ACCEL_CONST, MPU6050_ADDR, ACCEL_XOUT_H_REG, zero_corr);
 132              		.loc 1 250 5 is_stmt 1 view .LVU18
 133              		.loc 1 250 20 is_stmt 0 view .LVU19
 134 000c 144C     		ldr	r4, .L9+4
 135 000e 2246     		mov	r2, r4
ARM GAS  C:\Users\samue\AppData\Local\Temp\ccxwy6p9.s 			page 8


 136 0010 3B21     		movs	r1, #59
 137 0012 D020     		movs	r0, #208
 138 0014 9FED130A 		vldr.32	s0, .L9+8
 139 0018 FFF7FEFF 		bl	MPU6050_read
 140              	.LVL8:
 141              		.loc 1 250 18 view .LVU20
 142 001c 124B     		ldr	r3, .L9+12
 143 001e 1860     		str	r0, [r3]
 251:Core/Src/main_functions.c **** 
 252:Core/Src/main_functions.c ****     accel_corr[0] = accel_corr_p[0];
 144              		.loc 1 252 5 is_stmt 1 view .LVU21
 145              		.loc 1 252 33 is_stmt 0 view .LVU22
 146 0020 0268     		ldr	r2, [r0]	@ float
 147              		.loc 1 252 19 view .LVU23
 148 0022 124B     		ldr	r3, .L9+16
 149 0024 1A60     		str	r2, [r3]	@ float
 253:Core/Src/main_functions.c **** 	accel_corr[1] = accel_corr_p[1];
 150              		.loc 1 253 2 is_stmt 1 view .LVU24
 151              		.loc 1 253 16 is_stmt 0 view .LVU25
 152 0026 4268     		ldr	r2, [r0, #4]	@ float
 153 0028 5A60     		str	r2, [r3, #4]	@ float
 254:Core/Src/main_functions.c **** 	accel_corr[2] = accel_corr_p[2];
 154              		.loc 1 254 2 is_stmt 1 view .LVU26
 155              		.loc 1 254 16 is_stmt 0 view .LVU27
 156 002a 8268     		ldr	r2, [r0, #8]	@ float
 157 002c 9A60     		str	r2, [r3, #8]	@ float
 255:Core/Src/main_functions.c **** 
 256:Core/Src/main_functions.c **** 	gyro_corr_p  = MPU6050_read(GYRO_CONST, MPU6050_ADDR, GYRO_XOUT_H_REG, zero_corr);
 158              		.loc 1 256 2 is_stmt 1 view .LVU28
 159              		.loc 1 256 17 is_stmt 0 view .LVU29
 160 002e 2246     		mov	r2, r4
 161 0030 4321     		movs	r1, #67
 162 0032 D020     		movs	r0, #208
 163 0034 9FED0E0A 		vldr.32	s0, .L9+20
 164 0038 FFF7FEFF 		bl	MPU6050_read
 165              	.LVL9:
 166              		.loc 1 256 15 view .LVU30
 167 003c 0D4B     		ldr	r3, .L9+24
 168 003e 1860     		str	r0, [r3]
 257:Core/Src/main_functions.c **** 
 258:Core/Src/main_functions.c **** 	gyro_corr[0]  = gyro_corr_p[0];
 169              		.loc 1 258 2 is_stmt 1 view .LVU31
 170              		.loc 1 258 29 is_stmt 0 view .LVU32
 171 0040 0268     		ldr	r2, [r0]	@ float
 172              		.loc 1 258 16 view .LVU33
 173 0042 0D4B     		ldr	r3, .L9+28
 174 0044 1A60     		str	r2, [r3]	@ float
 259:Core/Src/main_functions.c **** 	gyro_corr[1]  = gyro_corr_p[1];
 175              		.loc 1 259 2 is_stmt 1 view .LVU34
 176              		.loc 1 259 16 is_stmt 0 view .LVU35
 177 0046 4268     		ldr	r2, [r0, #4]	@ float
 178 0048 5A60     		str	r2, [r3, #4]	@ float
 260:Core/Src/main_functions.c **** 	gyro_corr[2]  = gyro_corr_p[2];
 179              		.loc 1 260 2 is_stmt 1 view .LVU36
 180              		.loc 1 260 16 is_stmt 0 view .LVU37
 181 004a 8268     		ldr	r2, [r0, #8]	@ float
 182 004c 9A60     		str	r2, [r3, #8]	@ float
ARM GAS  C:\Users\samue\AppData\Local\Temp\ccxwy6p9.s 			page 9


 261:Core/Src/main_functions.c **** 
 262:Core/Src/main_functions.c **** 	lcd_send_cmd(0x80|0x00);
 183              		.loc 1 262 2 is_stmt 1 view .LVU38
 184 004e 8020     		movs	r0, #128
 185 0050 FFF7FEFF 		bl	lcd_send_cmd
 186              	.LVL10:
 263:Core/Src/main_functions.c **** 	lcd_send_string("Calibration Complete");
 187              		.loc 1 263 2 view .LVU39
 188 0054 0948     		ldr	r0, .L9+32
 189 0056 FFF7FEFF 		bl	lcd_send_string
 190              	.LVL11:
 264:Core/Src/main_functions.c **** }
 191              		.loc 1 264 1 is_stmt 0 view .LVU40
 192 005a 10BD     		pop	{r4, pc}
 193              	.L10:
 194              		.align	2
 195              	.L9:
 196 005c 00000000 		.word	.LANCHOR0
 197 0060 00000000 		.word	.LANCHOR1
 198 0064 00008046 		.word	1182793728
 199 0068 00000000 		.word	.LANCHOR2
 200 006c 00000000 		.word	.LANCHOR3
 201 0070 00000343 		.word	1124270080
 202 0074 00000000 		.word	.LANCHOR4
 203 0078 00000000 		.word	.LANCHOR5
 204 007c 00000000 		.word	.LC3
 205              		.cfi_endproc
 206              	.LFE138:
 208              		.section	.rodata.main_function.str1.4,"aMS",%progbits,1
 209              		.align	2
 210              	.LC4:
 211 0000 496E6974 		.ascii	"Initialized\000"
 211      69616C69 
 211      7A656400 
 212              		.section	.text.main_function,"ax",%progbits
 213              		.align	1
 214              		.global	main_function
 215              		.syntax unified
 216              		.thumb
 217              		.thumb_func
 219              	main_function:
 220              	.LFB133:
  97:Core/Src/main_functions.c ****      
 221              		.loc 1 97 26 is_stmt 1 view -0
 222              		.cfi_startproc
 223              		@ Volatile: function does not return.
 224              		@ args = 0, pretend = 0, frame = 0
 225              		@ frame_needed = 0, uses_anonymous_args = 0
 226 0000 08B5     		push	{r3, lr}
 227              	.LCFI2:
 228              		.cfi_def_cfa_offset 8
 229              		.cfi_offset 3, -8
 230              		.cfi_offset 14, -4
  99:Core/Src/main_functions.c ****     state = accel_cal_state;
 231              		.loc 1 99 5 view .LVU42
  99:Core/Src/main_functions.c ****     state = accel_cal_state;
 232              		.loc 1 99 10 is_stmt 0 view .LVU43
ARM GAS  C:\Users\samue\AppData\Local\Temp\ccxwy6p9.s 			page 10


 233 0002 0024     		movs	r4, #0
 234 0004 154B     		ldr	r3, .L14
 235 0006 1C70     		strb	r4, [r3]
 100:Core/Src/main_functions.c **** 
 236              		.loc 1 100 5 is_stmt 1 view .LVU44
 100:Core/Src/main_functions.c **** 
 237              		.loc 1 100 11 is_stmt 0 view .LVU45
 238 0008 154B     		ldr	r3, .L14+4
 239 000a 0222     		movs	r2, #2
 240 000c 1A60     		str	r2, [r3]
 102:Core/Src/main_functions.c ****     MPU6050_Init();
 241              		.loc 1 102 5 is_stmt 1 view .LVU46
 242 000e FFF7FEFF 		bl	lcd_init
 243              	.LVL12:
 103:Core/Src/main_functions.c ****     lcd_send_string("Initialized");
 244              		.loc 1 103 5 view .LVU47
 245 0012 FFF7FEFF 		bl	MPU6050_Init
 246              	.LVL13:
 104:Core/Src/main_functions.c ****     HAL_Delay(1500);
 247              		.loc 1 104 5 view .LVU48
 248 0016 1348     		ldr	r0, .L14+8
 249 0018 FFF7FEFF 		bl	lcd_send_string
 250              	.LVL14:
 105:Core/Src/main_functions.c **** 
 251              		.loc 1 105 5 view .LVU49
 252 001c 40F2DC50 		movw	r0, #1500
 253 0020 FFF7FEFF 		bl	HAL_Delay
 254              	.LVL15:
 110:Core/Src/main_functions.c **** 
 255              		.loc 1 110 5 view .LVU50
 256 0024 2046     		mov	r0, r4
 257 0026 FFF7FEFF 		bl	sd_card
 258              	.LVL16:
 113:Core/Src/main_functions.c **** 
 259              		.loc 1 113 5 view .LVU51
 260 002a 0420     		movs	r0, #4
 261 002c FFF7FEFF 		bl	sd_card
 262              	.LVL17:
 263              	.L12:
 122:Core/Src/main_functions.c **** 
 264              		.loc 1 122 5 discriminator 1 view .LVU52
 125:Core/Src/main_functions.c ****         HAL_Delay(FSM[state].time_delay);
 265              		.loc 1 125 9 discriminator 1 view .LVU53
 125:Core/Src/main_functions.c ****         HAL_Delay(FSM[state].time_delay);
 266              		.loc 1 125 20 is_stmt 0 discriminator 1 view .LVU54
 267 0030 0D4D     		ldr	r5, .L14+12
 268 0032 0B4C     		ldr	r4, .L14+4
 269 0034 2368     		ldr	r3, [r4]
 270 0036 1B01     		lsls	r3, r3, #4
 271 0038 EB58     		ldr	r3, [r5, r3]
 272 003a 9847     		blx	r3
 273              	.LVL18:
 126:Core/Src/main_functions.c ****         state = FSM[state].next_state[flag];
 274              		.loc 1 126 9 is_stmt 1 discriminator 1 view .LVU55
 275 003c 2368     		ldr	r3, [r4]
 276 003e 05EB0313 		add	r3, r5, r3, lsl #4
 277 0042 5868     		ldr	r0, [r3, #4]
ARM GAS  C:\Users\samue\AppData\Local\Temp\ccxwy6p9.s 			page 11


 278 0044 FFF7FEFF 		bl	HAL_Delay
 279              	.LVL19:
 127:Core/Src/main_functions.c **** 
 280              		.loc 1 127 9 discriminator 1 view .LVU56
 127:Core/Src/main_functions.c **** 
 281              		.loc 1 127 38 is_stmt 0 discriminator 1 view .LVU57
 282 0048 2268     		ldr	r2, [r4]
 283 004a 044B     		ldr	r3, .L14
 284 004c 1B78     		ldrb	r3, [r3]	@ zero_extendqisi2
 285 004e 03EB8203 		add	r3, r3, r2, lsl #2
 286 0052 0233     		adds	r3, r3, #2
 287 0054 55F82330 		ldr	r3, [r5, r3, lsl #2]
 127:Core/Src/main_functions.c **** 
 288              		.loc 1 127 15 discriminator 1 view .LVU58
 289 0058 2360     		str	r3, [r4]
 122:Core/Src/main_functions.c **** 
 290              		.loc 1 122 10 is_stmt 1 discriminator 1 view .LVU59
 291 005a E9E7     		b	.L12
 292              	.L15:
 293              		.align	2
 294              	.L14:
 295 005c 00000000 		.word	.LANCHOR0
 296 0060 00000000 		.word	.LANCHOR6
 297 0064 00000000 		.word	.LC4
 298 0068 00000000 		.word	.LANCHOR7
 299              		.cfi_endproc
 300              	.LFE133:
 302              		.section	.text.HAL_GPIO_EXTI_Callback,"ax",%progbits
 303              		.align	1
 304              		.global	HAL_GPIO_EXTI_Callback
 305              		.syntax unified
 306              		.thumb
 307              		.thumb_func
 309              	HAL_GPIO_EXTI_Callback:
 310              	.LVL20:
 311              	.LFB134:
 140:Core/Src/main_functions.c **** 	flag = 1;
 312              		.loc 1 140 48 view -0
 313              		.cfi_startproc
 314              		@ args = 0, pretend = 0, frame = 0
 315              		@ frame_needed = 0, uses_anonymous_args = 0
 316              		@ link register save eliminated.
 141:Core/Src/main_functions.c **** }
 317              		.loc 1 141 2 view .LVU61
 141:Core/Src/main_functions.c **** }
 318              		.loc 1 141 7 is_stmt 0 view .LVU62
 319 0000 014B     		ldr	r3, .L17
 320 0002 0122     		movs	r2, #1
 321 0004 1A70     		strb	r2, [r3]
 142:Core/Src/main_functions.c **** 
 322              		.loc 1 142 1 view .LVU63
 323 0006 7047     		bx	lr
 324              	.L18:
 325              		.align	2
 326              	.L17:
 327 0008 00000000 		.word	.LANCHOR0
 328              		.cfi_endproc
ARM GAS  C:\Users\samue\AppData\Local\Temp\ccxwy6p9.s 			page 12


 329              	.LFE134:
 331              		.section	.rodata.print_data.str1.4,"aMS",%progbits,1
 332              		.align	2
 333              	.LC5:
 334 0000 25642E25 		.ascii	"%d.%d%d\000"
 334      64256400 
 335              		.align	2
 336              	.LC6:
 337 0008 2D25642E 		.ascii	"-%d.%d%d\000"
 337      25642564 
 337      00
 338              		.section	.text.print_data,"ax",%progbits
 339              		.align	1
 340              		.global	print_data
 341              		.syntax unified
 342              		.thumb
 343              		.thumb_func
 345              	print_data:
 346              	.LVL21:
 347              	.LFB136:
 212:Core/Src/main_functions.c **** 
 348              		.loc 1 212 1 is_stmt 1 view -0
 349              		.cfi_startproc
 350              		@ args = 8, pretend = 0, frame = 0
 351              		@ frame_needed = 0, uses_anonymous_args = 0
 212:Core/Src/main_functions.c **** 
 352              		.loc 1 212 1 is_stmt 0 view .LVU65
 353 0000 2DE9F041 		push	{r4, r5, r6, r7, r8, lr}
 354              	.LCFI3:
 355              		.cfi_def_cfa_offset 24
 356              		.cfi_offset 4, -24
 357              		.cfi_offset 5, -20
 358              		.cfi_offset 6, -16
 359              		.cfi_offset 7, -12
 360              		.cfi_offset 8, -8
 361              		.cfi_offset 14, -4
 362 0004 2DED028B 		vpush.64	{d8}
 363              	.LCFI4:
 364              		.cfi_def_cfa_offset 32
 365              		.cfi_offset 80, -32
 366              		.cfi_offset 81, -28
 367 0008 82B0     		sub	sp, sp, #8
 368              	.LCFI5:
 369              		.cfi_def_cfa_offset 40
 370 000a 8846     		mov	r8, r1
 371 000c 1746     		mov	r7, r2
 372 000e 1E46     		mov	r6, r3
 373 0010 9DF82850 		ldrb	r5, [sp, #40]	@ zero_extendqisi2
 374 0014 B0EE408A 		vmov.f32	s16, s0
 375 0018 0B9C     		ldr	r4, [sp, #44]
 214:Core/Src/main_functions.c **** 	lcd_send_string(str);
 376              		.loc 1 214 5 is_stmt 1 view .LVU66
 377 001a 40F08000 		orr	r0, r0, #128
 378              	.LVL22:
 214:Core/Src/main_functions.c **** 	lcd_send_string(str);
 379              		.loc 1 214 5 is_stmt 0 view .LVU67
 380 001e FFF7FEFF 		bl	lcd_send_cmd
ARM GAS  C:\Users\samue\AppData\Local\Temp\ccxwy6p9.s 			page 13


 381              	.LVL23:
 215:Core/Src/main_functions.c ****     if (val >= 0) {
 382              		.loc 1 215 2 is_stmt 1 view .LVU68
 383 0022 3046     		mov	r0, r6
 384 0024 FFF7FEFF 		bl	lcd_send_string
 385              	.LVL24:
 216:Core/Src/main_functions.c ****         line_pos = pos2;
 386              		.loc 1 216 5 view .LVU69
 216:Core/Src/main_functions.c ****         line_pos = pos2;
 387              		.loc 1 216 8 is_stmt 0 view .LVU70
 388 0028 B5EEC08A 		vcmpe.f32	s16, #0
 389 002c F1EE10FA 		vmrs	APSR_nzcv, FPSCR
 390 0030 1DDB     		blt	.L24
 217:Core/Src/main_functions.c ****         sprintf(buf, "%d.%d%d", data[index], data[index+1], data[index+2]);
 391              		.loc 1 217 9 is_stmt 1 view .LVU71
 217:Core/Src/main_functions.c ****         sprintf(buf, "%d.%d%d", data[index], data[index+1], data[index+2]);
 392              		.loc 1 217 18 is_stmt 0 view .LVU72
 393 0032 174B     		ldr	r3, .L26
 394 0034 83F80080 		strb	r8, [r3]
 218:Core/Src/main_functions.c ****     }
 395              		.loc 1 218 9 is_stmt 1 view .LVU73
 218:Core/Src/main_functions.c ****     }
 396              		.loc 1 218 50 is_stmt 0 view .LVU74
 397 0038 6B1C     		adds	r3, r5, #1
 218:Core/Src/main_functions.c ****     }
 398              		.loc 1 218 65 view .LVU75
 399 003a AA1C     		adds	r2, r5, #2
 218:Core/Src/main_functions.c ****     }
 400              		.loc 1 218 9 view .LVU76
 401 003c 54F82220 		ldr	r2, [r4, r2, lsl #2]
 402 0040 0092     		str	r2, [sp]
 403 0042 54F82330 		ldr	r3, [r4, r3, lsl #2]
 404 0046 54F82520 		ldr	r2, [r4, r5, lsl #2]
 405 004a 1249     		ldr	r1, .L26+4
 406 004c 1248     		ldr	r0, .L26+8
 407 004e FFF7FEFF 		bl	sprintf
 408              	.LVL25:
 409              	.L22:
 224:Core/Src/main_functions.c **** 	lcd_send_string(buf);
 410              		.loc 1 224 2 is_stmt 1 view .LVU77
 411 0052 0F4B     		ldr	r3, .L26
 412 0054 1878     		ldrb	r0, [r3]	@ zero_extendqisi2
 413 0056 40F08000 		orr	r0, r0, #128
 414 005a FFF7FEFF 		bl	lcd_send_cmd
 415              	.LVL26:
 225:Core/Src/main_functions.c **** }
 416              		.loc 1 225 2 view .LVU78
 417 005e 0E48     		ldr	r0, .L26+8
 418 0060 FFF7FEFF 		bl	lcd_send_string
 419              	.LVL27:
 226:Core/Src/main_functions.c **** 
 420              		.loc 1 226 1 is_stmt 0 view .LVU79
 421 0064 02B0     		add	sp, sp, #8
 422              	.LCFI6:
 423              		.cfi_remember_state
 424              		.cfi_def_cfa_offset 32
 425              		@ sp needed
ARM GAS  C:\Users\samue\AppData\Local\Temp\ccxwy6p9.s 			page 14


 426 0066 BDEC028B 		vldm	sp!, {d8}
 427              	.LCFI7:
 428              		.cfi_restore 80
 429              		.cfi_restore 81
 430              		.cfi_def_cfa_offset 24
 431              	.LVL28:
 226:Core/Src/main_functions.c **** 
 432              		.loc 1 226 1 view .LVU80
 433 006a BDE8F081 		pop	{r4, r5, r6, r7, r8, pc}
 434              	.LVL29:
 435              	.L24:
 436              	.LCFI8:
 437              		.cfi_restore_state
 221:Core/Src/main_functions.c ****         sprintf(buf, "-%d.%d%d", data[index], data[index+1], data[index+2]);
 438              		.loc 1 221 9 is_stmt 1 view .LVU81
 221:Core/Src/main_functions.c ****         sprintf(buf, "-%d.%d%d", data[index], data[index+1], data[index+2]);
 439              		.loc 1 221 18 is_stmt 0 view .LVU82
 440 006e 084B     		ldr	r3, .L26
 441 0070 1F70     		strb	r7, [r3]
 222:Core/Src/main_functions.c ****     }
 442              		.loc 1 222 9 is_stmt 1 view .LVU83
 222:Core/Src/main_functions.c ****     }
 443              		.loc 1 222 51 is_stmt 0 view .LVU84
 444 0072 6B1C     		adds	r3, r5, #1
 222:Core/Src/main_functions.c ****     }
 445              		.loc 1 222 66 view .LVU85
 446 0074 AA1C     		adds	r2, r5, #2
 222:Core/Src/main_functions.c ****     }
 447              		.loc 1 222 9 view .LVU86
 448 0076 54F82220 		ldr	r2, [r4, r2, lsl #2]
 449 007a 0092     		str	r2, [sp]
 450 007c 54F82330 		ldr	r3, [r4, r3, lsl #2]
 451 0080 54F82520 		ldr	r2, [r4, r5, lsl #2]
 452 0084 0549     		ldr	r1, .L26+12
 453 0086 0448     		ldr	r0, .L26+8
 454 0088 FFF7FEFF 		bl	sprintf
 455              	.LVL30:
 456 008c E1E7     		b	.L22
 457              	.L27:
 458 008e 00BF     		.align	2
 459              	.L26:
 460 0090 00000000 		.word	.LANCHOR8
 461 0094 00000000 		.word	.LC5
 462 0098 00000000 		.word	.LANCHOR9
 463 009c 08000000 		.word	.LC6
 464              		.cfi_endproc
 465              	.LFE136:
 467              		.section	.rodata.normal.str1.4,"aMS",%progbits,1
 468              		.align	2
 469              	.LC7:
 470 0000 20202020 		.ascii	"                    \000"
 470      20202020 
 470      20202020 
 470      20202020 
 470      20202020 
 471              		.section	.text.normal,"ax",%progbits
 472              		.align	1
ARM GAS  C:\Users\samue\AppData\Local\Temp\ccxwy6p9.s 			page 15


 473              		.global	normal
 474              		.syntax unified
 475              		.thumb
 476              		.thumb_func
 478              	normal:
 479              	.LFB135:
 145:Core/Src/main_functions.c **** 
 480              		.loc 1 145 19 is_stmt 1 view -0
 481              		.cfi_startproc
 482              		@ args = 0, pretend = 0, frame = 0
 483              		@ frame_needed = 0, uses_anonymous_args = 0
 484 0000 2DE9F043 		push	{r4, r5, r6, r7, r8, r9, lr}
 485              	.LCFI9:
 486              		.cfi_def_cfa_offset 28
 487              		.cfi_offset 4, -28
 488              		.cfi_offset 5, -24
 489              		.cfi_offset 6, -20
 490              		.cfi_offset 7, -16
 491              		.cfi_offset 8, -12
 492              		.cfi_offset 9, -8
 493              		.cfi_offset 14, -4
 494 0004 2DED028B 		vpush.64	{d8}
 495              	.LCFI10:
 496              		.cfi_def_cfa_offset 36
 497              		.cfi_offset 80, -36
 498              		.cfi_offset 81, -32
 499 0008 83B0     		sub	sp, sp, #12
 500              	.LCFI11:
 501              		.cfi_def_cfa_offset 48
 148:Core/Src/main_functions.c **** 
 502              		.loc 1 148 5 view .LVU88
 148:Core/Src/main_functions.c **** 
 503              		.loc 1 148 20 is_stmt 0 view .LVU89
 504 000a D44A     		ldr	r2, .L30
 505 000c 3B21     		movs	r1, #59
 506 000e D020     		movs	r0, #208
 507 0010 9FEDD30A 		vldr.32	s0, .L30+4
 508 0014 FFF7FEFF 		bl	MPU6050_read
 509              	.LVL31:
 148:Core/Src/main_functions.c **** 
 510              		.loc 1 148 18 view .LVU90
 511 0018 D24F     		ldr	r7, .L30+8
 512 001a 3860     		str	r0, [r7]
 151:Core/Src/main_functions.c **** 	accel_data_value[1] = abs((int)(10*accel_data_p[0])  % 10);
 513              		.loc 1 151 2 is_stmt 1 view .LVU91
 151:Core/Src/main_functions.c **** 	accel_data_value[1] = abs((int)(10*accel_data_p[0])  % 10);
 514              		.loc 1 151 45 is_stmt 0 view .LVU92
 515 001c D0ED007A 		vldr.32	s15, [r0]
 151:Core/Src/main_functions.c **** 	accel_data_value[1] = abs((int)(10*accel_data_p[0])  % 10);
 516              		.loc 1 151 28 view .LVU93
 517 0020 FDEEE77A 		vcvt.s32.f32	s15, s15
 518 0024 17EE903A 		vmov	r3, s15	@ int
 151:Core/Src/main_functions.c **** 	accel_data_value[1] = abs((int)(10*accel_data_p[0])  % 10);
 519              		.loc 1 151 24 view .LVU94
 520 0028 002B     		cmp	r3, #0
 521 002a B8BF     		it	lt
 522 002c 5B42     		rsblt	r3, r3, #0
ARM GAS  C:\Users\samue\AppData\Local\Temp\ccxwy6p9.s 			page 16


 151:Core/Src/main_functions.c **** 	accel_data_value[1] = abs((int)(10*accel_data_p[0])  % 10);
 523              		.loc 1 151 22 view .LVU95
 524 002e CE4E     		ldr	r6, .L30+12
 525 0030 3360     		str	r3, [r6]
 152:Core/Src/main_functions.c ****     accel_data_value[2] = abs((int)(100*accel_data_p[0]) % 10);
 526              		.loc 1 152 2 is_stmt 1 view .LVU96
 152:Core/Src/main_functions.c ****     accel_data_value[2] = abs((int)(100*accel_data_p[0]) % 10);
 527              		.loc 1 152 49 is_stmt 0 view .LVU97
 528 0032 D0ED007A 		vldr.32	s15, [r0]
 152:Core/Src/main_functions.c ****     accel_data_value[2] = abs((int)(100*accel_data_p[0]) % 10);
 529              		.loc 1 152 36 view .LVU98
 530 0036 F2EE048A 		vmov.f32	s17, #1.0e+1
 531 003a 67EEA87A 		vmul.f32	s15, s15, s17
 152:Core/Src/main_functions.c ****     accel_data_value[2] = abs((int)(100*accel_data_p[0]) % 10);
 532              		.loc 1 152 28 view .LVU99
 533 003e FDEEE77A 		vcvt.s32.f32	s15, s15
 534 0042 17EE902A 		vmov	r2, s15	@ int
 152:Core/Src/main_functions.c ****     accel_data_value[2] = abs((int)(100*accel_data_p[0]) % 10);
 535              		.loc 1 152 55 view .LVU100
 536 0046 C94C     		ldr	r4, .L30+16
 537 0048 84FB0231 		smull	r3, r1, r4, r2
 538 004c D317     		asrs	r3, r2, #31
 539 004e C3EBA103 		rsb	r3, r3, r1, asr #2
 540 0052 03EB8303 		add	r3, r3, r3, lsl #2
 541 0056 A2EB4303 		sub	r3, r2, r3, lsl #1
 152:Core/Src/main_functions.c ****     accel_data_value[2] = abs((int)(100*accel_data_p[0]) % 10);
 542              		.loc 1 152 24 view .LVU101
 543 005a 002B     		cmp	r3, #0
 544 005c B8BF     		it	lt
 545 005e 5B42     		rsblt	r3, r3, #0
 152:Core/Src/main_functions.c ****     accel_data_value[2] = abs((int)(100*accel_data_p[0]) % 10);
 546              		.loc 1 152 22 view .LVU102
 547 0060 7360     		str	r3, [r6, #4]
 153:Core/Src/main_functions.c **** 
 548              		.loc 1 153 5 is_stmt 1 view .LVU103
 153:Core/Src/main_functions.c **** 
 549              		.loc 1 153 53 is_stmt 0 view .LVU104
 550 0062 D0ED007A 		vldr.32	s15, [r0]
 153:Core/Src/main_functions.c **** 
 551              		.loc 1 153 40 view .LVU105
 552 0066 9FEDC28A 		vldr.32	s16, .L30+20
 553 006a 67EE887A 		vmul.f32	s15, s15, s16
 153:Core/Src/main_functions.c **** 
 554              		.loc 1 153 31 view .LVU106
 555 006e FDEEE77A 		vcvt.s32.f32	s15, s15
 556 0072 17EE902A 		vmov	r2, s15	@ int
 153:Core/Src/main_functions.c **** 
 557              		.loc 1 153 58 view .LVU107
 558 0076 84FB0231 		smull	r3, r1, r4, r2
 559 007a D317     		asrs	r3, r2, #31
 560 007c C3EBA103 		rsb	r3, r3, r1, asr #2
 561 0080 03EB8303 		add	r3, r3, r3, lsl #2
 562 0084 A2EB4303 		sub	r3, r2, r3, lsl #1
 153:Core/Src/main_functions.c **** 
 563              		.loc 1 153 27 view .LVU108
 564 0088 002B     		cmp	r3, #0
 565 008a B8BF     		it	lt
ARM GAS  C:\Users\samue\AppData\Local\Temp\ccxwy6p9.s 			page 17


 566 008c 5B42     		rsblt	r3, r3, #0
 153:Core/Src/main_functions.c **** 
 567              		.loc 1 153 25 view .LVU109
 568 008e B360     		str	r3, [r6, #8]
 155:Core/Src/main_functions.c **** 	accel_data_value[4] = abs((int)(10*accel_data_p[1])  % 10);
 569              		.loc 1 155 2 is_stmt 1 view .LVU110
 155:Core/Src/main_functions.c **** 	accel_data_value[4] = abs((int)(10*accel_data_p[1])  % 10);
 570              		.loc 1 155 45 is_stmt 0 view .LVU111
 571 0090 D0ED017A 		vldr.32	s15, [r0, #4]
 155:Core/Src/main_functions.c **** 	accel_data_value[4] = abs((int)(10*accel_data_p[1])  % 10);
 572              		.loc 1 155 28 view .LVU112
 573 0094 FDEEE77A 		vcvt.s32.f32	s15, s15
 574 0098 17EE903A 		vmov	r3, s15	@ int
 155:Core/Src/main_functions.c **** 	accel_data_value[4] = abs((int)(10*accel_data_p[1])  % 10);
 575              		.loc 1 155 24 view .LVU113
 576 009c 002B     		cmp	r3, #0
 577 009e B8BF     		it	lt
 578 00a0 5B42     		rsblt	r3, r3, #0
 155:Core/Src/main_functions.c **** 	accel_data_value[4] = abs((int)(10*accel_data_p[1])  % 10);
 579              		.loc 1 155 22 view .LVU114
 580 00a2 F360     		str	r3, [r6, #12]
 156:Core/Src/main_functions.c ****     accel_data_value[5] = abs((int)(100*accel_data_p[1]) % 10);
 581              		.loc 1 156 2 is_stmt 1 view .LVU115
 156:Core/Src/main_functions.c ****     accel_data_value[5] = abs((int)(100*accel_data_p[1]) % 10);
 582              		.loc 1 156 49 is_stmt 0 view .LVU116
 583 00a4 D0ED017A 		vldr.32	s15, [r0, #4]
 156:Core/Src/main_functions.c ****     accel_data_value[5] = abs((int)(100*accel_data_p[1]) % 10);
 584              		.loc 1 156 36 view .LVU117
 585 00a8 67EEA87A 		vmul.f32	s15, s15, s17
 156:Core/Src/main_functions.c ****     accel_data_value[5] = abs((int)(100*accel_data_p[1]) % 10);
 586              		.loc 1 156 28 view .LVU118
 587 00ac FDEEE77A 		vcvt.s32.f32	s15, s15
 588 00b0 17EE902A 		vmov	r2, s15	@ int
 156:Core/Src/main_functions.c ****     accel_data_value[5] = abs((int)(100*accel_data_p[1]) % 10);
 589              		.loc 1 156 55 view .LVU119
 590 00b4 84FB0231 		smull	r3, r1, r4, r2
 591 00b8 D317     		asrs	r3, r2, #31
 592 00ba C3EBA103 		rsb	r3, r3, r1, asr #2
 593 00be 03EB8303 		add	r3, r3, r3, lsl #2
 594 00c2 A2EB4303 		sub	r3, r2, r3, lsl #1
 156:Core/Src/main_functions.c ****     accel_data_value[5] = abs((int)(100*accel_data_p[1]) % 10);
 595              		.loc 1 156 24 view .LVU120
 596 00c6 002B     		cmp	r3, #0
 597 00c8 B8BF     		it	lt
 598 00ca 5B42     		rsblt	r3, r3, #0
 156:Core/Src/main_functions.c ****     accel_data_value[5] = abs((int)(100*accel_data_p[1]) % 10);
 599              		.loc 1 156 22 view .LVU121
 600 00cc 3361     		str	r3, [r6, #16]
 157:Core/Src/main_functions.c **** 
 601              		.loc 1 157 5 is_stmt 1 view .LVU122
 157:Core/Src/main_functions.c **** 
 602              		.loc 1 157 53 is_stmt 0 view .LVU123
 603 00ce D0ED017A 		vldr.32	s15, [r0, #4]
 157:Core/Src/main_functions.c **** 
 604              		.loc 1 157 40 view .LVU124
 605 00d2 67EE887A 		vmul.f32	s15, s15, s16
 157:Core/Src/main_functions.c **** 
ARM GAS  C:\Users\samue\AppData\Local\Temp\ccxwy6p9.s 			page 18


 606              		.loc 1 157 31 view .LVU125
 607 00d6 FDEEE77A 		vcvt.s32.f32	s15, s15
 608 00da 17EE902A 		vmov	r2, s15	@ int
 157:Core/Src/main_functions.c **** 
 609              		.loc 1 157 58 view .LVU126
 610 00de 84FB0231 		smull	r3, r1, r4, r2
 611 00e2 D317     		asrs	r3, r2, #31
 612 00e4 C3EBA103 		rsb	r3, r3, r1, asr #2
 613 00e8 03EB8303 		add	r3, r3, r3, lsl #2
 614 00ec A2EB4303 		sub	r3, r2, r3, lsl #1
 157:Core/Src/main_functions.c **** 
 615              		.loc 1 157 27 view .LVU127
 616 00f0 002B     		cmp	r3, #0
 617 00f2 B8BF     		it	lt
 618 00f4 5B42     		rsblt	r3, r3, #0
 157:Core/Src/main_functions.c **** 
 619              		.loc 1 157 25 view .LVU128
 620 00f6 7361     		str	r3, [r6, #20]
 159:Core/Src/main_functions.c **** 	accel_data_value[7] = abs((int)(10*accel_data_p[2])  % 10);
 621              		.loc 1 159 2 is_stmt 1 view .LVU129
 159:Core/Src/main_functions.c **** 	accel_data_value[7] = abs((int)(10*accel_data_p[2])  % 10);
 622              		.loc 1 159 45 is_stmt 0 view .LVU130
 623 00f8 D0ED027A 		vldr.32	s15, [r0, #8]
 159:Core/Src/main_functions.c **** 	accel_data_value[7] = abs((int)(10*accel_data_p[2])  % 10);
 624              		.loc 1 159 28 view .LVU131
 625 00fc FDEEE77A 		vcvt.s32.f32	s15, s15
 626 0100 17EE903A 		vmov	r3, s15	@ int
 159:Core/Src/main_functions.c **** 	accel_data_value[7] = abs((int)(10*accel_data_p[2])  % 10);
 627              		.loc 1 159 24 view .LVU132
 628 0104 002B     		cmp	r3, #0
 629 0106 B8BF     		it	lt
 630 0108 5B42     		rsblt	r3, r3, #0
 159:Core/Src/main_functions.c **** 	accel_data_value[7] = abs((int)(10*accel_data_p[2])  % 10);
 631              		.loc 1 159 22 view .LVU133
 632 010a B361     		str	r3, [r6, #24]
 160:Core/Src/main_functions.c ****     accel_data_value[8] = abs((int)(100*accel_data_p[2]) % 10);
 633              		.loc 1 160 2 is_stmt 1 view .LVU134
 160:Core/Src/main_functions.c ****     accel_data_value[8] = abs((int)(100*accel_data_p[2]) % 10);
 634              		.loc 1 160 49 is_stmt 0 view .LVU135
 635 010c D0ED027A 		vldr.32	s15, [r0, #8]
 160:Core/Src/main_functions.c ****     accel_data_value[8] = abs((int)(100*accel_data_p[2]) % 10);
 636              		.loc 1 160 36 view .LVU136
 637 0110 67EEA87A 		vmul.f32	s15, s15, s17
 160:Core/Src/main_functions.c ****     accel_data_value[8] = abs((int)(100*accel_data_p[2]) % 10);
 638              		.loc 1 160 28 view .LVU137
 639 0114 FDEEE77A 		vcvt.s32.f32	s15, s15
 640 0118 17EE902A 		vmov	r2, s15	@ int
 160:Core/Src/main_functions.c ****     accel_data_value[8] = abs((int)(100*accel_data_p[2]) % 10);
 641              		.loc 1 160 55 view .LVU138
 642 011c 84FB0231 		smull	r3, r1, r4, r2
 643 0120 D317     		asrs	r3, r2, #31
 644 0122 C3EBA103 		rsb	r3, r3, r1, asr #2
 645 0126 03EB8303 		add	r3, r3, r3, lsl #2
 646 012a A2EB4303 		sub	r3, r2, r3, lsl #1
 160:Core/Src/main_functions.c ****     accel_data_value[8] = abs((int)(100*accel_data_p[2]) % 10);
 647              		.loc 1 160 24 view .LVU139
 648 012e 002B     		cmp	r3, #0
ARM GAS  C:\Users\samue\AppData\Local\Temp\ccxwy6p9.s 			page 19


 649 0130 B8BF     		it	lt
 650 0132 5B42     		rsblt	r3, r3, #0
 160:Core/Src/main_functions.c ****     accel_data_value[8] = abs((int)(100*accel_data_p[2]) % 10);
 651              		.loc 1 160 22 view .LVU140
 652 0134 F361     		str	r3, [r6, #28]
 161:Core/Src/main_functions.c **** 
 653              		.loc 1 161 5 is_stmt 1 view .LVU141
 161:Core/Src/main_functions.c **** 
 654              		.loc 1 161 53 is_stmt 0 view .LVU142
 655 0136 D0ED027A 		vldr.32	s15, [r0, #8]
 161:Core/Src/main_functions.c **** 
 656              		.loc 1 161 40 view .LVU143
 657 013a 67EE887A 		vmul.f32	s15, s15, s16
 161:Core/Src/main_functions.c **** 
 658              		.loc 1 161 31 view .LVU144
 659 013e FDEEE77A 		vcvt.s32.f32	s15, s15
 660 0142 17EE902A 		vmov	r2, s15	@ int
 161:Core/Src/main_functions.c **** 
 661              		.loc 1 161 58 view .LVU145
 662 0146 84FB0231 		smull	r3, r1, r4, r2
 663 014a D317     		asrs	r3, r2, #31
 664 014c C3EBA103 		rsb	r3, r3, r1, asr #2
 665 0150 03EB8303 		add	r3, r3, r3, lsl #2
 666 0154 A2EB4303 		sub	r3, r2, r3, lsl #1
 161:Core/Src/main_functions.c **** 
 667              		.loc 1 161 27 view .LVU146
 668 0158 002B     		cmp	r3, #0
 669 015a B8BF     		it	lt
 670 015c 5B42     		rsblt	r3, r3, #0
 161:Core/Src/main_functions.c **** 
 671              		.loc 1 161 25 view .LVU147
 672 015e 3362     		str	r3, [r6, #32]
 164:Core/Src/main_functions.c **** 
 673              		.loc 1 164 5 is_stmt 1 view .LVU148
 164:Core/Src/main_functions.c **** 
 674              		.loc 1 164 20 is_stmt 0 view .LVU149
 675 0160 844A     		ldr	r2, .L30+24
 676 0162 4321     		movs	r1, #67
 677 0164 D020     		movs	r0, #208
 678 0166 9FED840A 		vldr.32	s0, .L30+28
 679 016a FFF7FEFF 		bl	MPU6050_read
 680              	.LVL32:
 164:Core/Src/main_functions.c **** 
 681              		.loc 1 164 18 view .LVU150
 682 016e DFF82C82 		ldr	r8, .L30+64
 683 0172 C8F80000 		str	r0, [r8]
 167:Core/Src/main_functions.c **** 	gyro_data_value[1] = abs((int)(10*gyro_data_p[0])  % 10);
 684              		.loc 1 167 5 is_stmt 1 view .LVU151
 167:Core/Src/main_functions.c **** 	gyro_data_value[1] = abs((int)(10*gyro_data_p[0])  % 10);
 685              		.loc 1 167 46 is_stmt 0 view .LVU152
 686 0176 D0ED007A 		vldr.32	s15, [r0]
 167:Core/Src/main_functions.c **** 	gyro_data_value[1] = abs((int)(10*gyro_data_p[0])  % 10);
 687              		.loc 1 167 30 view .LVU153
 688 017a FDEEE77A 		vcvt.s32.f32	s15, s15
 689 017e 17EE903A 		vmov	r3, s15	@ int
 167:Core/Src/main_functions.c **** 	gyro_data_value[1] = abs((int)(10*gyro_data_p[0])  % 10);
 690              		.loc 1 167 26 view .LVU154
ARM GAS  C:\Users\samue\AppData\Local\Temp\ccxwy6p9.s 			page 20


 691 0182 002B     		cmp	r3, #0
 692 0184 B8BF     		it	lt
 693 0186 5B42     		rsblt	r3, r3, #0
 167:Core/Src/main_functions.c **** 	gyro_data_value[1] = abs((int)(10*gyro_data_p[0])  % 10);
 694              		.loc 1 167 24 view .LVU155
 695 0188 7C4D     		ldr	r5, .L30+32
 696 018a 2B60     		str	r3, [r5]
 168:Core/Src/main_functions.c ****     gyro_data_value[2] = abs((int)(100*gyro_data_p[0]) % 10);
 697              		.loc 1 168 2 is_stmt 1 view .LVU156
 168:Core/Src/main_functions.c ****     gyro_data_value[2] = abs((int)(100*gyro_data_p[0]) % 10);
 698              		.loc 1 168 47 is_stmt 0 view .LVU157
 699 018c D0ED007A 		vldr.32	s15, [r0]
 168:Core/Src/main_functions.c ****     gyro_data_value[2] = abs((int)(100*gyro_data_p[0]) % 10);
 700              		.loc 1 168 35 view .LVU158
 701 0190 67EEA87A 		vmul.f32	s15, s15, s17
 168:Core/Src/main_functions.c ****     gyro_data_value[2] = abs((int)(100*gyro_data_p[0]) % 10);
 702              		.loc 1 168 27 view .LVU159
 703 0194 FDEEE77A 		vcvt.s32.f32	s15, s15
 704 0198 17EE902A 		vmov	r2, s15	@ int
 168:Core/Src/main_functions.c ****     gyro_data_value[2] = abs((int)(100*gyro_data_p[0]) % 10);
 705              		.loc 1 168 53 view .LVU160
 706 019c 84FB0231 		smull	r3, r1, r4, r2
 707 01a0 D317     		asrs	r3, r2, #31
 708 01a2 C3EBA103 		rsb	r3, r3, r1, asr #2
 709 01a6 03EB8303 		add	r3, r3, r3, lsl #2
 710 01aa A2EB4303 		sub	r3, r2, r3, lsl #1
 168:Core/Src/main_functions.c ****     gyro_data_value[2] = abs((int)(100*gyro_data_p[0]) % 10);
 711              		.loc 1 168 23 view .LVU161
 712 01ae 002B     		cmp	r3, #0
 713 01b0 B8BF     		it	lt
 714 01b2 5B42     		rsblt	r3, r3, #0
 168:Core/Src/main_functions.c ****     gyro_data_value[2] = abs((int)(100*gyro_data_p[0]) % 10);
 715              		.loc 1 168 21 view .LVU162
 716 01b4 6B60     		str	r3, [r5, #4]
 169:Core/Src/main_functions.c **** 
 717              		.loc 1 169 5 is_stmt 1 view .LVU163
 169:Core/Src/main_functions.c **** 
 718              		.loc 1 169 51 is_stmt 0 view .LVU164
 719 01b6 D0ED007A 		vldr.32	s15, [r0]
 169:Core/Src/main_functions.c **** 
 720              		.loc 1 169 39 view .LVU165
 721 01ba 67EE887A 		vmul.f32	s15, s15, s16
 169:Core/Src/main_functions.c **** 
 722              		.loc 1 169 30 view .LVU166
 723 01be FDEEE77A 		vcvt.s32.f32	s15, s15
 724 01c2 17EE902A 		vmov	r2, s15	@ int
 169:Core/Src/main_functions.c **** 
 725              		.loc 1 169 56 view .LVU167
 726 01c6 84FB0231 		smull	r3, r1, r4, r2
 727 01ca D317     		asrs	r3, r2, #31
 728 01cc C3EBA103 		rsb	r3, r3, r1, asr #2
 729 01d0 03EB8303 		add	r3, r3, r3, lsl #2
 730 01d4 A2EB4303 		sub	r3, r2, r3, lsl #1
 169:Core/Src/main_functions.c **** 
 731              		.loc 1 169 26 view .LVU168
 732 01d8 002B     		cmp	r3, #0
 733 01da B8BF     		it	lt
ARM GAS  C:\Users\samue\AppData\Local\Temp\ccxwy6p9.s 			page 21


 734 01dc 5B42     		rsblt	r3, r3, #0
 169:Core/Src/main_functions.c **** 
 735              		.loc 1 169 24 view .LVU169
 736 01de AB60     		str	r3, [r5, #8]
 171:Core/Src/main_functions.c **** 	gyro_data_value[4] = abs((int)(10*gyro_data_p[1])  % 10);
 737              		.loc 1 171 2 is_stmt 1 view .LVU170
 171:Core/Src/main_functions.c **** 	gyro_data_value[4] = abs((int)(10*gyro_data_p[1])  % 10);
 738              		.loc 1 171 43 is_stmt 0 view .LVU171
 739 01e0 D0ED017A 		vldr.32	s15, [r0, #4]
 171:Core/Src/main_functions.c **** 	gyro_data_value[4] = abs((int)(10*gyro_data_p[1])  % 10);
 740              		.loc 1 171 27 view .LVU172
 741 01e4 FDEEE77A 		vcvt.s32.f32	s15, s15
 742 01e8 17EE903A 		vmov	r3, s15	@ int
 171:Core/Src/main_functions.c **** 	gyro_data_value[4] = abs((int)(10*gyro_data_p[1])  % 10);
 743              		.loc 1 171 23 view .LVU173
 744 01ec 002B     		cmp	r3, #0
 745 01ee B8BF     		it	lt
 746 01f0 5B42     		rsblt	r3, r3, #0
 171:Core/Src/main_functions.c **** 	gyro_data_value[4] = abs((int)(10*gyro_data_p[1])  % 10);
 747              		.loc 1 171 21 view .LVU174
 748 01f2 EB60     		str	r3, [r5, #12]
 172:Core/Src/main_functions.c ****     gyro_data_value[5] = abs((int)(100*gyro_data_p[1]) % 10);
 749              		.loc 1 172 2 is_stmt 1 view .LVU175
 172:Core/Src/main_functions.c ****     gyro_data_value[5] = abs((int)(100*gyro_data_p[1]) % 10);
 750              		.loc 1 172 47 is_stmt 0 view .LVU176
 751 01f4 D0ED017A 		vldr.32	s15, [r0, #4]
 172:Core/Src/main_functions.c ****     gyro_data_value[5] = abs((int)(100*gyro_data_p[1]) % 10);
 752              		.loc 1 172 35 view .LVU177
 753 01f8 67EEA87A 		vmul.f32	s15, s15, s17
 172:Core/Src/main_functions.c ****     gyro_data_value[5] = abs((int)(100*gyro_data_p[1]) % 10);
 754              		.loc 1 172 27 view .LVU178
 755 01fc FDEEE77A 		vcvt.s32.f32	s15, s15
 756 0200 17EE902A 		vmov	r2, s15	@ int
 172:Core/Src/main_functions.c ****     gyro_data_value[5] = abs((int)(100*gyro_data_p[1]) % 10);
 757              		.loc 1 172 53 view .LVU179
 758 0204 84FB0231 		smull	r3, r1, r4, r2
 759 0208 D317     		asrs	r3, r2, #31
 760 020a C3EBA103 		rsb	r3, r3, r1, asr #2
 761 020e 03EB8303 		add	r3, r3, r3, lsl #2
 762 0212 A2EB4303 		sub	r3, r2, r3, lsl #1
 172:Core/Src/main_functions.c ****     gyro_data_value[5] = abs((int)(100*gyro_data_p[1]) % 10);
 763              		.loc 1 172 23 view .LVU180
 764 0216 002B     		cmp	r3, #0
 765 0218 B8BF     		it	lt
 766 021a 5B42     		rsblt	r3, r3, #0
 172:Core/Src/main_functions.c ****     gyro_data_value[5] = abs((int)(100*gyro_data_p[1]) % 10);
 767              		.loc 1 172 21 view .LVU181
 768 021c 2B61     		str	r3, [r5, #16]
 173:Core/Src/main_functions.c **** 
 769              		.loc 1 173 5 is_stmt 1 view .LVU182
 173:Core/Src/main_functions.c **** 
 770              		.loc 1 173 51 is_stmt 0 view .LVU183
 771 021e D0ED017A 		vldr.32	s15, [r0, #4]
 173:Core/Src/main_functions.c **** 
 772              		.loc 1 173 39 view .LVU184
 773 0222 67EE887A 		vmul.f32	s15, s15, s16
 173:Core/Src/main_functions.c **** 
ARM GAS  C:\Users\samue\AppData\Local\Temp\ccxwy6p9.s 			page 22


 774              		.loc 1 173 30 view .LVU185
 775 0226 FDEEE77A 		vcvt.s32.f32	s15, s15
 776 022a 17EE902A 		vmov	r2, s15	@ int
 173:Core/Src/main_functions.c **** 
 777              		.loc 1 173 56 view .LVU186
 778 022e 84FB0231 		smull	r3, r1, r4, r2
 779 0232 D317     		asrs	r3, r2, #31
 780 0234 C3EBA103 		rsb	r3, r3, r1, asr #2
 781 0238 03EB8303 		add	r3, r3, r3, lsl #2
 782 023c A2EB4303 		sub	r3, r2, r3, lsl #1
 173:Core/Src/main_functions.c **** 
 783              		.loc 1 173 26 view .LVU187
 784 0240 002B     		cmp	r3, #0
 785 0242 B8BF     		it	lt
 786 0244 5B42     		rsblt	r3, r3, #0
 173:Core/Src/main_functions.c **** 
 787              		.loc 1 173 24 view .LVU188
 788 0246 6B61     		str	r3, [r5, #20]
 175:Core/Src/main_functions.c **** 	gyro_data_value[7] = abs((int)(10*gyro_data_p[2])  % 10);
 789              		.loc 1 175 2 is_stmt 1 view .LVU189
 175:Core/Src/main_functions.c **** 	gyro_data_value[7] = abs((int)(10*gyro_data_p[2])  % 10);
 790              		.loc 1 175 43 is_stmt 0 view .LVU190
 791 0248 D0ED027A 		vldr.32	s15, [r0, #8]
 175:Core/Src/main_functions.c **** 	gyro_data_value[7] = abs((int)(10*gyro_data_p[2])  % 10);
 792              		.loc 1 175 27 view .LVU191
 793 024c FDEEE77A 		vcvt.s32.f32	s15, s15
 794 0250 17EE903A 		vmov	r3, s15	@ int
 175:Core/Src/main_functions.c **** 	gyro_data_value[7] = abs((int)(10*gyro_data_p[2])  % 10);
 795              		.loc 1 175 23 view .LVU192
 796 0254 002B     		cmp	r3, #0
 797 0256 B8BF     		it	lt
 798 0258 5B42     		rsblt	r3, r3, #0
 175:Core/Src/main_functions.c **** 	gyro_data_value[7] = abs((int)(10*gyro_data_p[2])  % 10);
 799              		.loc 1 175 21 view .LVU193
 800 025a AB61     		str	r3, [r5, #24]
 176:Core/Src/main_functions.c ****     gyro_data_value[8] = abs((int)(100*gyro_data_p[2]) % 10);
 801              		.loc 1 176 2 is_stmt 1 view .LVU194
 176:Core/Src/main_functions.c ****     gyro_data_value[8] = abs((int)(100*gyro_data_p[2]) % 10);
 802              		.loc 1 176 47 is_stmt 0 view .LVU195
 803 025c D0ED027A 		vldr.32	s15, [r0, #8]
 176:Core/Src/main_functions.c ****     gyro_data_value[8] = abs((int)(100*gyro_data_p[2]) % 10);
 804              		.loc 1 176 35 view .LVU196
 805 0260 67EEA87A 		vmul.f32	s15, s15, s17
 176:Core/Src/main_functions.c ****     gyro_data_value[8] = abs((int)(100*gyro_data_p[2]) % 10);
 806              		.loc 1 176 27 view .LVU197
 807 0264 FDEEE77A 		vcvt.s32.f32	s15, s15
 808 0268 17EE902A 		vmov	r2, s15	@ int
 176:Core/Src/main_functions.c ****     gyro_data_value[8] = abs((int)(100*gyro_data_p[2]) % 10);
 809              		.loc 1 176 53 view .LVU198
 810 026c 84FB0231 		smull	r3, r1, r4, r2
 811 0270 D317     		asrs	r3, r2, #31
 812 0272 C3EBA103 		rsb	r3, r3, r1, asr #2
 813 0276 03EB8303 		add	r3, r3, r3, lsl #2
 814 027a A2EB4303 		sub	r3, r2, r3, lsl #1
 176:Core/Src/main_functions.c ****     gyro_data_value[8] = abs((int)(100*gyro_data_p[2]) % 10);
 815              		.loc 1 176 23 view .LVU199
 816 027e 002B     		cmp	r3, #0
ARM GAS  C:\Users\samue\AppData\Local\Temp\ccxwy6p9.s 			page 23


 817 0280 B8BF     		it	lt
 818 0282 5B42     		rsblt	r3, r3, #0
 176:Core/Src/main_functions.c ****     gyro_data_value[8] = abs((int)(100*gyro_data_p[2]) % 10);
 819              		.loc 1 176 21 view .LVU200
 820 0284 EB61     		str	r3, [r5, #28]
 177:Core/Src/main_functions.c **** 
 821              		.loc 1 177 5 is_stmt 1 view .LVU201
 177:Core/Src/main_functions.c **** 
 822              		.loc 1 177 51 is_stmt 0 view .LVU202
 823 0286 D0ED027A 		vldr.32	s15, [r0, #8]
 177:Core/Src/main_functions.c **** 
 824              		.loc 1 177 39 view .LVU203
 825 028a 67EE887A 		vmul.f32	s15, s15, s16
 177:Core/Src/main_functions.c **** 
 826              		.loc 1 177 30 view .LVU204
 827 028e FDEEE77A 		vcvt.s32.f32	s15, s15
 828 0292 17EE902A 		vmov	r2, s15	@ int
 177:Core/Src/main_functions.c **** 
 829              		.loc 1 177 56 view .LVU205
 830 0296 84FB0234 		smull	r3, r4, r4, r2
 831 029a D317     		asrs	r3, r2, #31
 832 029c C3EBA404 		rsb	r4, r3, r4, asr #2
 833 02a0 04EB8404 		add	r4, r4, r4, lsl #2
 834 02a4 A2EB4404 		sub	r4, r2, r4, lsl #1
 177:Core/Src/main_functions.c **** 
 835              		.loc 1 177 26 view .LVU206
 836 02a8 002C     		cmp	r4, #0
 837 02aa B8BF     		it	lt
 838 02ac 6442     		rsblt	r4, r4, #0
 177:Core/Src/main_functions.c **** 
 839              		.loc 1 177 24 view .LVU207
 840 02ae 2C62     		str	r4, [r5, #32]
 181:Core/Src/main_functions.c **** 
 841              		.loc 1 181 5 is_stmt 1 view .LVU208
 842 02b0 3B68     		ldr	r3, [r7]
 843 02b2 93ED000A 		vldr.32	s0, [r3]
 844 02b6 0196     		str	r6, [sp, #4]
 845 02b8 0024     		movs	r4, #0
 846 02ba 0094     		str	r4, [sp]
 847 02bc 304B     		ldr	r3, .L30+36
 848 02be 0322     		movs	r2, #3
 849 02c0 0421     		movs	r1, #4
 850 02c2 2046     		mov	r0, r4
 851 02c4 FFF7FEFF 		bl	print_data
 852              	.LVL33:
 184:Core/Src/main_functions.c **** 
 853              		.loc 1 184 5 view .LVU209
 184:Core/Src/main_functions.c **** 
 854              		.loc 1 184 60 is_stmt 0 view .LVU210
 855 02c8 3B68     		ldr	r3, [r7]
 184:Core/Src/main_functions.c **** 
 856              		.loc 1 184 5 view .LVU211
 857 02ca 93ED010A 		vldr.32	s0, [r3, #4]
 858 02ce 0196     		str	r6, [sp, #4]
 859 02d0 4FF00309 		mov	r9, #3
 860 02d4 CDF80090 		str	r9, [sp]
 861 02d8 2A4B     		ldr	r3, .L30+40
ARM GAS  C:\Users\samue\AppData\Local\Temp\ccxwy6p9.s 			page 24


 862 02da 4322     		movs	r2, #67
 863 02dc 4421     		movs	r1, #68
 864 02de 4020     		movs	r0, #64
 865 02e0 FFF7FEFF 		bl	print_data
 866              	.LVL34:
 187:Core/Src/main_functions.c **** 
 867              		.loc 1 187 5 is_stmt 1 view .LVU212
 187:Core/Src/main_functions.c **** 
 868              		.loc 1 187 60 is_stmt 0 view .LVU213
 869 02e4 3B68     		ldr	r3, [r7]
 187:Core/Src/main_functions.c **** 
 870              		.loc 1 187 5 view .LVU214
 871 02e6 93ED020A 		vldr.32	s0, [r3, #8]
 872 02ea 0196     		str	r6, [sp, #4]
 873 02ec 0626     		movs	r6, #6
 874 02ee 0096     		str	r6, [sp]
 875 02f0 254B     		ldr	r3, .L30+44
 876 02f2 1722     		movs	r2, #23
 877 02f4 1821     		movs	r1, #24
 878 02f6 1420     		movs	r0, #20
 879 02f8 FFF7FEFF 		bl	print_data
 880              	.LVL35:
 190:Core/Src/main_functions.c **** 
 881              		.loc 1 190 5 is_stmt 1 view .LVU215
 882 02fc D8F80030 		ldr	r3, [r8]
 883 0300 93ED000A 		vldr.32	s0, [r3]
 884 0304 0195     		str	r5, [sp, #4]
 885 0306 0094     		str	r4, [sp]
 886 0308 204B     		ldr	r3, .L30+48
 887 030a 0D22     		movs	r2, #13
 888 030c 0E21     		movs	r1, #14
 889 030e 0A20     		movs	r0, #10
 890 0310 FFF7FEFF 		bl	print_data
 891              	.LVL36:
 193:Core/Src/main_functions.c **** 
 892              		.loc 1 193 5 view .LVU216
 193:Core/Src/main_functions.c **** 
 893              		.loc 1 193 59 is_stmt 0 view .LVU217
 894 0314 D8F80030 		ldr	r3, [r8]
 193:Core/Src/main_functions.c **** 
 895              		.loc 1 193 5 view .LVU218
 896 0318 93ED010A 		vldr.32	s0, [r3, #4]
 897 031c 0195     		str	r5, [sp, #4]
 898 031e CDF80090 		str	r9, [sp]
 899 0322 1B4B     		ldr	r3, .L30+52
 900 0324 4D22     		movs	r2, #77
 901 0326 4E21     		movs	r1, #78
 902 0328 4A20     		movs	r0, #74
 903 032a FFF7FEFF 		bl	print_data
 904              	.LVL37:
 196:Core/Src/main_functions.c **** 
 905              		.loc 1 196 5 is_stmt 1 view .LVU219
 196:Core/Src/main_functions.c **** 
 906              		.loc 1 196 59 is_stmt 0 view .LVU220
 907 032e D8F80030 		ldr	r3, [r8]
 196:Core/Src/main_functions.c **** 
 908              		.loc 1 196 5 view .LVU221
ARM GAS  C:\Users\samue\AppData\Local\Temp\ccxwy6p9.s 			page 25


 909 0332 93ED020A 		vldr.32	s0, [r3, #8]
 910 0336 0195     		str	r5, [sp, #4]
 911 0338 0096     		str	r6, [sp]
 912 033a 164B     		ldr	r3, .L30+56
 913 033c 2122     		movs	r2, #33
 914 033e 2221     		movs	r1, #34
 915 0340 1E20     		movs	r0, #30
 916 0342 FFF7FEFF 		bl	print_data
 917              	.LVL38:
 199:Core/Src/main_functions.c **** 	lcd_send_string("                    ");
 918              		.loc 1 199 2 is_stmt 1 view .LVU222
 919 0346 D420     		movs	r0, #212
 920 0348 FFF7FEFF 		bl	lcd_send_cmd
 921              	.LVL39:
 200:Core/Src/main_functions.c **** }
 922              		.loc 1 200 2 view .LVU223
 923 034c 1248     		ldr	r0, .L30+60
 924 034e FFF7FEFF 		bl	lcd_send_string
 925              	.LVL40:
 201:Core/Src/main_functions.c **** 
 926              		.loc 1 201 1 is_stmt 0 view .LVU224
 927 0352 03B0     		add	sp, sp, #12
 928              	.LCFI12:
 929              		.cfi_def_cfa_offset 36
 930              		@ sp needed
 931 0354 BDEC028B 		vldm	sp!, {d8}
 932              	.LCFI13:
 933              		.cfi_restore 80
 934              		.cfi_restore 81
 935              		.cfi_def_cfa_offset 28
 936 0358 BDE8F083 		pop	{r4, r5, r6, r7, r8, r9, pc}
 937              	.L31:
 938              		.align	2
 939              	.L30:
 940 035c 00000000 		.word	.LANCHOR3
 941 0360 00008046 		.word	1182793728
 942 0364 00000000 		.word	.LANCHOR10
 943 0368 00000000 		.word	.LANCHOR11
 944 036c 67666666 		.word	1717986919
 945 0370 0000C842 		.word	1120403456
 946 0374 00000000 		.word	.LANCHOR5
 947 0378 00000343 		.word	1124270080
 948 037c 00000000 		.word	.LANCHOR13
 949 0380 00000000 		.word	.LANCHOR14
 950 0384 00000000 		.word	.LANCHOR15
 951 0388 00000000 		.word	.LANCHOR16
 952 038c 00000000 		.word	.LANCHOR17
 953 0390 00000000 		.word	.LANCHOR18
 954 0394 00000000 		.word	.LANCHOR19
 955 0398 00000000 		.word	.LC7
 956 039c 00000000 		.word	.LANCHOR12
 957              		.cfi_endproc
 958              	.LFE135:
 960              		.global	FSM
 961              		.global	Gz_string
 962              		.global	Gy_string
 963              		.global	Gx_string
ARM GAS  C:\Users\samue\AppData\Local\Temp\ccxwy6p9.s 			page 26


 964              		.global	Az_string
 965              		.global	Ay_string
 966              		.global	Ax_string
 967              		.global	line_pos
 968              		.global	buf
 969              		.global	zero_corr
 970              		.global	gyro_corr_p
 971              		.global	gyro_corr
 972              		.global	gyro_data_p
 973              		.global	gyro_data_value
 974              		.global	accel_corr_p
 975              		.global	accel_corr
 976              		.global	accel_data_p
 977              		.global	accel_data_value
 978              		.global	state
 979              		.global	flag
 980              		.section	.bss.accel_corr,"aw",%nobits
 981              		.align	2
 982              		.set	.LANCHOR3,. + 0
 985              	accel_corr:
 986 0000 00000000 		.space	12
 986      00000000 
 986      00000000 
 987              		.section	.bss.accel_corr_p,"aw",%nobits
 988              		.align	2
 989              		.set	.LANCHOR2,. + 0
 992              	accel_corr_p:
 993 0000 00000000 		.space	4
 994              		.section	.bss.accel_data_p,"aw",%nobits
 995              		.align	2
 996              		.set	.LANCHOR10,. + 0
 999              	accel_data_p:
 1000 0000 00000000 		.space	4
 1001              		.section	.bss.accel_data_value,"aw",%nobits
 1002              		.align	2
 1003              		.set	.LANCHOR11,. + 0
 1006              	accel_data_value:
 1007 0000 00000000 		.space	36
 1007      00000000 
 1007      00000000 
 1007      00000000 
 1007      00000000 
 1008              		.section	.bss.buf,"aw",%nobits
 1009              		.align	2
 1010              		.set	.LANCHOR9,. + 0
 1013              	buf:
 1014 0000 00000000 		.space	6
 1014      0000
 1015              		.section	.bss.flag,"aw",%nobits
 1016              		.set	.LANCHOR0,. + 0
 1019              	flag:
 1020 0000 00       		.space	1
 1021              		.section	.bss.gyro_corr,"aw",%nobits
 1022              		.align	2
 1023              		.set	.LANCHOR5,. + 0
 1026              	gyro_corr:
 1027 0000 00000000 		.space	12
ARM GAS  C:\Users\samue\AppData\Local\Temp\ccxwy6p9.s 			page 27


 1027      00000000 
 1027      00000000 
 1028              		.section	.bss.gyro_corr_p,"aw",%nobits
 1029              		.align	2
 1030              		.set	.LANCHOR4,. + 0
 1033              	gyro_corr_p:
 1034 0000 00000000 		.space	4
 1035              		.section	.bss.gyro_data_p,"aw",%nobits
 1036              		.align	2
 1037              		.set	.LANCHOR12,. + 0
 1040              	gyro_data_p:
 1041 0000 00000000 		.space	4
 1042              		.section	.bss.gyro_data_value,"aw",%nobits
 1043              		.align	2
 1044              		.set	.LANCHOR13,. + 0
 1047              	gyro_data_value:
 1048 0000 00000000 		.space	36
 1048      00000000 
 1048      00000000 
 1048      00000000 
 1048      00000000 
 1049              		.section	.bss.line_pos,"aw",%nobits
 1050              		.set	.LANCHOR8,. + 0
 1053              	line_pos:
 1054 0000 00       		.space	1
 1055              		.section	.bss.state,"aw",%nobits
 1056              		.align	2
 1057              		.set	.LANCHOR6,. + 0
 1060              	state:
 1061 0000 00000000 		.space	4
 1062              		.section	.bss.zero_corr,"aw",%nobits
 1063              		.align	2
 1064              		.set	.LANCHOR1,. + 0
 1067              	zero_corr:
 1068 0000 00000000 		.space	12
 1068      00000000 
 1068      00000000 
 1069              		.section	.data.Ax_string,"aw"
 1070              		.align	2
 1071              		.set	.LANCHOR14,. + 0
 1074              	Ax_string:
 1075 0000 41783D20 		.ascii	"Ax=       \000"
 1075      20202020 
 1075      202000
 1076              		.section	.data.Ay_string,"aw"
 1077              		.align	2
 1078              		.set	.LANCHOR15,. + 0
 1081              	Ay_string:
 1082 0000 41793D20 		.ascii	"Ay=       \000"
 1082      20202020 
 1082      202000
 1083              		.section	.data.Az_string,"aw"
 1084              		.align	2
 1085              		.set	.LANCHOR16,. + 0
 1088              	Az_string:
 1089 0000 417A3D20 		.ascii	"Az=       \000"
 1089      20202020 
ARM GAS  C:\Users\samue\AppData\Local\Temp\ccxwy6p9.s 			page 28


 1089      202000
 1090              		.section	.data.Gx_string,"aw"
 1091              		.align	2
 1092              		.set	.LANCHOR17,. + 0
 1095              	Gx_string:
 1096 0000 47783D20 		.ascii	"Gx=       \000"
 1096      20202020 
 1096      202000
 1097              		.section	.data.Gy_string,"aw"
 1098              		.align	2
 1099              		.set	.LANCHOR18,. + 0
 1102              	Gy_string:
 1103 0000 47793D20 		.ascii	"Gy=       \000"
 1103      20202020 
 1103      202000
 1104              		.section	.data.Gz_string,"aw"
 1105              		.align	2
 1106              		.set	.LANCHOR19,. + 0
 1109              	Gz_string:
 1110 0000 477A3D20 		.ascii	"Gz=       \000"
 1110      20202020 
 1110      202000
 1111              		.section	.rodata.FSM,"a"
 1112              		.align	2
 1113              		.set	.LANCHOR7,. + 0
 1116              	FSM:
 1117 0000 00000000 		.word	normal
 1118 0004 F4010000 		.word	500
 1119 0008 00000000 		.word	0
 1120 000c 01000000 		.word	1
 1121 0010 00000000 		.word	accel_cal_prep
 1122 0014 E8030000 		.word	1000
 1123 0018 01000000 		.word	1
 1124 001c 02000000 		.word	2
 1125 0020 00000000 		.word	accel_cal
 1126 0024 D0070000 		.word	2000
 1127 0028 00000000 		.word	0
 1128 002c 00000000 		.word	0
 1129              		.text
 1130              	.Letext0:
 1131              		.file 2 "c:\\dev_tools\\gcc-arm-none-eabi-10.3-2021.10-win32\\gcc-arm-none-eabi-10.3-2021.10\\arm-
 1132              		.file 3 "c:\\dev_tools\\gcc-arm-none-eabi-10.3-2021.10-win32\\gcc-arm-none-eabi-10.3-2021.10\\arm-
 1133              		.file 4 "Core/Inc/i2c-lcd.h"
 1134              		.file 5 "Core/Inc/accelerometer_data.h"
 1135              		.file 6 "c:\\dev_tools\\gcc-arm-none-eabi-10.3-2021.10-win32\\gcc-arm-none-eabi-10.3-2021.10\\arm-
 1136              		.file 7 "Drivers/STM32F4xx_HAL_Driver/Inc/stm32f4xx_hal.h"
 1137              		.file 8 "Device-Drivers/Inc/sd-card-spi.h"
ARM GAS  C:\Users\samue\AppData\Local\Temp\ccxwy6p9.s 			page 29

