ARM GAS  C:\Users\samue\AppData\Local\Temp\ccXPnGXr.s 			page 1


   1              		.cpu cortex-m4
   2              		.arch armv7e-m
   3              		.fpu fpv4-sp-d16
   4              		.eabi_attribute 27, 1
   5              		.eabi_attribute 28, 1
   6              		.eabi_attribute 20, 1
   7              		.eabi_attribute 21, 1
   8              		.eabi_attribute 23, 3
   9              		.eabi_attribute 24, 1
  10              		.eabi_attribute 25, 1
  11              		.eabi_attribute 26, 1
  12              		.eabi_attribute 30, 1
  13              		.eabi_attribute 34, 1
  14              		.eabi_attribute 18, 4
  15              		.file	"sd-card-spi.c"
  16              		.text
  17              	.Ltext0:
  18              		.cfi_sections	.debug_frame
  19              		.section	.rodata.sd_card_init.str1.4,"aMS",%progbits,1
  20              		.align	2
  21              	.LC0:
  22 0000 00       		.ascii	"\000"
  23              		.section	.text.sd_card_init,"ax",%progbits
  24              		.align	1
  25              		.global	sd_card_init
  26              		.syntax unified
  27              		.thumb
  28              		.thumb_func
  30              	sd_card_init:
  31              	.LFB133:
  32              		.file 1 "Device-Drivers/Src/sd-card-spi.c"
   1:Device-Drivers/Src/sd-card-spi.c **** /*
   2:Device-Drivers/Src/sd-card-spi.c ****  * File: sd-card-spi.c
   3:Device-Drivers/Src/sd-card-spi.c ****  * Purpose: Provide functions to read and write data from an SD card 
   4:Device-Drivers/Src/sd-card-spi.c ****  * 
   5:Device-Drivers/Src/sd-card-spi.c ****  * Created On: December 9, 2021
   6:Device-Drivers/Src/sd-card-spi.c ****  * Author: Sam Donnelly 
   7:Device-Drivers/Src/sd-card-spi.c ****  * 
   8:Device-Drivers/Src/sd-card-spi.c ****  */
   9:Device-Drivers/Src/sd-card-spi.c **** 
  10:Device-Drivers/Src/sd-card-spi.c **** /* 
  11:Device-Drivers/Src/sd-card-spi.c ****  * ---------------------------------------------------------------------------------------------
  12:Device-Drivers/Src/sd-card-spi.c ****  * Libraries and Header Files
  13:Device-Drivers/Src/sd-card-spi.c ****  * ---------------------------------------------------------------------------------------------
  14:Device-Drivers/Src/sd-card-spi.c ****  */
  15:Device-Drivers/Src/sd-card-spi.c **** 
  16:Device-Drivers/Src/sd-card-spi.c **** #include <stdio.h>
  17:Device-Drivers/Src/sd-card-spi.c **** #include <stdlib.h>
  18:Device-Drivers/Src/sd-card-spi.c **** #include <stdint.h>
  19:Device-Drivers/Src/sd-card-spi.c **** #include <string.h>
  20:Device-Drivers/Src/sd-card-spi.c **** #include <stdbool.h>
  21:Device-Drivers/Src/sd-card-spi.c **** 
  22:Device-Drivers/Src/sd-card-spi.c **** #include "main_functions.h"
  23:Device-Drivers/Src/sd-card-spi.c **** #include "sd-card-spi.h"
  24:Device-Drivers/Src/sd-card-spi.c **** #include "fatfs_sd.h"
  25:Device-Drivers/Src/sd-card-spi.c **** #include "ff.h"
  26:Device-Drivers/Src/sd-card-spi.c **** #include "i2c-lcd.h"
ARM GAS  C:\Users\samue\AppData\Local\Temp\ccXPnGXr.s 			page 2


  27:Device-Drivers/Src/sd-card-spi.c **** 
  28:Device-Drivers/Src/sd-card-spi.c **** 
  29:Device-Drivers/Src/sd-card-spi.c **** /* 
  30:Device-Drivers/Src/sd-card-spi.c ****  * ---------------------------------------------------------------------------------------------
  31:Device-Drivers/Src/sd-card-spi.c ****  * Variables
  32:Device-Drivers/Src/sd-card-spi.c ****  * ---------------------------------------------------------------------------------------------
  33:Device-Drivers/Src/sd-card-spi.c ****  */
  34:Device-Drivers/Src/sd-card-spi.c **** 
  35:Device-Drivers/Src/sd-card-spi.c **** typedef struct sd_card_file_system {
  36:Device-Drivers/Src/sd-card-spi.c ****     //
  37:Device-Drivers/Src/sd-card-spi.c ****     FATFS    fs;            // file system 
  38:Device-Drivers/Src/sd-card-spi.c ****     FIL      fil;           // file 
  39:Device-Drivers/Src/sd-card-spi.c ****     FRESULT  fresult;       // to store the result 
  40:Device-Drivers/Src/sd-card-spi.c ****     char     buffer[1024];  // to store data 
  41:Device-Drivers/Src/sd-card-spi.c **** 
  42:Device-Drivers/Src/sd-card-spi.c ****     // file read/write count 
  43:Device-Drivers/Src/sd-card-spi.c ****     UINT br, bw;
  44:Device-Drivers/Src/sd-card-spi.c **** 
  45:Device-Drivers/Src/sd-card-spi.c ****     // Capacity related variables 
  46:Device-Drivers/Src/sd-card-spi.c ****     FATFS     *pfs;
  47:Device-Drivers/Src/sd-card-spi.c ****     DWORD     fre_clust;
  48:Device-Drivers/Src/sd-card-spi.c ****     uint64_t  total;
  49:Device-Drivers/Src/sd-card-spi.c ****     uint64_t  free_space;
  50:Device-Drivers/Src/sd-card-spi.c **** 
  51:Device-Drivers/Src/sd-card-spi.c ****     //
  52:Device-Drivers/Src/sd-card-spi.c ****     bool sd_card_status;
  53:Device-Drivers/Src/sd-card-spi.c **** 
  54:Device-Drivers/Src/sd-card-spi.c **** } sd_card_file_system;
  55:Device-Drivers/Src/sd-card-spi.c **** 
  56:Device-Drivers/Src/sd-card-spi.c **** 
  57:Device-Drivers/Src/sd-card-spi.c **** static sd_card_file_system sd_card_1;
  58:Device-Drivers/Src/sd-card-spi.c **** 
  59:Device-Drivers/Src/sd-card-spi.c **** 
  60:Device-Drivers/Src/sd-card-spi.c **** /* 
  61:Device-Drivers/Src/sd-card-spi.c ****  * ---------------------------------------------------------------------------------------------
  62:Device-Drivers/Src/sd-card-spi.c ****  * Functions 
  63:Device-Drivers/Src/sd-card-spi.c ****  * ---------------------------------------------------------------------------------------------
  64:Device-Drivers/Src/sd-card-spi.c ****  */
  65:Device-Drivers/Src/sd-card-spi.c **** 
  66:Device-Drivers/Src/sd-card-spi.c **** // Initialize SD Card
  67:Device-Drivers/Src/sd-card-spi.c **** bool sd_card_init(void) 
  68:Device-Drivers/Src/sd-card-spi.c **** {
  33              		.loc 1 68 1 view -0
  34              		.cfi_startproc
  35              		@ args = 0, pretend = 0, frame = 0
  36              		@ frame_needed = 0, uses_anonymous_args = 0
  37 0000 10B5     		push	{r4, lr}
  38              	.LCFI0:
  39              		.cfi_def_cfa_offset 8
  40              		.cfi_offset 4, -8
  41              		.cfi_offset 14, -4
  69:Device-Drivers/Src/sd-card-spi.c ****     // Mount SD card
  70:Device-Drivers/Src/sd-card-spi.c ****     sd_card_1.fresult = f_mount(&(sd_card_1.fs), "", 0);
  42              		.loc 1 70 5 view .LVU1
  43              		.loc 1 70 25 is_stmt 0 view .LVU2
  44 0002 0B4C     		ldr	r4, .L5
  45 0004 0022     		movs	r2, #0
ARM GAS  C:\Users\samue\AppData\Local\Temp\ccXPnGXr.s 			page 3


  46 0006 0B49     		ldr	r1, .L5+4
  47 0008 2046     		mov	r0, r4
  48 000a FFF7FEFF 		bl	f_mount
  49              	.LVL0:
  50              		.loc 1 70 23 view .LVU3
  51 000e 04F50054 		add	r4, r4, #8192
  52 0012 84F86800 		strb	r0, [r4, #104]
  71:Device-Drivers/Src/sd-card-spi.c **** 
  72:Device-Drivers/Src/sd-card-spi.c ****     if (sd_card_1.fresult != FR_OK) 
  53              		.loc 1 72 5 is_stmt 1 view .LVU4
  54              		.loc 1 72 8 is_stmt 0 view .LVU5
  55 0016 30B1     		cbz	r0, .L2
  73:Device-Drivers/Src/sd-card-spi.c ****     {
  74:Device-Drivers/Src/sd-card-spi.c ****         sd_card_1.sd_card_status = false;
  56              		.loc 1 74 9 is_stmt 1 view .LVU6
  57              		.loc 1 74 34 is_stmt 0 view .LVU7
  58 0018 0022     		movs	r2, #0
  59 001a 84F89024 		strb	r2, [r4, #1168]
  60              	.L3:
  75:Device-Drivers/Src/sd-card-spi.c ****     }
  76:Device-Drivers/Src/sd-card-spi.c ****     else 
  77:Device-Drivers/Src/sd-card-spi.c ****     {
  78:Device-Drivers/Src/sd-card-spi.c ****         sd_card_1.sd_card_status = true;
  79:Device-Drivers/Src/sd-card-spi.c ****     }
  80:Device-Drivers/Src/sd-card-spi.c **** 
  81:Device-Drivers/Src/sd-card-spi.c ****     return sd_card_1.sd_card_status;
  61              		.loc 1 81 5 is_stmt 1 view .LVU8
  82:Device-Drivers/Src/sd-card-spi.c **** }
  62              		.loc 1 82 1 is_stmt 0 view .LVU9
  63 001e 064B     		ldr	r3, .L5+8
  64 0020 93F89004 		ldrb	r0, [r3, #1168]	@ zero_extendqisi2
  65 0024 10BD     		pop	{r4, pc}
  66              	.L2:
  78:Device-Drivers/Src/sd-card-spi.c ****     }
  67              		.loc 1 78 9 is_stmt 1 view .LVU10
  78:Device-Drivers/Src/sd-card-spi.c ****     }
  68              		.loc 1 78 34 is_stmt 0 view .LVU11
  69 0026 044B     		ldr	r3, .L5+8
  70 0028 0122     		movs	r2, #1
  71 002a 83F89024 		strb	r2, [r3, #1168]
  72 002e F6E7     		b	.L3
  73              	.L6:
  74              		.align	2
  75              	.L5:
  76 0030 00000000 		.word	sd_card_1
  77 0034 00000000 		.word	.LC0
  78 0038 00200000 		.word	sd_card_1+8192
  79              		.cfi_endproc
  80              	.LFE133:
  82              		.section	.text.bufclear,"ax",%progbits
  83              		.align	1
  84              		.global	bufclear
  85              		.syntax unified
  86              		.thumb
  87              		.thumb_func
  89              	bufclear:
  90              	.LVL1:
ARM GAS  C:\Users\samue\AppData\Local\Temp\ccXPnGXr.s 			page 4


  91              	.LFB135:
  83:Device-Drivers/Src/sd-card-spi.c **** 
  84:Device-Drivers/Src/sd-card-spi.c **** 
  85:Device-Drivers/Src/sd-card-spi.c **** uint16_t sd_card_space(uint8_t space_parameter)
  86:Device-Drivers/Src/sd-card-spi.c **** {
  87:Device-Drivers/Src/sd-card-spi.c ****     //
  88:Device-Drivers/Src/sd-card-spi.c ****     uint16_t space_size;
  89:Device-Drivers/Src/sd-card-spi.c **** 
  90:Device-Drivers/Src/sd-card-spi.c ****     // Clear buffer 
  91:Device-Drivers/Src/sd-card-spi.c ****     bufclear(&sd_card_1);
  92:Device-Drivers/Src/sd-card-spi.c **** 
  93:Device-Drivers/Src/sd-card-spi.c ****     // Get capacity of SD card 
  94:Device-Drivers/Src/sd-card-spi.c ****     f_getfree("", &(sd_card_1.fre_clust), &(sd_card_1.pfs));
  95:Device-Drivers/Src/sd-card-spi.c **** 
  96:Device-Drivers/Src/sd-card-spi.c ****     // Choose which value to get 
  97:Device-Drivers/Src/sd-card-spi.c ****     switch (space_parameter)
  98:Device-Drivers/Src/sd-card-spi.c ****     {
  99:Device-Drivers/Src/sd-card-spi.c ****         case 0:  // TOTAL_SPACE
 100:Device-Drivers/Src/sd-card-spi.c ****             sd_card_1.total = (uint64_t)((sd_card_1.pfs->n_fatent - 2)*(sd_card_1.pfs->csize)*0.5);
 101:Device-Drivers/Src/sd-card-spi.c ****             space_size = (uint16_t)(sd_card_1.total / 1000000);
 102:Device-Drivers/Src/sd-card-spi.c ****             break;
 103:Device-Drivers/Src/sd-card-spi.c ****         
 104:Device-Drivers/Src/sd-card-spi.c ****         case 1:  // FREE_SPACE
 105:Device-Drivers/Src/sd-card-spi.c ****             sd_card_1.free_space = (uint64_t)((sd_card_1.fre_clust)*(sd_card_1.pfs->csize)*0.5);
 106:Device-Drivers/Src/sd-card-spi.c ****             space_size = (uint16_t)(sd_card_1.free_space / 1000000);
 107:Device-Drivers/Src/sd-card-spi.c ****             break;
 108:Device-Drivers/Src/sd-card-spi.c ****         
 109:Device-Drivers/Src/sd-card-spi.c ****         default:
 110:Device-Drivers/Src/sd-card-spi.c ****             break;
 111:Device-Drivers/Src/sd-card-spi.c ****     }
 112:Device-Drivers/Src/sd-card-spi.c **** 
 113:Device-Drivers/Src/sd-card-spi.c ****     // sd_card_1.total = (uint64_t)((sd_card_1.pfs->n_fatent - 2)*(sd_card_1.pfs->csize)*0.5);
 114:Device-Drivers/Src/sd-card-spi.c ****     // // sprintf(card->buffer, "SD card total size: \t%lu\r\n", card->total);
 115:Device-Drivers/Src/sd-card-spi.c ****     // // send_uart(card->buffer);
 116:Device-Drivers/Src/sd-card-spi.c ****     // lcd_send_cmd(0x80|0x00);
 117:Device-Drivers/Src/sd-card-spi.c ****     // lcd_send_string("SD card total size:");
 118:Device-Drivers/Src/sd-card-spi.c ****     // // sprintf(card->buffer, "%lu", card->total);
 119:Device-Drivers/Src/sd-card-spi.c ****     // sprintf(sd_card_1.buffer, "%ld", sd_card_1.total);
 120:Device-Drivers/Src/sd-card-spi.c ****     // lcd_send_cmd(0x80|0x40);
 121:Device-Drivers/Src/sd-card-spi.c **** 
 122:Device-Drivers/Src/sd-card-spi.c ****     // // Give time to read message 
 123:Device-Drivers/Src/sd-card-spi.c ****     // HAL_Delay(3000);
 124:Device-Drivers/Src/sd-card-spi.c **** 
 125:Device-Drivers/Src/sd-card-spi.c ****     // // Clear display 
 126:Device-Drivers/Src/sd-card-spi.c ****     // lcd_clear();
 127:Device-Drivers/Src/sd-card-spi.c **** 
 128:Device-Drivers/Src/sd-card-spi.c ****     // // Clear buffer 
 129:Device-Drivers/Src/sd-card-spi.c ****     // bufclear(&sd_card_1);
 130:Device-Drivers/Src/sd-card-spi.c **** 
 131:Device-Drivers/Src/sd-card-spi.c ****     // sd_card_1.free_space = (uint64_t)((sd_card_1.fre_clust)*(sd_card_1.pfs->csize)*0.5);
 132:Device-Drivers/Src/sd-card-spi.c ****     // // sprintf(card->buffer, "SD card free space: \t%lu\r\n", card->free_space);
 133:Device-Drivers/Src/sd-card-spi.c ****     // // send_uart(card->buffer);
 134:Device-Drivers/Src/sd-card-spi.c ****     // lcd_send_cmd(0x80|0x00);
 135:Device-Drivers/Src/sd-card-spi.c ****     // lcd_send_string("SD card free space:");
 136:Device-Drivers/Src/sd-card-spi.c ****     // sprintf(sd_card_1.buffer, "%lu", sd_card_1.free_space);
 137:Device-Drivers/Src/sd-card-spi.c ****     // lcd_send_cmd(0x80|0x40);
 138:Device-Drivers/Src/sd-card-spi.c **** 
ARM GAS  C:\Users\samue\AppData\Local\Temp\ccXPnGXr.s 			page 5


 139:Device-Drivers/Src/sd-card-spi.c ****     // // Give time to read message 
 140:Device-Drivers/Src/sd-card-spi.c ****     // HAL_Delay(3000);
 141:Device-Drivers/Src/sd-card-spi.c **** 
 142:Device-Drivers/Src/sd-card-spi.c ****     // // Clear display 
 143:Device-Drivers/Src/sd-card-spi.c ****     // lcd_clear();
 144:Device-Drivers/Src/sd-card-spi.c **** 
 145:Device-Drivers/Src/sd-card-spi.c ****     // // Clear buffer 
 146:Device-Drivers/Src/sd-card-spi.c ****     // bufclear(sd_card_1);
 147:Device-Drivers/Src/sd-card-spi.c **** 
 148:Device-Drivers/Src/sd-card-spi.c ****     return space_size;
 149:Device-Drivers/Src/sd-card-spi.c **** }
 150:Device-Drivers/Src/sd-card-spi.c **** 
 151:Device-Drivers/Src/sd-card-spi.c **** 
 152:Device-Drivers/Src/sd-card-spi.c **** // // Create file on SD card 
 153:Device-Drivers/Src/sd-card-spi.c **** // void sd_card_create_file(void) {
 154:Device-Drivers/Src/sd-card-spi.c **** //     // Open file to write/create a file if it doesn't exist 
 155:Device-Drivers/Src/sd-card-spi.c **** //     fresult = f_open(&fil, "file1.txt", FA_OPEN_ALWAYS | FA_READ | FA_WRITE);
 156:Device-Drivers/Src/sd-card-spi.c **** //     // FA_OPEN_ALWAYS is used for creating the file 
 157:Device-Drivers/Src/sd-card-spi.c **** //     // FA_READ and FA_WRITE are used for setting the permissions of the file 
 158:Device-Drivers/Src/sd-card-spi.c **** 
 159:Device-Drivers/Src/sd-card-spi.c **** //     // Writing text then close file 
 160:Device-Drivers/Src/sd-card-spi.c **** //     fresult = f_puts("This data is from the First FILE\r\n", &fil);
 161:Device-Drivers/Src/sd-card-spi.c **** //     fresult = f_close(&fil);
 162:Device-Drivers/Src/sd-card-spi.c **** //     send_uart("File1.txt created and the data is written\r\n");
 163:Device-Drivers/Src/sd-card-spi.c **** 
 164:Device-Drivers/Src/sd-card-spi.c **** //     // Open file to read
 165:Device-Drivers/Src/sd-card-spi.c **** //     fresult = f_open(&fil, "file1.txt", FA_READ);
 166:Device-Drivers/Src/sd-card-spi.c **** 
 167:Device-Drivers/Src/sd-card-spi.c **** //     // Read string from file and close file 
 168:Device-Drivers/Src/sd-card-spi.c **** //     f_gets(buffer, f_size(&fil), &fil);
 169:Device-Drivers/Src/sd-card-spi.c **** //     f_close(&fil);
 170:Device-Drivers/Src/sd-card-spi.c **** //     send_uart(buffer);
 171:Device-Drivers/Src/sd-card-spi.c **** 
 172:Device-Drivers/Src/sd-card-spi.c **** //     bufclear();
 173:Device-Drivers/Src/sd-card-spi.c **** 
 174:Device-Drivers/Src/sd-card-spi.c **** //     // Use f_write and f_read to do the same thing as above --------------------
 175:Device-Drivers/Src/sd-card-spi.c **** 
 176:Device-Drivers/Src/sd-card-spi.c **** //     // Create second file with read write access and open it 
 177:Device-Drivers/Src/sd-card-spi.c **** //     fresult = f_open(&fil, "file2.txt", FA_OPEN_ALWAYS | FA_READ | FA_WRITE);
 178:Device-Drivers/Src/sd-card-spi.c **** 
 179:Device-Drivers/Src/sd-card-spi.c **** //     // Write text - this will overwite existing data 
 180:Device-Drivers/Src/sd-card-spi.c **** //     strcpy(buffer, "This is File 2 and it says Hello from S A M\r\n");
 181:Device-Drivers/Src/sd-card-spi.c **** //     fresult = f_write(&fil, buffer, bufsize(buffer), &bw);  // Takes data from buffer -> file
 182:Device-Drivers/Src/sd-card-spi.c **** //     // bw is pointer to counter for number of bytes written  
 183:Device-Drivers/Src/sd-card-spi.c **** //     send_uart("File2.txt created and data is written\r\n");
 184:Device-Drivers/Src/sd-card-spi.c **** //     f_close(&fil);
 185:Device-Drivers/Src/sd-card-spi.c **** //     bufclear();
 186:Device-Drivers/Src/sd-card-spi.c **** 
 187:Device-Drivers/Src/sd-card-spi.c **** //     // Open second file for reading 
 188:Device-Drivers/Src/sd-card-spi.c **** //     fresult = f_open(&fil, "file2.txt", FA_READ);
 189:Device-Drivers/Src/sd-card-spi.c **** 
 190:Device-Drivers/Src/sd-card-spi.c **** //     // Read data from file and save in buffer 
 191:Device-Drivers/Src/sd-card-spi.c **** //     f_read(&fil, buffer, f_size(&fil), &br);
 192:Device-Drivers/Src/sd-card-spi.c **** //     // sizeof(buffer) is size of data in the file 
 193:Device-Drivers/Src/sd-card-spi.c **** //     // br is the pointer to the counter variables for number of bytes to read from the file 
 194:Device-Drivers/Src/sd-card-spi.c **** //     send_uart(buffer);
 195:Device-Drivers/Src/sd-card-spi.c **** //     f_close(&fil);
ARM GAS  C:\Users\samue\AppData\Local\Temp\ccXPnGXr.s 			page 6


 196:Device-Drivers/Src/sd-card-spi.c **** 
 197:Device-Drivers/Src/sd-card-spi.c **** //     bufclear();
 198:Device-Drivers/Src/sd-card-spi.c **** // }
 199:Device-Drivers/Src/sd-card-spi.c **** 
 200:Device-Drivers/Src/sd-card-spi.c **** 
 201:Device-Drivers/Src/sd-card-spi.c **** // // Update an existing file - choose the second file ----------------------------
 202:Device-Drivers/Src/sd-card-spi.c **** // // Update an existing file 
 203:Device-Drivers/Src/sd-card-spi.c **** // void sd_card_update_file(void) {
 204:Device-Drivers/Src/sd-card-spi.c **** //     // Take pointer to file and offset as arguments. The offset is where you want to 
 205:Device-Drivers/Src/sd-card-spi.c **** //     // start writing in the file. If you want to start writing at the end then you can use 
 206:Device-Drivers/Src/sd-card-spi.c **** //     // the file size as the offset. 
 207:Device-Drivers/Src/sd-card-spi.c **** 
 208:Device-Drivers/Src/sd-card-spi.c **** //     // Open the file with write access 
 209:Device-Drivers/Src/sd-card-spi.c **** //     fresult = f_open(&fil, "file2.txt", FA_OPEN_EXISTING | FA_READ | FA_WRITE);
 210:Device-Drivers/Src/sd-card-spi.c **** 
 211:Device-Drivers/Src/sd-card-spi.c **** //     // Move to the offset at the end of the file 
 212:Device-Drivers/Src/sd-card-spi.c **** //     fresult = f_lseek(&fil, f_size(&fil));
 213:Device-Drivers/Src/sd-card-spi.c **** 
 214:Device-Drivers/Src/sd-card-spi.c **** //     // Write the string to the file 
 215:Device-Drivers/Src/sd-card-spi.c **** //     fresult = f_puts("This is updated data and it should be in the end\r\n", &fil);
 216:Device-Drivers/Src/sd-card-spi.c **** //     f_close(&fil);
 217:Device-Drivers/Src/sd-card-spi.c **** 
 218:Device-Drivers/Src/sd-card-spi.c **** //     bufclear();
 219:Device-Drivers/Src/sd-card-spi.c **** 
 220:Device-Drivers/Src/sd-card-spi.c **** //     // Open to read the file 
 221:Device-Drivers/Src/sd-card-spi.c **** //     fresult = f_open(&fil, "file2.txt", FA_READ);
 222:Device-Drivers/Src/sd-card-spi.c **** 
 223:Device-Drivers/Src/sd-card-spi.c **** //     // Read string from the file 
 224:Device-Drivers/Src/sd-card-spi.c **** //     f_read(&fil, buffer, f_size(&fil), &br);
 225:Device-Drivers/Src/sd-card-spi.c **** //     send_uart(buffer);
 226:Device-Drivers/Src/sd-card-spi.c **** 
 227:Device-Drivers/Src/sd-card-spi.c **** //     f_close(&fil);
 228:Device-Drivers/Src/sd-card-spi.c **** 
 229:Device-Drivers/Src/sd-card-spi.c **** //     bufclear();
 230:Device-Drivers/Src/sd-card-spi.c **** // }
 231:Device-Drivers/Src/sd-card-spi.c **** 
 232:Device-Drivers/Src/sd-card-spi.c **** 
 233:Device-Drivers/Src/sd-card-spi.c **** // // Remove files
 234:Device-Drivers/Src/sd-card-spi.c **** // void sd_card_remove_file(void) {
 235:Device-Drivers/Src/sd-card-spi.c **** //     fresult = f_unlink("/file1.txt");
 236:Device-Drivers/Src/sd-card-spi.c **** //     if (fresult == FR_OK) {
 237:Device-Drivers/Src/sd-card-spi.c **** //         send_uart("file1.txt removed successfully\r\n");
 238:Device-Drivers/Src/sd-card-spi.c **** //     }
 239:Device-Drivers/Src/sd-card-spi.c **** 
 240:Device-Drivers/Src/sd-card-spi.c **** //     fresult = f_unlink("/file2.txt");
 241:Device-Drivers/Src/sd-card-spi.c **** //     if (fresult == FR_OK) {
 242:Device-Drivers/Src/sd-card-spi.c **** //         send_uart("file2.txt removed successfully\r\n");
 243:Device-Drivers/Src/sd-card-spi.c **** //     }
 244:Device-Drivers/Src/sd-card-spi.c **** 
 245:Device-Drivers/Src/sd-card-spi.c **** //     // Unmount SD card 
 246:Device-Drivers/Src/sd-card-spi.c **** //     fresult = f_mount(NULL, "/", 1);
 247:Device-Drivers/Src/sd-card-spi.c **** //     if (fresult == FR_OK) {
 248:Device-Drivers/Src/sd-card-spi.c **** //         send_uart("SD card unmounted successfully\r\n");
 249:Device-Drivers/Src/sd-card-spi.c **** //     }
 250:Device-Drivers/Src/sd-card-spi.c **** // }
 251:Device-Drivers/Src/sd-card-spi.c **** 
 252:Device-Drivers/Src/sd-card-spi.c **** 
ARM GAS  C:\Users\samue\AppData\Local\Temp\ccXPnGXr.s 			page 7


 253:Device-Drivers/Src/sd-card-spi.c **** // // Determine size of buffer up to which it is filled
 254:Device-Drivers/Src/sd-card-spi.c **** // int bufsize (char *buf) {
 255:Device-Drivers/Src/sd-card-spi.c **** //     int i = 0;
 256:Device-Drivers/Src/sd-card-spi.c **** //     while (*buf++ != '\0') { i++; }
 257:Device-Drivers/Src/sd-card-spi.c **** //     return i; 
 258:Device-Drivers/Src/sd-card-spi.c **** // }
 259:Device-Drivers/Src/sd-card-spi.c **** 
 260:Device-Drivers/Src/sd-card-spi.c **** // Clear buffer 
 261:Device-Drivers/Src/sd-card-spi.c **** void bufclear(sd_card_file_system *card_buffer) {
  92              		.loc 1 261 49 is_stmt 1 view -0
  93              		.cfi_startproc
  94              		@ args = 0, pretend = 0, frame = 0
  95              		@ frame_needed = 0, uses_anonymous_args = 0
  96              		@ link register save eliminated.
 262:Device-Drivers/Src/sd-card-spi.c ****     for (int i=0; i < 1024; i++) {
  97              		.loc 1 262 5 view .LVU13
  98              	.LBB2:
  99              		.loc 1 262 10 view .LVU14
 100              		.loc 1 262 14 is_stmt 0 view .LVU15
 101 0000 0023     		movs	r3, #0
 102              		.loc 1 262 5 view .LVU16
 103 0002 07E0     		b	.L8
 104              	.LVL2:
 105              	.L9:
 263:Device-Drivers/Src/sd-card-spi.c ****         card_buffer->buffer[i] = '\0';
 106              		.loc 1 263 9 is_stmt 1 discriminator 3 view .LVU17
 107              		.loc 1 263 32 is_stmt 0 discriminator 3 view .LVU18
 108 0004 C118     		adds	r1, r0, r3
 109 0006 42F26902 		movw	r2, #8297
 110 000a 4FF0000C 		mov	ip, #0
 111 000e 01F802C0 		strb	ip, [r1, r2]
 262:Device-Drivers/Src/sd-card-spi.c ****     for (int i=0; i < 1024; i++) {
 112              		.loc 1 262 29 is_stmt 1 discriminator 3 view .LVU19
 262:Device-Drivers/Src/sd-card-spi.c ****     for (int i=0; i < 1024; i++) {
 113              		.loc 1 262 30 is_stmt 0 discriminator 3 view .LVU20
 114 0012 0133     		adds	r3, r3, #1
 115              	.LVL3:
 116              	.L8:
 262:Device-Drivers/Src/sd-card-spi.c ****     for (int i=0; i < 1024; i++) {
 117              		.loc 1 262 19 is_stmt 1 discriminator 1 view .LVU21
 262:Device-Drivers/Src/sd-card-spi.c ****     for (int i=0; i < 1024; i++) {
 118              		.loc 1 262 5 is_stmt 0 discriminator 1 view .LVU22
 119 0014 B3F5806F 		cmp	r3, #1024
 120 0018 F4DB     		blt	.L9
 121              	.LBE2:
 264:Device-Drivers/Src/sd-card-spi.c ****     }
 265:Device-Drivers/Src/sd-card-spi.c **** }
 122              		.loc 1 265 1 view .LVU23
 123 001a 7047     		bx	lr
 124              		.cfi_endproc
 125              	.LFE135:
 127              		.global	__aeabi_ui2d
 128              		.global	__aeabi_dmul
 129              		.global	__aeabi_d2ulz
 130              		.global	__aeabi_uldivmod
 131              		.section	.text.sd_card_space,"ax",%progbits
 132              		.align	1
ARM GAS  C:\Users\samue\AppData\Local\Temp\ccXPnGXr.s 			page 8


 133              		.global	sd_card_space
 134              		.syntax unified
 135              		.thumb
 136              		.thumb_func
 138              	sd_card_space:
 139              	.LVL4:
 140              	.LFB134:
  86:Device-Drivers/Src/sd-card-spi.c ****     //
 141              		.loc 1 86 1 is_stmt 1 view -0
 142              		.cfi_startproc
 143              		@ args = 0, pretend = 0, frame = 0
 144              		@ frame_needed = 0, uses_anonymous_args = 0
  86:Device-Drivers/Src/sd-card-spi.c ****     //
 145              		.loc 1 86 1 is_stmt 0 view .LVU25
 146 0000 F8B5     		push	{r3, r4, r5, r6, r7, lr}
 147              	.LCFI1:
 148              		.cfi_def_cfa_offset 24
 149              		.cfi_offset 3, -24
 150              		.cfi_offset 4, -20
 151              		.cfi_offset 5, -16
 152              		.cfi_offset 6, -12
 153              		.cfi_offset 7, -8
 154              		.cfi_offset 14, -4
 155 0002 0446     		mov	r4, r0
  88:Device-Drivers/Src/sd-card-spi.c **** 
 156              		.loc 1 88 5 is_stmt 1 view .LVU26
  91:Device-Drivers/Src/sd-card-spi.c **** 
 157              		.loc 1 91 5 view .LVU27
 158 0004 2448     		ldr	r0, .L15
 159              	.LVL5:
  91:Device-Drivers/Src/sd-card-spi.c **** 
 160              		.loc 1 91 5 is_stmt 0 view .LVU28
 161 0006 FFF7FEFF 		bl	bufclear
 162              	.LVL6:
  94:Device-Drivers/Src/sd-card-spi.c **** 
 163              		.loc 1 94 5 is_stmt 1 view .LVU29
 164 000a 244A     		ldr	r2, .L15+4
 165 000c 111D     		adds	r1, r2, #4
 166 000e 2448     		ldr	r0, .L15+8
 167 0010 FFF7FEFF 		bl	f_getfree
 168              	.LVL7:
  97:Device-Drivers/Src/sd-card-spi.c ****     {
 169              		.loc 1 97 5 view .LVU30
 170 0014 1CB1     		cbz	r4, .L11
 171 0016 012C     		cmp	r4, #1
 172 0018 1FD0     		beq	.L12
 173              	.L13:
 174              	.LVL8:
 148:Device-Drivers/Src/sd-card-spi.c **** }
 175              		.loc 1 148 5 view .LVU31
 149:Device-Drivers/Src/sd-card-spi.c **** 
 176              		.loc 1 149 1 is_stmt 0 view .LVU32
 177 001a 2846     		mov	r0, r5
 178 001c F8BD     		pop	{r3, r4, r5, r6, r7, pc}
 179              	.LVL9:
 180              	.L11:
 100:Device-Drivers/Src/sd-card-spi.c ****             space_size = (uint16_t)(sd_card_1.total / 1000000);
ARM GAS  C:\Users\samue\AppData\Local\Temp\ccXPnGXr.s 			page 9


 181              		.loc 1 100 13 is_stmt 1 view .LVU33
 100:Device-Drivers/Src/sd-card-spi.c ****             space_size = (uint16_t)(sd_card_1.total / 1000000);
 182              		.loc 1 100 52 is_stmt 0 view .LVU34
 183 001e 1E4C     		ldr	r4, .L15
 184 0020 04F50053 		add	r3, r4, #8192
 185 0024 D3F87434 		ldr	r3, [r3, #1140]
 100:Device-Drivers/Src/sd-card-spi.c ****             space_size = (uint16_t)(sd_card_1.total / 1000000);
 186              		.loc 1 100 56 view .LVU35
 187 0028 D869     		ldr	r0, [r3, #28]
 100:Device-Drivers/Src/sd-card-spi.c ****             space_size = (uint16_t)(sd_card_1.total / 1000000);
 188              		.loc 1 100 67 view .LVU36
 189 002a 0238     		subs	r0, r0, #2
 100:Device-Drivers/Src/sd-card-spi.c ****             space_size = (uint16_t)(sd_card_1.total / 1000000);
 190              		.loc 1 100 86 view .LVU37
 191 002c 5B89     		ldrh	r3, [r3, #10]
 100:Device-Drivers/Src/sd-card-spi.c ****             space_size = (uint16_t)(sd_card_1.total / 1000000);
 192              		.loc 1 100 94 view .LVU38
 193 002e 03FB00F0 		mul	r0, r3, r0
 194 0032 FFF7FEFF 		bl	__aeabi_ui2d
 195              	.LVL10:
 196 0036 0022     		movs	r2, #0
 197 0038 1A4B     		ldr	r3, .L15+12
 198 003a FFF7FEFF 		bl	__aeabi_dmul
 199              	.LVL11:
 100:Device-Drivers/Src/sd-card-spi.c ****             space_size = (uint16_t)(sd_card_1.total / 1000000);
 200              		.loc 1 100 31 view .LVU39
 201 003e FFF7FEFF 		bl	__aeabi_d2ulz
 202              	.LVL12:
 203 0042 0246     		mov	r2, r0
 204 0044 0B46     		mov	r3, r1
 100:Device-Drivers/Src/sd-card-spi.c ****             space_size = (uint16_t)(sd_card_1.total / 1000000);
 205              		.loc 1 100 29 view .LVU40
 206 0046 04F51254 		add	r4, r4, #9344
 207 004a C4E90023 		strd	r2, [r4]
 101:Device-Drivers/Src/sd-card-spi.c ****             break;
 208              		.loc 1 101 13 is_stmt 1 view .LVU41
 101:Device-Drivers/Src/sd-card-spi.c ****             break;
 209              		.loc 1 101 53 is_stmt 0 view .LVU42
 210 004e 164A     		ldr	r2, .L15+16
 211 0050 0023     		movs	r3, #0
 212 0052 FFF7FEFF 		bl	__aeabi_uldivmod
 213              	.LVL13:
 101:Device-Drivers/Src/sd-card-spi.c ****             break;
 214              		.loc 1 101 24 view .LVU43
 215 0056 85B2     		uxth	r5, r0
 216              	.LVL14:
 102:Device-Drivers/Src/sd-card-spi.c ****         
 217              		.loc 1 102 13 is_stmt 1 view .LVU44
 218 0058 DFE7     		b	.L13
 219              	.LVL15:
 220              	.L12:
 105:Device-Drivers/Src/sd-card-spi.c ****             space_size = (uint16_t)(sd_card_1.free_space / 1000000);
 221              		.loc 1 105 13 view .LVU45
 105:Device-Drivers/Src/sd-card-spi.c ****             space_size = (uint16_t)(sd_card_1.free_space / 1000000);
 222              		.loc 1 105 57 is_stmt 0 view .LVU46
 223 005a 0F4C     		ldr	r4, .L15
 224 005c 04F50053 		add	r3, r4, #8192
ARM GAS  C:\Users\samue\AppData\Local\Temp\ccXPnGXr.s 			page 10


 225 0060 D3F87824 		ldr	r2, [r3, #1144]
 105:Device-Drivers/Src/sd-card-spi.c ****             space_size = (uint16_t)(sd_card_1.free_space / 1000000);
 226              		.loc 1 105 79 view .LVU47
 227 0064 D3F87434 		ldr	r3, [r3, #1140]
 105:Device-Drivers/Src/sd-card-spi.c ****             space_size = (uint16_t)(sd_card_1.free_space / 1000000);
 228              		.loc 1 105 83 view .LVU48
 229 0068 5889     		ldrh	r0, [r3, #10]
 105:Device-Drivers/Src/sd-card-spi.c ****             space_size = (uint16_t)(sd_card_1.free_space / 1000000);
 230              		.loc 1 105 91 view .LVU49
 231 006a 02FB00F0 		mul	r0, r2, r0
 232 006e FFF7FEFF 		bl	__aeabi_ui2d
 233              	.LVL16:
 234 0072 0022     		movs	r2, #0
 235 0074 0B4B     		ldr	r3, .L15+12
 236 0076 FFF7FEFF 		bl	__aeabi_dmul
 237              	.LVL17:
 105:Device-Drivers/Src/sd-card-spi.c ****             space_size = (uint16_t)(sd_card_1.free_space / 1000000);
 238              		.loc 1 105 36 view .LVU50
 239 007a FFF7FEFF 		bl	__aeabi_d2ulz
 240              	.LVL18:
 241 007e 0646     		mov	r6, r0
 242 0080 0F46     		mov	r7, r1
 105:Device-Drivers/Src/sd-card-spi.c ****             space_size = (uint16_t)(sd_card_1.free_space / 1000000);
 243              		.loc 1 105 34 view .LVU51
 244 0082 04F51253 		add	r3, r4, #9344
 245 0086 C3E90267 		strd	r6, [r3, #8]
 106:Device-Drivers/Src/sd-card-spi.c ****             break;
 246              		.loc 1 106 13 is_stmt 1 view .LVU52
 106:Device-Drivers/Src/sd-card-spi.c ****             break;
 247              		.loc 1 106 58 is_stmt 0 view .LVU53
 248 008a 074A     		ldr	r2, .L15+16
 249 008c 0023     		movs	r3, #0
 250 008e FFF7FEFF 		bl	__aeabi_uldivmod
 251              	.LVL19:
 106:Device-Drivers/Src/sd-card-spi.c ****             break;
 252              		.loc 1 106 24 view .LVU54
 253 0092 85B2     		uxth	r5, r0
 254              	.LVL20:
 107:Device-Drivers/Src/sd-card-spi.c ****         
 255              		.loc 1 107 13 is_stmt 1 view .LVU55
 256 0094 C1E7     		b	.L13
 257              	.L16:
 258 0096 00BF     		.align	2
 259              	.L15:
 260 0098 00000000 		.word	sd_card_1
 261 009c 74240000 		.word	sd_card_1+9332
 262 00a0 00000000 		.word	.LC0
 263 00a4 0000E03F 		.word	1071644672
 264 00a8 40420F00 		.word	1000000
 265              		.cfi_endproc
 266              	.LFE134:
 268              		.section	.bss.sd_card_1,"aw",%nobits
 269              		.align	3
 272              	sd_card_1:
 273 0000 00000000 		.space	9368
 273      00000000 
 273      00000000 
ARM GAS  C:\Users\samue\AppData\Local\Temp\ccXPnGXr.s 			page 11


 273      00000000 
 273      00000000 
 274              		.text
 275              	.Letext0:
 276              		.file 2 "c:\\dev_tools\\gcc-arm-none-eabi-10.3-2021.10-win32\\gcc-arm-none-eabi-10.3-2021.10\\arm-
 277              		.file 3 "c:\\dev_tools\\gcc-arm-none-eabi-10.3-2021.10-win32\\gcc-arm-none-eabi-10.3-2021.10\\arm-
 278              		.file 4 "Middlewares/Third_Party/FatFs/src/integer.h"
 279              		.file 5 "Device-Drivers/Inc/sd-card-spi.h"
 280              		.file 6 "Middlewares/Third_Party/FatFs/src/ff.h"
ARM GAS  C:\Users\samue\AppData\Local\Temp\ccXPnGXr.s 			page 12

