ARM GAS  C:\Users\samue\AppData\Local\Temp\ccfBe3A1.s 			page 1


   1              		.cpu cortex-m4
   2              		.arch armv7e-m
   3              		.fpu fpv4-sp-d16
   4              		.eabi_attribute 27, 1
   5              		.eabi_attribute 28, 1
   6              		.eabi_attribute 20, 1
   7              		.eabi_attribute 21, 1
   8              		.eabi_attribute 23, 3
   9              		.eabi_attribute 24, 1
  10              		.eabi_attribute 25, 1
  11              		.eabi_attribute 26, 1
  12              		.eabi_attribute 30, 1
  13              		.eabi_attribute 34, 1
  14              		.eabi_attribute 18, 4
  15              		.file	"stm32f4xx_hal_msp.c"
  16              		.text
  17              	.Ltext0:
  18              		.cfi_sections	.debug_frame
  19              		.section	.text.HAL_MspInit,"ax",%progbits
  20              		.align	1
  21              		.global	HAL_MspInit
  22              		.syntax unified
  23              		.thumb
  24              		.thumb_func
  26              	HAL_MspInit:
  27              	.LFB130:
  28              		.file 1 "Core/Src/stm32f4xx_hal_msp.c"
   1:Core/Src/stm32f4xx_hal_msp.c **** /* USER CODE BEGIN Header */
   2:Core/Src/stm32f4xx_hal_msp.c **** /**
   3:Core/Src/stm32f4xx_hal_msp.c ****   ******************************************************************************
   4:Core/Src/stm32f4xx_hal_msp.c ****   * @file         stm32f4xx_hal_msp.c
   5:Core/Src/stm32f4xx_hal_msp.c ****   * @brief        This file provides code for the MSP Initialization
   6:Core/Src/stm32f4xx_hal_msp.c ****   *               and de-Initialization codes.
   7:Core/Src/stm32f4xx_hal_msp.c ****   ******************************************************************************
   8:Core/Src/stm32f4xx_hal_msp.c ****   * @attention
   9:Core/Src/stm32f4xx_hal_msp.c ****   *
  10:Core/Src/stm32f4xx_hal_msp.c ****   * <h2><center>&copy; Copyright (c) 2021 STMicroelectronics.
  11:Core/Src/stm32f4xx_hal_msp.c ****   * All rights reserved.</center></h2>
  12:Core/Src/stm32f4xx_hal_msp.c ****   *
  13:Core/Src/stm32f4xx_hal_msp.c ****   * This software component is licensed by ST under BSD 3-Clause license,
  14:Core/Src/stm32f4xx_hal_msp.c ****   * the "License"; You may not use this file except in compliance with the
  15:Core/Src/stm32f4xx_hal_msp.c ****   * License. You may obtain a copy of the License at:
  16:Core/Src/stm32f4xx_hal_msp.c ****   *                        opensource.org/licenses/BSD-3-Clause
  17:Core/Src/stm32f4xx_hal_msp.c ****   *
  18:Core/Src/stm32f4xx_hal_msp.c ****   ******************************************************************************
  19:Core/Src/stm32f4xx_hal_msp.c ****   */
  20:Core/Src/stm32f4xx_hal_msp.c **** /* USER CODE END Header */
  21:Core/Src/stm32f4xx_hal_msp.c **** 
  22:Core/Src/stm32f4xx_hal_msp.c **** /* Includes ------------------------------------------------------------------*/
  23:Core/Src/stm32f4xx_hal_msp.c **** #include "main.h"
  24:Core/Src/stm32f4xx_hal_msp.c **** /* USER CODE BEGIN Includes */
  25:Core/Src/stm32f4xx_hal_msp.c **** 
  26:Core/Src/stm32f4xx_hal_msp.c **** /* USER CODE END Includes */
  27:Core/Src/stm32f4xx_hal_msp.c **** extern DMA_HandleTypeDef hdma_usart2_tx;
  28:Core/Src/stm32f4xx_hal_msp.c **** 
  29:Core/Src/stm32f4xx_hal_msp.c **** /* Private typedef -----------------------------------------------------------*/
  30:Core/Src/stm32f4xx_hal_msp.c **** /* USER CODE BEGIN TD */
ARM GAS  C:\Users\samue\AppData\Local\Temp\ccfBe3A1.s 			page 2


  31:Core/Src/stm32f4xx_hal_msp.c **** 
  32:Core/Src/stm32f4xx_hal_msp.c **** /* USER CODE END TD */
  33:Core/Src/stm32f4xx_hal_msp.c **** 
  34:Core/Src/stm32f4xx_hal_msp.c **** /* Private define ------------------------------------------------------------*/
  35:Core/Src/stm32f4xx_hal_msp.c **** /* USER CODE BEGIN Define */
  36:Core/Src/stm32f4xx_hal_msp.c **** 
  37:Core/Src/stm32f4xx_hal_msp.c **** /* USER CODE END Define */
  38:Core/Src/stm32f4xx_hal_msp.c **** 
  39:Core/Src/stm32f4xx_hal_msp.c **** /* Private macro -------------------------------------------------------------*/
  40:Core/Src/stm32f4xx_hal_msp.c **** /* USER CODE BEGIN Macro */
  41:Core/Src/stm32f4xx_hal_msp.c **** 
  42:Core/Src/stm32f4xx_hal_msp.c **** /* USER CODE END Macro */
  43:Core/Src/stm32f4xx_hal_msp.c **** 
  44:Core/Src/stm32f4xx_hal_msp.c **** /* Private variables ---------------------------------------------------------*/
  45:Core/Src/stm32f4xx_hal_msp.c **** /* USER CODE BEGIN PV */
  46:Core/Src/stm32f4xx_hal_msp.c **** 
  47:Core/Src/stm32f4xx_hal_msp.c **** /* USER CODE END PV */
  48:Core/Src/stm32f4xx_hal_msp.c **** 
  49:Core/Src/stm32f4xx_hal_msp.c **** /* Private function prototypes -----------------------------------------------*/
  50:Core/Src/stm32f4xx_hal_msp.c **** /* USER CODE BEGIN PFP */
  51:Core/Src/stm32f4xx_hal_msp.c **** 
  52:Core/Src/stm32f4xx_hal_msp.c **** /* USER CODE END PFP */
  53:Core/Src/stm32f4xx_hal_msp.c **** 
  54:Core/Src/stm32f4xx_hal_msp.c **** /* External functions --------------------------------------------------------*/
  55:Core/Src/stm32f4xx_hal_msp.c **** /* USER CODE BEGIN ExternalFunctions */
  56:Core/Src/stm32f4xx_hal_msp.c **** 
  57:Core/Src/stm32f4xx_hal_msp.c **** /* USER CODE END ExternalFunctions */
  58:Core/Src/stm32f4xx_hal_msp.c **** 
  59:Core/Src/stm32f4xx_hal_msp.c **** /* USER CODE BEGIN 0 */
  60:Core/Src/stm32f4xx_hal_msp.c **** 
  61:Core/Src/stm32f4xx_hal_msp.c **** /* USER CODE END 0 */
  62:Core/Src/stm32f4xx_hal_msp.c **** /**
  63:Core/Src/stm32f4xx_hal_msp.c ****   * Initializes the Global MSP.
  64:Core/Src/stm32f4xx_hal_msp.c ****   */
  65:Core/Src/stm32f4xx_hal_msp.c **** void HAL_MspInit(void)
  66:Core/Src/stm32f4xx_hal_msp.c **** {
  29              		.loc 1 66 1 view -0
  30              		.cfi_startproc
  31              		@ args = 0, pretend = 0, frame = 8
  32              		@ frame_needed = 0, uses_anonymous_args = 0
  33 0000 00B5     		push	{lr}
  34              	.LCFI0:
  35              		.cfi_def_cfa_offset 4
  36              		.cfi_offset 14, -4
  37 0002 83B0     		sub	sp, sp, #12
  38              	.LCFI1:
  39              		.cfi_def_cfa_offset 16
  67:Core/Src/stm32f4xx_hal_msp.c ****   /* USER CODE BEGIN MspInit 0 */
  68:Core/Src/stm32f4xx_hal_msp.c **** 
  69:Core/Src/stm32f4xx_hal_msp.c ****   /* USER CODE END MspInit 0 */
  70:Core/Src/stm32f4xx_hal_msp.c **** 
  71:Core/Src/stm32f4xx_hal_msp.c ****   __HAL_RCC_SYSCFG_CLK_ENABLE();
  40              		.loc 1 71 3 view .LVU1
  41              	.LBB2:
  42              		.loc 1 71 3 view .LVU2
  43 0004 0021     		movs	r1, #0
  44 0006 0091     		str	r1, [sp]
ARM GAS  C:\Users\samue\AppData\Local\Temp\ccfBe3A1.s 			page 3


  45              		.loc 1 71 3 view .LVU3
  46 0008 0C4B     		ldr	r3, .L3
  47 000a 5A6C     		ldr	r2, [r3, #68]
  48 000c 42F48042 		orr	r2, r2, #16384
  49 0010 5A64     		str	r2, [r3, #68]
  50              		.loc 1 71 3 view .LVU4
  51 0012 5A6C     		ldr	r2, [r3, #68]
  52 0014 02F48042 		and	r2, r2, #16384
  53 0018 0092     		str	r2, [sp]
  54              		.loc 1 71 3 view .LVU5
  55 001a 009A     		ldr	r2, [sp]
  56              	.LBE2:
  57              		.loc 1 71 3 view .LVU6
  72:Core/Src/stm32f4xx_hal_msp.c ****   __HAL_RCC_PWR_CLK_ENABLE();
  58              		.loc 1 72 3 view .LVU7
  59              	.LBB3:
  60              		.loc 1 72 3 view .LVU8
  61 001c 0191     		str	r1, [sp, #4]
  62              		.loc 1 72 3 view .LVU9
  63 001e 1A6C     		ldr	r2, [r3, #64]
  64 0020 42F08052 		orr	r2, r2, #268435456
  65 0024 1A64     		str	r2, [r3, #64]
  66              		.loc 1 72 3 view .LVU10
  67 0026 1B6C     		ldr	r3, [r3, #64]
  68 0028 03F08053 		and	r3, r3, #268435456
  69 002c 0193     		str	r3, [sp, #4]
  70              		.loc 1 72 3 view .LVU11
  71 002e 019B     		ldr	r3, [sp, #4]
  72              	.LBE3:
  73              		.loc 1 72 3 view .LVU12
  73:Core/Src/stm32f4xx_hal_msp.c **** 
  74:Core/Src/stm32f4xx_hal_msp.c ****   HAL_NVIC_SetPriorityGrouping(NVIC_PRIORITYGROUP_0);
  74              		.loc 1 74 3 view .LVU13
  75 0030 0720     		movs	r0, #7
  76 0032 FFF7FEFF 		bl	HAL_NVIC_SetPriorityGrouping
  77              	.LVL0:
  75:Core/Src/stm32f4xx_hal_msp.c **** 
  76:Core/Src/stm32f4xx_hal_msp.c ****   /* System interrupt init*/
  77:Core/Src/stm32f4xx_hal_msp.c **** 
  78:Core/Src/stm32f4xx_hal_msp.c ****   /* USER CODE BEGIN MspInit 1 */
  79:Core/Src/stm32f4xx_hal_msp.c **** 
  80:Core/Src/stm32f4xx_hal_msp.c ****   /* USER CODE END MspInit 1 */
  81:Core/Src/stm32f4xx_hal_msp.c **** }
  78              		.loc 1 81 1 is_stmt 0 view .LVU14
  79 0036 03B0     		add	sp, sp, #12
  80              	.LCFI2:
  81              		.cfi_def_cfa_offset 4
  82              		@ sp needed
  83 0038 5DF804FB 		ldr	pc, [sp], #4
  84              	.L4:
  85              		.align	2
  86              	.L3:
  87 003c 00380240 		.word	1073887232
  88              		.cfi_endproc
  89              	.LFE130:
  91              		.section	.text.HAL_I2C_MspInit,"ax",%progbits
  92              		.align	1
ARM GAS  C:\Users\samue\AppData\Local\Temp\ccfBe3A1.s 			page 4


  93              		.global	HAL_I2C_MspInit
  94              		.syntax unified
  95              		.thumb
  96              		.thumb_func
  98              	HAL_I2C_MspInit:
  99              	.LVL1:
 100              	.LFB131:
  82:Core/Src/stm32f4xx_hal_msp.c **** 
  83:Core/Src/stm32f4xx_hal_msp.c **** /**
  84:Core/Src/stm32f4xx_hal_msp.c **** * @brief I2C MSP Initialization
  85:Core/Src/stm32f4xx_hal_msp.c **** * This function configures the hardware resources used in this example
  86:Core/Src/stm32f4xx_hal_msp.c **** * @param hi2c: I2C handle pointer
  87:Core/Src/stm32f4xx_hal_msp.c **** * @retval None
  88:Core/Src/stm32f4xx_hal_msp.c **** */
  89:Core/Src/stm32f4xx_hal_msp.c **** void HAL_I2C_MspInit(I2C_HandleTypeDef* hi2c)
  90:Core/Src/stm32f4xx_hal_msp.c **** {
 101              		.loc 1 90 1 is_stmt 1 view -0
 102              		.cfi_startproc
 103              		@ args = 0, pretend = 0, frame = 32
 104              		@ frame_needed = 0, uses_anonymous_args = 0
 105              		.loc 1 90 1 is_stmt 0 view .LVU16
 106 0000 30B5     		push	{r4, r5, lr}
 107              	.LCFI3:
 108              		.cfi_def_cfa_offset 12
 109              		.cfi_offset 4, -12
 110              		.cfi_offset 5, -8
 111              		.cfi_offset 14, -4
 112 0002 89B0     		sub	sp, sp, #36
 113              	.LCFI4:
 114              		.cfi_def_cfa_offset 48
  91:Core/Src/stm32f4xx_hal_msp.c ****   GPIO_InitTypeDef GPIO_InitStruct = {0};
 115              		.loc 1 91 3 is_stmt 1 view .LVU17
 116              		.loc 1 91 20 is_stmt 0 view .LVU18
 117 0004 0023     		movs	r3, #0
 118 0006 0393     		str	r3, [sp, #12]
 119 0008 0493     		str	r3, [sp, #16]
 120 000a 0593     		str	r3, [sp, #20]
 121 000c 0693     		str	r3, [sp, #24]
 122 000e 0793     		str	r3, [sp, #28]
  92:Core/Src/stm32f4xx_hal_msp.c ****   if(hi2c->Instance==I2C1)
 123              		.loc 1 92 3 is_stmt 1 view .LVU19
 124              		.loc 1 92 10 is_stmt 0 view .LVU20
 125 0010 0268     		ldr	r2, [r0]
 126              		.loc 1 92 5 view .LVU21
 127 0012 144B     		ldr	r3, .L9
 128 0014 9A42     		cmp	r2, r3
 129 0016 01D0     		beq	.L8
 130              	.LVL2:
 131              	.L5:
  93:Core/Src/stm32f4xx_hal_msp.c ****   {
  94:Core/Src/stm32f4xx_hal_msp.c ****   /* USER CODE BEGIN I2C1_MspInit 0 */
  95:Core/Src/stm32f4xx_hal_msp.c **** 
  96:Core/Src/stm32f4xx_hal_msp.c ****   /* USER CODE END I2C1_MspInit 0 */
  97:Core/Src/stm32f4xx_hal_msp.c **** 
  98:Core/Src/stm32f4xx_hal_msp.c ****     __HAL_RCC_GPIOB_CLK_ENABLE();
  99:Core/Src/stm32f4xx_hal_msp.c ****     /**I2C1 GPIO Configuration
 100:Core/Src/stm32f4xx_hal_msp.c ****     PB6     ------> I2C1_SCL
ARM GAS  C:\Users\samue\AppData\Local\Temp\ccfBe3A1.s 			page 5


 101:Core/Src/stm32f4xx_hal_msp.c ****     PB7     ------> I2C1_SDA
 102:Core/Src/stm32f4xx_hal_msp.c ****     */
 103:Core/Src/stm32f4xx_hal_msp.c ****     GPIO_InitStruct.Pin = GPIO_PIN_6|GPIO_PIN_7;
 104:Core/Src/stm32f4xx_hal_msp.c ****     GPIO_InitStruct.Mode = GPIO_MODE_AF_OD;
 105:Core/Src/stm32f4xx_hal_msp.c ****     GPIO_InitStruct.Pull = GPIO_NOPULL;
 106:Core/Src/stm32f4xx_hal_msp.c ****     GPIO_InitStruct.Speed = GPIO_SPEED_FREQ_VERY_HIGH;
 107:Core/Src/stm32f4xx_hal_msp.c ****     GPIO_InitStruct.Alternate = GPIO_AF4_I2C1;
 108:Core/Src/stm32f4xx_hal_msp.c ****     HAL_GPIO_Init(GPIOB, &GPIO_InitStruct);
 109:Core/Src/stm32f4xx_hal_msp.c **** 
 110:Core/Src/stm32f4xx_hal_msp.c ****     /* Peripheral clock enable */
 111:Core/Src/stm32f4xx_hal_msp.c ****     __HAL_RCC_I2C1_CLK_ENABLE();
 112:Core/Src/stm32f4xx_hal_msp.c ****   /* USER CODE BEGIN I2C1_MspInit 1 */
 113:Core/Src/stm32f4xx_hal_msp.c **** 
 114:Core/Src/stm32f4xx_hal_msp.c ****   /* USER CODE END I2C1_MspInit 1 */
 115:Core/Src/stm32f4xx_hal_msp.c ****   }
 116:Core/Src/stm32f4xx_hal_msp.c **** 
 117:Core/Src/stm32f4xx_hal_msp.c **** }
 132              		.loc 1 117 1 view .LVU22
 133 0018 09B0     		add	sp, sp, #36
 134              	.LCFI5:
 135              		.cfi_remember_state
 136              		.cfi_def_cfa_offset 12
 137              		@ sp needed
 138 001a 30BD     		pop	{r4, r5, pc}
 139              	.LVL3:
 140              	.L8:
 141              	.LCFI6:
 142              		.cfi_restore_state
  98:Core/Src/stm32f4xx_hal_msp.c ****     /**I2C1 GPIO Configuration
 143              		.loc 1 98 5 is_stmt 1 view .LVU23
 144              	.LBB4:
  98:Core/Src/stm32f4xx_hal_msp.c ****     /**I2C1 GPIO Configuration
 145              		.loc 1 98 5 view .LVU24
 146 001c 0025     		movs	r5, #0
 147 001e 0195     		str	r5, [sp, #4]
  98:Core/Src/stm32f4xx_hal_msp.c ****     /**I2C1 GPIO Configuration
 148              		.loc 1 98 5 view .LVU25
 149 0020 114C     		ldr	r4, .L9+4
 150 0022 236B     		ldr	r3, [r4, #48]
 151 0024 43F00203 		orr	r3, r3, #2
 152 0028 2363     		str	r3, [r4, #48]
  98:Core/Src/stm32f4xx_hal_msp.c ****     /**I2C1 GPIO Configuration
 153              		.loc 1 98 5 view .LVU26
 154 002a 236B     		ldr	r3, [r4, #48]
 155 002c 03F00203 		and	r3, r3, #2
 156 0030 0193     		str	r3, [sp, #4]
  98:Core/Src/stm32f4xx_hal_msp.c ****     /**I2C1 GPIO Configuration
 157              		.loc 1 98 5 view .LVU27
 158 0032 019B     		ldr	r3, [sp, #4]
 159              	.LBE4:
  98:Core/Src/stm32f4xx_hal_msp.c ****     /**I2C1 GPIO Configuration
 160              		.loc 1 98 5 view .LVU28
 103:Core/Src/stm32f4xx_hal_msp.c ****     GPIO_InitStruct.Mode = GPIO_MODE_AF_OD;
 161              		.loc 1 103 5 view .LVU29
 103:Core/Src/stm32f4xx_hal_msp.c ****     GPIO_InitStruct.Mode = GPIO_MODE_AF_OD;
 162              		.loc 1 103 25 is_stmt 0 view .LVU30
 163 0034 C023     		movs	r3, #192
ARM GAS  C:\Users\samue\AppData\Local\Temp\ccfBe3A1.s 			page 6


 164 0036 0393     		str	r3, [sp, #12]
 104:Core/Src/stm32f4xx_hal_msp.c ****     GPIO_InitStruct.Pull = GPIO_NOPULL;
 165              		.loc 1 104 5 is_stmt 1 view .LVU31
 104:Core/Src/stm32f4xx_hal_msp.c ****     GPIO_InitStruct.Pull = GPIO_NOPULL;
 166              		.loc 1 104 26 is_stmt 0 view .LVU32
 167 0038 1223     		movs	r3, #18
 168 003a 0493     		str	r3, [sp, #16]
 105:Core/Src/stm32f4xx_hal_msp.c ****     GPIO_InitStruct.Speed = GPIO_SPEED_FREQ_VERY_HIGH;
 169              		.loc 1 105 5 is_stmt 1 view .LVU33
 106:Core/Src/stm32f4xx_hal_msp.c ****     GPIO_InitStruct.Alternate = GPIO_AF4_I2C1;
 170              		.loc 1 106 5 view .LVU34
 106:Core/Src/stm32f4xx_hal_msp.c ****     GPIO_InitStruct.Alternate = GPIO_AF4_I2C1;
 171              		.loc 1 106 27 is_stmt 0 view .LVU35
 172 003c 0323     		movs	r3, #3
 173 003e 0693     		str	r3, [sp, #24]
 107:Core/Src/stm32f4xx_hal_msp.c ****     HAL_GPIO_Init(GPIOB, &GPIO_InitStruct);
 174              		.loc 1 107 5 is_stmt 1 view .LVU36
 107:Core/Src/stm32f4xx_hal_msp.c ****     HAL_GPIO_Init(GPIOB, &GPIO_InitStruct);
 175              		.loc 1 107 31 is_stmt 0 view .LVU37
 176 0040 0423     		movs	r3, #4
 177 0042 0793     		str	r3, [sp, #28]
 108:Core/Src/stm32f4xx_hal_msp.c **** 
 178              		.loc 1 108 5 is_stmt 1 view .LVU38
 179 0044 03A9     		add	r1, sp, #12
 180 0046 0948     		ldr	r0, .L9+8
 181              	.LVL4:
 108:Core/Src/stm32f4xx_hal_msp.c **** 
 182              		.loc 1 108 5 is_stmt 0 view .LVU39
 183 0048 FFF7FEFF 		bl	HAL_GPIO_Init
 184              	.LVL5:
 111:Core/Src/stm32f4xx_hal_msp.c ****   /* USER CODE BEGIN I2C1_MspInit 1 */
 185              		.loc 1 111 5 is_stmt 1 view .LVU40
 186              	.LBB5:
 111:Core/Src/stm32f4xx_hal_msp.c ****   /* USER CODE BEGIN I2C1_MspInit 1 */
 187              		.loc 1 111 5 view .LVU41
 188 004c 0295     		str	r5, [sp, #8]
 111:Core/Src/stm32f4xx_hal_msp.c ****   /* USER CODE BEGIN I2C1_MspInit 1 */
 189              		.loc 1 111 5 view .LVU42
 190 004e 236C     		ldr	r3, [r4, #64]
 191 0050 43F40013 		orr	r3, r3, #2097152
 192 0054 2364     		str	r3, [r4, #64]
 111:Core/Src/stm32f4xx_hal_msp.c ****   /* USER CODE BEGIN I2C1_MspInit 1 */
 193              		.loc 1 111 5 view .LVU43
 194 0056 236C     		ldr	r3, [r4, #64]
 195 0058 03F40013 		and	r3, r3, #2097152
 196 005c 0293     		str	r3, [sp, #8]
 111:Core/Src/stm32f4xx_hal_msp.c ****   /* USER CODE BEGIN I2C1_MspInit 1 */
 197              		.loc 1 111 5 view .LVU44
 198 005e 029B     		ldr	r3, [sp, #8]
 199              	.LBE5:
 111:Core/Src/stm32f4xx_hal_msp.c ****   /* USER CODE BEGIN I2C1_MspInit 1 */
 200              		.loc 1 111 5 view .LVU45
 201              		.loc 1 117 1 is_stmt 0 view .LVU46
 202 0060 DAE7     		b	.L5
 203              	.L10:
 204 0062 00BF     		.align	2
 205              	.L9:
ARM GAS  C:\Users\samue\AppData\Local\Temp\ccfBe3A1.s 			page 7


 206 0064 00540040 		.word	1073763328
 207 0068 00380240 		.word	1073887232
 208 006c 00040240 		.word	1073873920
 209              		.cfi_endproc
 210              	.LFE131:
 212              		.section	.text.HAL_I2C_MspDeInit,"ax",%progbits
 213              		.align	1
 214              		.global	HAL_I2C_MspDeInit
 215              		.syntax unified
 216              		.thumb
 217              		.thumb_func
 219              	HAL_I2C_MspDeInit:
 220              	.LVL6:
 221              	.LFB132:
 118:Core/Src/stm32f4xx_hal_msp.c **** 
 119:Core/Src/stm32f4xx_hal_msp.c **** /**
 120:Core/Src/stm32f4xx_hal_msp.c **** * @brief I2C MSP De-Initialization
 121:Core/Src/stm32f4xx_hal_msp.c **** * This function freeze the hardware resources used in this example
 122:Core/Src/stm32f4xx_hal_msp.c **** * @param hi2c: I2C handle pointer
 123:Core/Src/stm32f4xx_hal_msp.c **** * @retval None
 124:Core/Src/stm32f4xx_hal_msp.c **** */
 125:Core/Src/stm32f4xx_hal_msp.c **** void HAL_I2C_MspDeInit(I2C_HandleTypeDef* hi2c)
 126:Core/Src/stm32f4xx_hal_msp.c **** {
 222              		.loc 1 126 1 is_stmt 1 view -0
 223              		.cfi_startproc
 224              		@ args = 0, pretend = 0, frame = 0
 225              		@ frame_needed = 0, uses_anonymous_args = 0
 127:Core/Src/stm32f4xx_hal_msp.c ****   if(hi2c->Instance==I2C1)
 226              		.loc 1 127 3 view .LVU48
 227              		.loc 1 127 10 is_stmt 0 view .LVU49
 228 0000 0268     		ldr	r2, [r0]
 229              		.loc 1 127 5 view .LVU50
 230 0002 0A4B     		ldr	r3, .L18
 231 0004 9A42     		cmp	r2, r3
 232 0006 00D0     		beq	.L17
 233 0008 7047     		bx	lr
 234              	.L17:
 126:Core/Src/stm32f4xx_hal_msp.c ****   if(hi2c->Instance==I2C1)
 235              		.loc 1 126 1 view .LVU51
 236 000a 10B5     		push	{r4, lr}
 237              	.LCFI7:
 238              		.cfi_def_cfa_offset 8
 239              		.cfi_offset 4, -8
 240              		.cfi_offset 14, -4
 128:Core/Src/stm32f4xx_hal_msp.c ****   {
 129:Core/Src/stm32f4xx_hal_msp.c ****   /* USER CODE BEGIN I2C1_MspDeInit 0 */
 130:Core/Src/stm32f4xx_hal_msp.c **** 
 131:Core/Src/stm32f4xx_hal_msp.c ****   /* USER CODE END I2C1_MspDeInit 0 */
 132:Core/Src/stm32f4xx_hal_msp.c ****     /* Peripheral clock disable */
 133:Core/Src/stm32f4xx_hal_msp.c ****     __HAL_RCC_I2C1_CLK_DISABLE();
 241              		.loc 1 133 5 is_stmt 1 view .LVU52
 242 000c 084A     		ldr	r2, .L18+4
 243 000e 136C     		ldr	r3, [r2, #64]
 244 0010 23F40013 		bic	r3, r3, #2097152
 245 0014 1364     		str	r3, [r2, #64]
 134:Core/Src/stm32f4xx_hal_msp.c **** 
 135:Core/Src/stm32f4xx_hal_msp.c ****     /**I2C1 GPIO Configuration
ARM GAS  C:\Users\samue\AppData\Local\Temp\ccfBe3A1.s 			page 8


 136:Core/Src/stm32f4xx_hal_msp.c ****     PB6     ------> I2C1_SCL
 137:Core/Src/stm32f4xx_hal_msp.c ****     PB7     ------> I2C1_SDA
 138:Core/Src/stm32f4xx_hal_msp.c ****     */
 139:Core/Src/stm32f4xx_hal_msp.c ****     HAL_GPIO_DeInit(GPIOB, GPIO_PIN_6);
 246              		.loc 1 139 5 view .LVU53
 247 0016 074C     		ldr	r4, .L18+8
 248 0018 4021     		movs	r1, #64
 249 001a 2046     		mov	r0, r4
 250              	.LVL7:
 251              		.loc 1 139 5 is_stmt 0 view .LVU54
 252 001c FFF7FEFF 		bl	HAL_GPIO_DeInit
 253              	.LVL8:
 140:Core/Src/stm32f4xx_hal_msp.c **** 
 141:Core/Src/stm32f4xx_hal_msp.c ****     HAL_GPIO_DeInit(GPIOB, GPIO_PIN_7);
 254              		.loc 1 141 5 is_stmt 1 view .LVU55
 255 0020 8021     		movs	r1, #128
 256 0022 2046     		mov	r0, r4
 257 0024 FFF7FEFF 		bl	HAL_GPIO_DeInit
 258              	.LVL9:
 142:Core/Src/stm32f4xx_hal_msp.c **** 
 143:Core/Src/stm32f4xx_hal_msp.c ****   /* USER CODE BEGIN I2C1_MspDeInit 1 */
 144:Core/Src/stm32f4xx_hal_msp.c **** 
 145:Core/Src/stm32f4xx_hal_msp.c ****   /* USER CODE END I2C1_MspDeInit 1 */
 146:Core/Src/stm32f4xx_hal_msp.c ****   }
 147:Core/Src/stm32f4xx_hal_msp.c **** 
 148:Core/Src/stm32f4xx_hal_msp.c **** }
 259              		.loc 1 148 1 is_stmt 0 view .LVU56
 260 0028 10BD     		pop	{r4, pc}
 261              	.L19:
 262 002a 00BF     		.align	2
 263              	.L18:
 264 002c 00540040 		.word	1073763328
 265 0030 00380240 		.word	1073887232
 266 0034 00040240 		.word	1073873920
 267              		.cfi_endproc
 268              	.LFE132:
 270              		.section	.text.HAL_SPI_MspInit,"ax",%progbits
 271              		.align	1
 272              		.global	HAL_SPI_MspInit
 273              		.syntax unified
 274              		.thumb
 275              		.thumb_func
 277              	HAL_SPI_MspInit:
 278              	.LVL10:
 279              	.LFB133:
 149:Core/Src/stm32f4xx_hal_msp.c **** 
 150:Core/Src/stm32f4xx_hal_msp.c **** /**
 151:Core/Src/stm32f4xx_hal_msp.c **** * @brief SPI MSP Initialization
 152:Core/Src/stm32f4xx_hal_msp.c **** * This function configures the hardware resources used in this example
 153:Core/Src/stm32f4xx_hal_msp.c **** * @param hspi: SPI handle pointer
 154:Core/Src/stm32f4xx_hal_msp.c **** * @retval None
 155:Core/Src/stm32f4xx_hal_msp.c **** */
 156:Core/Src/stm32f4xx_hal_msp.c **** void HAL_SPI_MspInit(SPI_HandleTypeDef* hspi)
 157:Core/Src/stm32f4xx_hal_msp.c **** {
 280              		.loc 1 157 1 is_stmt 1 view -0
 281              		.cfi_startproc
 282              		@ args = 0, pretend = 0, frame = 32
ARM GAS  C:\Users\samue\AppData\Local\Temp\ccfBe3A1.s 			page 9


 283              		@ frame_needed = 0, uses_anonymous_args = 0
 284              		.loc 1 157 1 is_stmt 0 view .LVU58
 285 0000 F0B5     		push	{r4, r5, r6, r7, lr}
 286              	.LCFI8:
 287              		.cfi_def_cfa_offset 20
 288              		.cfi_offset 4, -20
 289              		.cfi_offset 5, -16
 290              		.cfi_offset 6, -12
 291              		.cfi_offset 7, -8
 292              		.cfi_offset 14, -4
 293 0002 89B0     		sub	sp, sp, #36
 294              	.LCFI9:
 295              		.cfi_def_cfa_offset 56
 158:Core/Src/stm32f4xx_hal_msp.c ****   GPIO_InitTypeDef GPIO_InitStruct = {0};
 296              		.loc 1 158 3 is_stmt 1 view .LVU59
 297              		.loc 1 158 20 is_stmt 0 view .LVU60
 298 0004 0023     		movs	r3, #0
 299 0006 0393     		str	r3, [sp, #12]
 300 0008 0493     		str	r3, [sp, #16]
 301 000a 0593     		str	r3, [sp, #20]
 302 000c 0693     		str	r3, [sp, #24]
 303 000e 0793     		str	r3, [sp, #28]
 159:Core/Src/stm32f4xx_hal_msp.c ****   if(hspi->Instance==SPI2)
 304              		.loc 1 159 3 is_stmt 1 view .LVU61
 305              		.loc 1 159 10 is_stmt 0 view .LVU62
 306 0010 0268     		ldr	r2, [r0]
 307              		.loc 1 159 5 view .LVU63
 308 0012 1F4B     		ldr	r3, .L24
 309 0014 9A42     		cmp	r2, r3
 310 0016 01D0     		beq	.L23
 311              	.LVL11:
 312              	.L20:
 160:Core/Src/stm32f4xx_hal_msp.c ****   {
 161:Core/Src/stm32f4xx_hal_msp.c ****   /* USER CODE BEGIN SPI2_MspInit 0 */
 162:Core/Src/stm32f4xx_hal_msp.c **** 
 163:Core/Src/stm32f4xx_hal_msp.c ****   /* USER CODE END SPI2_MspInit 0 */
 164:Core/Src/stm32f4xx_hal_msp.c ****     /* Peripheral clock enable */
 165:Core/Src/stm32f4xx_hal_msp.c ****     __HAL_RCC_SPI2_CLK_ENABLE();
 166:Core/Src/stm32f4xx_hal_msp.c **** 
 167:Core/Src/stm32f4xx_hal_msp.c ****     __HAL_RCC_GPIOC_CLK_ENABLE();
 168:Core/Src/stm32f4xx_hal_msp.c ****     __HAL_RCC_GPIOB_CLK_ENABLE();
 169:Core/Src/stm32f4xx_hal_msp.c ****     /**SPI2 GPIO Configuration
 170:Core/Src/stm32f4xx_hal_msp.c ****     PC3     ------> SPI2_MOSI
 171:Core/Src/stm32f4xx_hal_msp.c ****     PB10     ------> SPI2_SCK
 172:Core/Src/stm32f4xx_hal_msp.c ****     PB14     ------> SPI2_MISO
 173:Core/Src/stm32f4xx_hal_msp.c ****     */
 174:Core/Src/stm32f4xx_hal_msp.c ****     GPIO_InitStruct.Pin = GPIO_PIN_3;
 175:Core/Src/stm32f4xx_hal_msp.c ****     GPIO_InitStruct.Mode = GPIO_MODE_AF_PP;
 176:Core/Src/stm32f4xx_hal_msp.c ****     GPIO_InitStruct.Pull = GPIO_NOPULL;
 177:Core/Src/stm32f4xx_hal_msp.c ****     GPIO_InitStruct.Speed = GPIO_SPEED_FREQ_VERY_HIGH;
 178:Core/Src/stm32f4xx_hal_msp.c ****     GPIO_InitStruct.Alternate = GPIO_AF5_SPI2;
 179:Core/Src/stm32f4xx_hal_msp.c ****     HAL_GPIO_Init(GPIOC, &GPIO_InitStruct);
 180:Core/Src/stm32f4xx_hal_msp.c **** 
 181:Core/Src/stm32f4xx_hal_msp.c ****     GPIO_InitStruct.Pin = GPIO_PIN_10|GPIO_PIN_14;
 182:Core/Src/stm32f4xx_hal_msp.c ****     GPIO_InitStruct.Mode = GPIO_MODE_AF_PP;
 183:Core/Src/stm32f4xx_hal_msp.c ****     GPIO_InitStruct.Pull = GPIO_NOPULL;
 184:Core/Src/stm32f4xx_hal_msp.c ****     GPIO_InitStruct.Speed = GPIO_SPEED_FREQ_VERY_HIGH;
ARM GAS  C:\Users\samue\AppData\Local\Temp\ccfBe3A1.s 			page 10


 185:Core/Src/stm32f4xx_hal_msp.c ****     GPIO_InitStruct.Alternate = GPIO_AF5_SPI2;
 186:Core/Src/stm32f4xx_hal_msp.c ****     HAL_GPIO_Init(GPIOB, &GPIO_InitStruct);
 187:Core/Src/stm32f4xx_hal_msp.c **** 
 188:Core/Src/stm32f4xx_hal_msp.c ****   /* USER CODE BEGIN SPI2_MspInit 1 */
 189:Core/Src/stm32f4xx_hal_msp.c **** 
 190:Core/Src/stm32f4xx_hal_msp.c ****   /* USER CODE END SPI2_MspInit 1 */
 191:Core/Src/stm32f4xx_hal_msp.c ****   }
 192:Core/Src/stm32f4xx_hal_msp.c **** 
 193:Core/Src/stm32f4xx_hal_msp.c **** }
 313              		.loc 1 193 1 view .LVU64
 314 0018 09B0     		add	sp, sp, #36
 315              	.LCFI10:
 316              		.cfi_remember_state
 317              		.cfi_def_cfa_offset 20
 318              		@ sp needed
 319 001a F0BD     		pop	{r4, r5, r6, r7, pc}
 320              	.LVL12:
 321              	.L23:
 322              	.LCFI11:
 323              		.cfi_restore_state
 165:Core/Src/stm32f4xx_hal_msp.c **** 
 324              		.loc 1 165 5 is_stmt 1 view .LVU65
 325              	.LBB6:
 165:Core/Src/stm32f4xx_hal_msp.c **** 
 326              		.loc 1 165 5 view .LVU66
 327 001c 0024     		movs	r4, #0
 328 001e 0094     		str	r4, [sp]
 165:Core/Src/stm32f4xx_hal_msp.c **** 
 329              		.loc 1 165 5 view .LVU67
 330 0020 03F50033 		add	r3, r3, #131072
 331 0024 1A6C     		ldr	r2, [r3, #64]
 332 0026 42F48042 		orr	r2, r2, #16384
 333 002a 1A64     		str	r2, [r3, #64]
 165:Core/Src/stm32f4xx_hal_msp.c **** 
 334              		.loc 1 165 5 view .LVU68
 335 002c 1A6C     		ldr	r2, [r3, #64]
 336 002e 02F48042 		and	r2, r2, #16384
 337 0032 0092     		str	r2, [sp]
 165:Core/Src/stm32f4xx_hal_msp.c **** 
 338              		.loc 1 165 5 view .LVU69
 339 0034 009A     		ldr	r2, [sp]
 340              	.LBE6:
 165:Core/Src/stm32f4xx_hal_msp.c **** 
 341              		.loc 1 165 5 view .LVU70
 167:Core/Src/stm32f4xx_hal_msp.c ****     __HAL_RCC_GPIOB_CLK_ENABLE();
 342              		.loc 1 167 5 view .LVU71
 343              	.LBB7:
 167:Core/Src/stm32f4xx_hal_msp.c ****     __HAL_RCC_GPIOB_CLK_ENABLE();
 344              		.loc 1 167 5 view .LVU72
 345 0036 0194     		str	r4, [sp, #4]
 167:Core/Src/stm32f4xx_hal_msp.c ****     __HAL_RCC_GPIOB_CLK_ENABLE();
 346              		.loc 1 167 5 view .LVU73
 347 0038 1A6B     		ldr	r2, [r3, #48]
 348 003a 42F00402 		orr	r2, r2, #4
 349 003e 1A63     		str	r2, [r3, #48]
 167:Core/Src/stm32f4xx_hal_msp.c ****     __HAL_RCC_GPIOB_CLK_ENABLE();
 350              		.loc 1 167 5 view .LVU74
ARM GAS  C:\Users\samue\AppData\Local\Temp\ccfBe3A1.s 			page 11


 351 0040 1A6B     		ldr	r2, [r3, #48]
 352 0042 02F00402 		and	r2, r2, #4
 353 0046 0192     		str	r2, [sp, #4]
 167:Core/Src/stm32f4xx_hal_msp.c ****     __HAL_RCC_GPIOB_CLK_ENABLE();
 354              		.loc 1 167 5 view .LVU75
 355 0048 019A     		ldr	r2, [sp, #4]
 356              	.LBE7:
 167:Core/Src/stm32f4xx_hal_msp.c ****     __HAL_RCC_GPIOB_CLK_ENABLE();
 357              		.loc 1 167 5 view .LVU76
 168:Core/Src/stm32f4xx_hal_msp.c ****     /**SPI2 GPIO Configuration
 358              		.loc 1 168 5 view .LVU77
 359              	.LBB8:
 168:Core/Src/stm32f4xx_hal_msp.c ****     /**SPI2 GPIO Configuration
 360              		.loc 1 168 5 view .LVU78
 361 004a 0294     		str	r4, [sp, #8]
 168:Core/Src/stm32f4xx_hal_msp.c ****     /**SPI2 GPIO Configuration
 362              		.loc 1 168 5 view .LVU79
 363 004c 1A6B     		ldr	r2, [r3, #48]
 364 004e 42F00202 		orr	r2, r2, #2
 365 0052 1A63     		str	r2, [r3, #48]
 168:Core/Src/stm32f4xx_hal_msp.c ****     /**SPI2 GPIO Configuration
 366              		.loc 1 168 5 view .LVU80
 367 0054 1B6B     		ldr	r3, [r3, #48]
 368 0056 03F00203 		and	r3, r3, #2
 369 005a 0293     		str	r3, [sp, #8]
 168:Core/Src/stm32f4xx_hal_msp.c ****     /**SPI2 GPIO Configuration
 370              		.loc 1 168 5 view .LVU81
 371 005c 029B     		ldr	r3, [sp, #8]
 372              	.LBE8:
 168:Core/Src/stm32f4xx_hal_msp.c ****     /**SPI2 GPIO Configuration
 373              		.loc 1 168 5 view .LVU82
 174:Core/Src/stm32f4xx_hal_msp.c ****     GPIO_InitStruct.Mode = GPIO_MODE_AF_PP;
 374              		.loc 1 174 5 view .LVU83
 174:Core/Src/stm32f4xx_hal_msp.c ****     GPIO_InitStruct.Mode = GPIO_MODE_AF_PP;
 375              		.loc 1 174 25 is_stmt 0 view .LVU84
 376 005e 0823     		movs	r3, #8
 377 0060 0393     		str	r3, [sp, #12]
 175:Core/Src/stm32f4xx_hal_msp.c ****     GPIO_InitStruct.Pull = GPIO_NOPULL;
 378              		.loc 1 175 5 is_stmt 1 view .LVU85
 175:Core/Src/stm32f4xx_hal_msp.c ****     GPIO_InitStruct.Pull = GPIO_NOPULL;
 379              		.loc 1 175 26 is_stmt 0 view .LVU86
 380 0062 0227     		movs	r7, #2
 381 0064 0497     		str	r7, [sp, #16]
 176:Core/Src/stm32f4xx_hal_msp.c ****     GPIO_InitStruct.Speed = GPIO_SPEED_FREQ_VERY_HIGH;
 382              		.loc 1 176 5 is_stmt 1 view .LVU87
 177:Core/Src/stm32f4xx_hal_msp.c ****     GPIO_InitStruct.Alternate = GPIO_AF5_SPI2;
 383              		.loc 1 177 5 view .LVU88
 177:Core/Src/stm32f4xx_hal_msp.c ****     GPIO_InitStruct.Alternate = GPIO_AF5_SPI2;
 384              		.loc 1 177 27 is_stmt 0 view .LVU89
 385 0066 0326     		movs	r6, #3
 386 0068 0696     		str	r6, [sp, #24]
 178:Core/Src/stm32f4xx_hal_msp.c ****     HAL_GPIO_Init(GPIOC, &GPIO_InitStruct);
 387              		.loc 1 178 5 is_stmt 1 view .LVU90
 178:Core/Src/stm32f4xx_hal_msp.c ****     HAL_GPIO_Init(GPIOC, &GPIO_InitStruct);
 388              		.loc 1 178 31 is_stmt 0 view .LVU91
 389 006a 0525     		movs	r5, #5
 390 006c 0795     		str	r5, [sp, #28]
ARM GAS  C:\Users\samue\AppData\Local\Temp\ccfBe3A1.s 			page 12


 179:Core/Src/stm32f4xx_hal_msp.c **** 
 391              		.loc 1 179 5 is_stmt 1 view .LVU92
 392 006e 03A9     		add	r1, sp, #12
 393 0070 0848     		ldr	r0, .L24+4
 394              	.LVL13:
 179:Core/Src/stm32f4xx_hal_msp.c **** 
 395              		.loc 1 179 5 is_stmt 0 view .LVU93
 396 0072 FFF7FEFF 		bl	HAL_GPIO_Init
 397              	.LVL14:
 181:Core/Src/stm32f4xx_hal_msp.c ****     GPIO_InitStruct.Mode = GPIO_MODE_AF_PP;
 398              		.loc 1 181 5 is_stmt 1 view .LVU94
 181:Core/Src/stm32f4xx_hal_msp.c ****     GPIO_InitStruct.Mode = GPIO_MODE_AF_PP;
 399              		.loc 1 181 25 is_stmt 0 view .LVU95
 400 0076 4FF48843 		mov	r3, #17408
 401 007a 0393     		str	r3, [sp, #12]
 182:Core/Src/stm32f4xx_hal_msp.c ****     GPIO_InitStruct.Pull = GPIO_NOPULL;
 402              		.loc 1 182 5 is_stmt 1 view .LVU96
 182:Core/Src/stm32f4xx_hal_msp.c ****     GPIO_InitStruct.Pull = GPIO_NOPULL;
 403              		.loc 1 182 26 is_stmt 0 view .LVU97
 404 007c 0497     		str	r7, [sp, #16]
 183:Core/Src/stm32f4xx_hal_msp.c ****     GPIO_InitStruct.Speed = GPIO_SPEED_FREQ_VERY_HIGH;
 405              		.loc 1 183 5 is_stmt 1 view .LVU98
 183:Core/Src/stm32f4xx_hal_msp.c ****     GPIO_InitStruct.Speed = GPIO_SPEED_FREQ_VERY_HIGH;
 406              		.loc 1 183 26 is_stmt 0 view .LVU99
 407 007e 0594     		str	r4, [sp, #20]
 184:Core/Src/stm32f4xx_hal_msp.c ****     GPIO_InitStruct.Alternate = GPIO_AF5_SPI2;
 408              		.loc 1 184 5 is_stmt 1 view .LVU100
 184:Core/Src/stm32f4xx_hal_msp.c ****     GPIO_InitStruct.Alternate = GPIO_AF5_SPI2;
 409              		.loc 1 184 27 is_stmt 0 view .LVU101
 410 0080 0696     		str	r6, [sp, #24]
 185:Core/Src/stm32f4xx_hal_msp.c ****     HAL_GPIO_Init(GPIOB, &GPIO_InitStruct);
 411              		.loc 1 185 5 is_stmt 1 view .LVU102
 185:Core/Src/stm32f4xx_hal_msp.c ****     HAL_GPIO_Init(GPIOB, &GPIO_InitStruct);
 412              		.loc 1 185 31 is_stmt 0 view .LVU103
 413 0082 0795     		str	r5, [sp, #28]
 186:Core/Src/stm32f4xx_hal_msp.c **** 
 414              		.loc 1 186 5 is_stmt 1 view .LVU104
 415 0084 03A9     		add	r1, sp, #12
 416 0086 0448     		ldr	r0, .L24+8
 417 0088 FFF7FEFF 		bl	HAL_GPIO_Init
 418              	.LVL15:
 419              		.loc 1 193 1 is_stmt 0 view .LVU105
 420 008c C4E7     		b	.L20
 421              	.L25:
 422 008e 00BF     		.align	2
 423              	.L24:
 424 0090 00380040 		.word	1073756160
 425 0094 00080240 		.word	1073874944
 426 0098 00040240 		.word	1073873920
 427              		.cfi_endproc
 428              	.LFE133:
 430              		.section	.text.HAL_SPI_MspDeInit,"ax",%progbits
 431              		.align	1
 432              		.global	HAL_SPI_MspDeInit
 433              		.syntax unified
 434              		.thumb
 435              		.thumb_func
ARM GAS  C:\Users\samue\AppData\Local\Temp\ccfBe3A1.s 			page 13


 437              	HAL_SPI_MspDeInit:
 438              	.LVL16:
 439              	.LFB134:
 194:Core/Src/stm32f4xx_hal_msp.c **** 
 195:Core/Src/stm32f4xx_hal_msp.c **** /**
 196:Core/Src/stm32f4xx_hal_msp.c **** * @brief SPI MSP De-Initialization
 197:Core/Src/stm32f4xx_hal_msp.c **** * This function freeze the hardware resources used in this example
 198:Core/Src/stm32f4xx_hal_msp.c **** * @param hspi: SPI handle pointer
 199:Core/Src/stm32f4xx_hal_msp.c **** * @retval None
 200:Core/Src/stm32f4xx_hal_msp.c **** */
 201:Core/Src/stm32f4xx_hal_msp.c **** void HAL_SPI_MspDeInit(SPI_HandleTypeDef* hspi)
 202:Core/Src/stm32f4xx_hal_msp.c **** {
 440              		.loc 1 202 1 is_stmt 1 view -0
 441              		.cfi_startproc
 442              		@ args = 0, pretend = 0, frame = 0
 443              		@ frame_needed = 0, uses_anonymous_args = 0
 444              		.loc 1 202 1 is_stmt 0 view .LVU107
 445 0000 08B5     		push	{r3, lr}
 446              	.LCFI12:
 447              		.cfi_def_cfa_offset 8
 448              		.cfi_offset 3, -8
 449              		.cfi_offset 14, -4
 203:Core/Src/stm32f4xx_hal_msp.c ****   if(hspi->Instance==SPI2)
 450              		.loc 1 203 3 is_stmt 1 view .LVU108
 451              		.loc 1 203 10 is_stmt 0 view .LVU109
 452 0002 0268     		ldr	r2, [r0]
 453              		.loc 1 203 5 view .LVU110
 454 0004 094B     		ldr	r3, .L30
 455 0006 9A42     		cmp	r2, r3
 456 0008 00D0     		beq	.L29
 457              	.LVL17:
 458              	.L26:
 204:Core/Src/stm32f4xx_hal_msp.c ****   {
 205:Core/Src/stm32f4xx_hal_msp.c ****   /* USER CODE BEGIN SPI2_MspDeInit 0 */
 206:Core/Src/stm32f4xx_hal_msp.c **** 
 207:Core/Src/stm32f4xx_hal_msp.c ****   /* USER CODE END SPI2_MspDeInit 0 */
 208:Core/Src/stm32f4xx_hal_msp.c ****     /* Peripheral clock disable */
 209:Core/Src/stm32f4xx_hal_msp.c ****     __HAL_RCC_SPI2_CLK_DISABLE();
 210:Core/Src/stm32f4xx_hal_msp.c **** 
 211:Core/Src/stm32f4xx_hal_msp.c ****     /**SPI2 GPIO Configuration
 212:Core/Src/stm32f4xx_hal_msp.c ****     PC3     ------> SPI2_MOSI
 213:Core/Src/stm32f4xx_hal_msp.c ****     PB10     ------> SPI2_SCK
 214:Core/Src/stm32f4xx_hal_msp.c ****     PB14     ------> SPI2_MISO
 215:Core/Src/stm32f4xx_hal_msp.c ****     */
 216:Core/Src/stm32f4xx_hal_msp.c ****     HAL_GPIO_DeInit(GPIOC, GPIO_PIN_3);
 217:Core/Src/stm32f4xx_hal_msp.c **** 
 218:Core/Src/stm32f4xx_hal_msp.c ****     HAL_GPIO_DeInit(GPIOB, GPIO_PIN_10|GPIO_PIN_14);
 219:Core/Src/stm32f4xx_hal_msp.c **** 
 220:Core/Src/stm32f4xx_hal_msp.c ****   /* USER CODE BEGIN SPI2_MspDeInit 1 */
 221:Core/Src/stm32f4xx_hal_msp.c **** 
 222:Core/Src/stm32f4xx_hal_msp.c ****   /* USER CODE END SPI2_MspDeInit 1 */
 223:Core/Src/stm32f4xx_hal_msp.c ****   }
 224:Core/Src/stm32f4xx_hal_msp.c **** 
 225:Core/Src/stm32f4xx_hal_msp.c **** }
 459              		.loc 1 225 1 view .LVU111
 460 000a 08BD     		pop	{r3, pc}
 461              	.LVL18:
ARM GAS  C:\Users\samue\AppData\Local\Temp\ccfBe3A1.s 			page 14


 462              	.L29:
 209:Core/Src/stm32f4xx_hal_msp.c **** 
 463              		.loc 1 209 5 is_stmt 1 view .LVU112
 464 000c 084A     		ldr	r2, .L30+4
 465 000e 136C     		ldr	r3, [r2, #64]
 466 0010 23F48043 		bic	r3, r3, #16384
 467 0014 1364     		str	r3, [r2, #64]
 216:Core/Src/stm32f4xx_hal_msp.c **** 
 468              		.loc 1 216 5 view .LVU113
 469 0016 0821     		movs	r1, #8
 470 0018 0648     		ldr	r0, .L30+8
 471              	.LVL19:
 216:Core/Src/stm32f4xx_hal_msp.c **** 
 472              		.loc 1 216 5 is_stmt 0 view .LVU114
 473 001a FFF7FEFF 		bl	HAL_GPIO_DeInit
 474              	.LVL20:
 218:Core/Src/stm32f4xx_hal_msp.c **** 
 475              		.loc 1 218 5 is_stmt 1 view .LVU115
 476 001e 4FF48841 		mov	r1, #17408
 477 0022 0548     		ldr	r0, .L30+12
 478 0024 FFF7FEFF 		bl	HAL_GPIO_DeInit
 479              	.LVL21:
 480              		.loc 1 225 1 is_stmt 0 view .LVU116
 481 0028 EFE7     		b	.L26
 482              	.L31:
 483 002a 00BF     		.align	2
 484              	.L30:
 485 002c 00380040 		.word	1073756160
 486 0030 00380240 		.word	1073887232
 487 0034 00080240 		.word	1073874944
 488 0038 00040240 		.word	1073873920
 489              		.cfi_endproc
 490              	.LFE134:
 492              		.section	.text.HAL_UART_MspInit,"ax",%progbits
 493              		.align	1
 494              		.global	HAL_UART_MspInit
 495              		.syntax unified
 496              		.thumb
 497              		.thumb_func
 499              	HAL_UART_MspInit:
 500              	.LVL22:
 501              	.LFB135:
 226:Core/Src/stm32f4xx_hal_msp.c **** 
 227:Core/Src/stm32f4xx_hal_msp.c **** /**
 228:Core/Src/stm32f4xx_hal_msp.c **** * @brief UART MSP Initialization
 229:Core/Src/stm32f4xx_hal_msp.c **** * This function configures the hardware resources used in this example
 230:Core/Src/stm32f4xx_hal_msp.c **** * @param huart: UART handle pointer
 231:Core/Src/stm32f4xx_hal_msp.c **** * @retval None
 232:Core/Src/stm32f4xx_hal_msp.c **** */
 233:Core/Src/stm32f4xx_hal_msp.c **** void HAL_UART_MspInit(UART_HandleTypeDef* huart)
 234:Core/Src/stm32f4xx_hal_msp.c **** {
 502              		.loc 1 234 1 is_stmt 1 view -0
 503              		.cfi_startproc
 504              		@ args = 0, pretend = 0, frame = 32
 505              		@ frame_needed = 0, uses_anonymous_args = 0
 506              		.loc 1 234 1 is_stmt 0 view .LVU118
 507 0000 30B5     		push	{r4, r5, lr}
ARM GAS  C:\Users\samue\AppData\Local\Temp\ccfBe3A1.s 			page 15


 508              	.LCFI13:
 509              		.cfi_def_cfa_offset 12
 510              		.cfi_offset 4, -12
 511              		.cfi_offset 5, -8
 512              		.cfi_offset 14, -4
 513 0002 89B0     		sub	sp, sp, #36
 514              	.LCFI14:
 515              		.cfi_def_cfa_offset 48
 235:Core/Src/stm32f4xx_hal_msp.c ****   GPIO_InitTypeDef GPIO_InitStruct = {0};
 516              		.loc 1 235 3 is_stmt 1 view .LVU119
 517              		.loc 1 235 20 is_stmt 0 view .LVU120
 518 0004 0023     		movs	r3, #0
 519 0006 0393     		str	r3, [sp, #12]
 520 0008 0493     		str	r3, [sp, #16]
 521 000a 0593     		str	r3, [sp, #20]
 522 000c 0693     		str	r3, [sp, #24]
 523 000e 0793     		str	r3, [sp, #28]
 236:Core/Src/stm32f4xx_hal_msp.c ****   if(huart->Instance==USART2)
 524              		.loc 1 236 3 is_stmt 1 view .LVU121
 525              		.loc 1 236 11 is_stmt 0 view .LVU122
 526 0010 0268     		ldr	r2, [r0]
 527              		.loc 1 236 5 view .LVU123
 528 0012 234B     		ldr	r3, .L38
 529 0014 9A42     		cmp	r2, r3
 530 0016 01D0     		beq	.L36
 531              	.LVL23:
 532              	.L32:
 237:Core/Src/stm32f4xx_hal_msp.c ****   {
 238:Core/Src/stm32f4xx_hal_msp.c ****   /* USER CODE BEGIN USART2_MspInit 0 */
 239:Core/Src/stm32f4xx_hal_msp.c **** 
 240:Core/Src/stm32f4xx_hal_msp.c ****   /* USER CODE END USART2_MspInit 0 */
 241:Core/Src/stm32f4xx_hal_msp.c ****     /* Peripheral clock enable */
 242:Core/Src/stm32f4xx_hal_msp.c ****     __HAL_RCC_USART2_CLK_ENABLE();
 243:Core/Src/stm32f4xx_hal_msp.c **** 
 244:Core/Src/stm32f4xx_hal_msp.c ****     __HAL_RCC_GPIOA_CLK_ENABLE();
 245:Core/Src/stm32f4xx_hal_msp.c ****     /**USART2 GPIO Configuration
 246:Core/Src/stm32f4xx_hal_msp.c ****     PA2     ------> USART2_TX
 247:Core/Src/stm32f4xx_hal_msp.c ****     PA3     ------> USART2_RX
 248:Core/Src/stm32f4xx_hal_msp.c ****     */
 249:Core/Src/stm32f4xx_hal_msp.c ****     GPIO_InitStruct.Pin = USART_TX_Pin|USART_RX_Pin;
 250:Core/Src/stm32f4xx_hal_msp.c ****     GPIO_InitStruct.Mode = GPIO_MODE_AF_PP;
 251:Core/Src/stm32f4xx_hal_msp.c ****     GPIO_InitStruct.Pull = GPIO_NOPULL;
 252:Core/Src/stm32f4xx_hal_msp.c ****     GPIO_InitStruct.Speed = GPIO_SPEED_FREQ_VERY_HIGH;
 253:Core/Src/stm32f4xx_hal_msp.c ****     GPIO_InitStruct.Alternate = GPIO_AF7_USART2;
 254:Core/Src/stm32f4xx_hal_msp.c ****     HAL_GPIO_Init(GPIOA, &GPIO_InitStruct);
 255:Core/Src/stm32f4xx_hal_msp.c **** 
 256:Core/Src/stm32f4xx_hal_msp.c ****     /* USART2 DMA Init */
 257:Core/Src/stm32f4xx_hal_msp.c ****     /* USART2_TX Init */
 258:Core/Src/stm32f4xx_hal_msp.c ****     hdma_usart2_tx.Instance = DMA1_Stream6;
 259:Core/Src/stm32f4xx_hal_msp.c ****     hdma_usart2_tx.Init.Channel = DMA_CHANNEL_4;
 260:Core/Src/stm32f4xx_hal_msp.c ****     hdma_usart2_tx.Init.Direction = DMA_MEMORY_TO_PERIPH;
 261:Core/Src/stm32f4xx_hal_msp.c ****     hdma_usart2_tx.Init.PeriphInc = DMA_PINC_DISABLE;
 262:Core/Src/stm32f4xx_hal_msp.c ****     hdma_usart2_tx.Init.MemInc = DMA_MINC_ENABLE;
 263:Core/Src/stm32f4xx_hal_msp.c ****     hdma_usart2_tx.Init.PeriphDataAlignment = DMA_PDATAALIGN_BYTE;
 264:Core/Src/stm32f4xx_hal_msp.c ****     hdma_usart2_tx.Init.MemDataAlignment = DMA_MDATAALIGN_BYTE;
 265:Core/Src/stm32f4xx_hal_msp.c ****     hdma_usart2_tx.Init.Mode = DMA_CIRCULAR;
 266:Core/Src/stm32f4xx_hal_msp.c ****     hdma_usart2_tx.Init.Priority = DMA_PRIORITY_LOW;
ARM GAS  C:\Users\samue\AppData\Local\Temp\ccfBe3A1.s 			page 16


 267:Core/Src/stm32f4xx_hal_msp.c ****     hdma_usart2_tx.Init.FIFOMode = DMA_FIFOMODE_DISABLE;
 268:Core/Src/stm32f4xx_hal_msp.c ****     if (HAL_DMA_Init(&hdma_usart2_tx) != HAL_OK)
 269:Core/Src/stm32f4xx_hal_msp.c ****     {
 270:Core/Src/stm32f4xx_hal_msp.c ****       Error_Handler();
 271:Core/Src/stm32f4xx_hal_msp.c ****     }
 272:Core/Src/stm32f4xx_hal_msp.c **** 
 273:Core/Src/stm32f4xx_hal_msp.c ****     __HAL_LINKDMA(huart,hdmatx,hdma_usart2_tx);
 274:Core/Src/stm32f4xx_hal_msp.c **** 
 275:Core/Src/stm32f4xx_hal_msp.c ****   /* USER CODE BEGIN USART2_MspInit 1 */
 276:Core/Src/stm32f4xx_hal_msp.c **** 
 277:Core/Src/stm32f4xx_hal_msp.c ****   /* USER CODE END USART2_MspInit 1 */
 278:Core/Src/stm32f4xx_hal_msp.c ****   }
 279:Core/Src/stm32f4xx_hal_msp.c **** 
 280:Core/Src/stm32f4xx_hal_msp.c **** }
 533              		.loc 1 280 1 view .LVU124
 534 0018 09B0     		add	sp, sp, #36
 535              	.LCFI15:
 536              		.cfi_remember_state
 537              		.cfi_def_cfa_offset 12
 538              		@ sp needed
 539 001a 30BD     		pop	{r4, r5, pc}
 540              	.LVL24:
 541              	.L36:
 542              	.LCFI16:
 543              		.cfi_restore_state
 544              		.loc 1 280 1 view .LVU125
 545 001c 0446     		mov	r4, r0
 242:Core/Src/stm32f4xx_hal_msp.c **** 
 546              		.loc 1 242 5 is_stmt 1 view .LVU126
 547              	.LBB9:
 242:Core/Src/stm32f4xx_hal_msp.c **** 
 548              		.loc 1 242 5 view .LVU127
 549 001e 0025     		movs	r5, #0
 550 0020 0195     		str	r5, [sp, #4]
 242:Core/Src/stm32f4xx_hal_msp.c **** 
 551              		.loc 1 242 5 view .LVU128
 552 0022 03F5FA33 		add	r3, r3, #128000
 553 0026 1A6C     		ldr	r2, [r3, #64]
 554 0028 42F40032 		orr	r2, r2, #131072
 555 002c 1A64     		str	r2, [r3, #64]
 242:Core/Src/stm32f4xx_hal_msp.c **** 
 556              		.loc 1 242 5 view .LVU129
 557 002e 1A6C     		ldr	r2, [r3, #64]
 558 0030 02F40032 		and	r2, r2, #131072
 559 0034 0192     		str	r2, [sp, #4]
 242:Core/Src/stm32f4xx_hal_msp.c **** 
 560              		.loc 1 242 5 view .LVU130
 561 0036 019A     		ldr	r2, [sp, #4]
 562              	.LBE9:
 242:Core/Src/stm32f4xx_hal_msp.c **** 
 563              		.loc 1 242 5 view .LVU131
 244:Core/Src/stm32f4xx_hal_msp.c ****     /**USART2 GPIO Configuration
 564              		.loc 1 244 5 view .LVU132
 565              	.LBB10:
 244:Core/Src/stm32f4xx_hal_msp.c ****     /**USART2 GPIO Configuration
 566              		.loc 1 244 5 view .LVU133
 567 0038 0295     		str	r5, [sp, #8]
ARM GAS  C:\Users\samue\AppData\Local\Temp\ccfBe3A1.s 			page 17


 244:Core/Src/stm32f4xx_hal_msp.c ****     /**USART2 GPIO Configuration
 568              		.loc 1 244 5 view .LVU134
 569 003a 1A6B     		ldr	r2, [r3, #48]
 570 003c 42F00102 		orr	r2, r2, #1
 571 0040 1A63     		str	r2, [r3, #48]
 244:Core/Src/stm32f4xx_hal_msp.c ****     /**USART2 GPIO Configuration
 572              		.loc 1 244 5 view .LVU135
 573 0042 1B6B     		ldr	r3, [r3, #48]
 574 0044 03F00103 		and	r3, r3, #1
 575 0048 0293     		str	r3, [sp, #8]
 244:Core/Src/stm32f4xx_hal_msp.c ****     /**USART2 GPIO Configuration
 576              		.loc 1 244 5 view .LVU136
 577 004a 029B     		ldr	r3, [sp, #8]
 578              	.LBE10:
 244:Core/Src/stm32f4xx_hal_msp.c ****     /**USART2 GPIO Configuration
 579              		.loc 1 244 5 view .LVU137
 249:Core/Src/stm32f4xx_hal_msp.c ****     GPIO_InitStruct.Mode = GPIO_MODE_AF_PP;
 580              		.loc 1 249 5 view .LVU138
 249:Core/Src/stm32f4xx_hal_msp.c ****     GPIO_InitStruct.Mode = GPIO_MODE_AF_PP;
 581              		.loc 1 249 25 is_stmt 0 view .LVU139
 582 004c 0C23     		movs	r3, #12
 583 004e 0393     		str	r3, [sp, #12]
 250:Core/Src/stm32f4xx_hal_msp.c ****     GPIO_InitStruct.Pull = GPIO_NOPULL;
 584              		.loc 1 250 5 is_stmt 1 view .LVU140
 250:Core/Src/stm32f4xx_hal_msp.c ****     GPIO_InitStruct.Pull = GPIO_NOPULL;
 585              		.loc 1 250 26 is_stmt 0 view .LVU141
 586 0050 0223     		movs	r3, #2
 587 0052 0493     		str	r3, [sp, #16]
 251:Core/Src/stm32f4xx_hal_msp.c ****     GPIO_InitStruct.Speed = GPIO_SPEED_FREQ_VERY_HIGH;
 588              		.loc 1 251 5 is_stmt 1 view .LVU142
 252:Core/Src/stm32f4xx_hal_msp.c ****     GPIO_InitStruct.Alternate = GPIO_AF7_USART2;
 589              		.loc 1 252 5 view .LVU143
 252:Core/Src/stm32f4xx_hal_msp.c ****     GPIO_InitStruct.Alternate = GPIO_AF7_USART2;
 590              		.loc 1 252 27 is_stmt 0 view .LVU144
 591 0054 0323     		movs	r3, #3
 592 0056 0693     		str	r3, [sp, #24]
 253:Core/Src/stm32f4xx_hal_msp.c ****     HAL_GPIO_Init(GPIOA, &GPIO_InitStruct);
 593              		.loc 1 253 5 is_stmt 1 view .LVU145
 253:Core/Src/stm32f4xx_hal_msp.c ****     HAL_GPIO_Init(GPIOA, &GPIO_InitStruct);
 594              		.loc 1 253 31 is_stmt 0 view .LVU146
 595 0058 0723     		movs	r3, #7
 596 005a 0793     		str	r3, [sp, #28]
 254:Core/Src/stm32f4xx_hal_msp.c **** 
 597              		.loc 1 254 5 is_stmt 1 view .LVU147
 598 005c 03A9     		add	r1, sp, #12
 599 005e 1148     		ldr	r0, .L38+4
 600              	.LVL25:
 254:Core/Src/stm32f4xx_hal_msp.c **** 
 601              		.loc 1 254 5 is_stmt 0 view .LVU148
 602 0060 FFF7FEFF 		bl	HAL_GPIO_Init
 603              	.LVL26:
 258:Core/Src/stm32f4xx_hal_msp.c ****     hdma_usart2_tx.Init.Channel = DMA_CHANNEL_4;
 604              		.loc 1 258 5 is_stmt 1 view .LVU149
 258:Core/Src/stm32f4xx_hal_msp.c ****     hdma_usart2_tx.Init.Channel = DMA_CHANNEL_4;
 605              		.loc 1 258 29 is_stmt 0 view .LVU150
 606 0064 1048     		ldr	r0, .L38+8
 607 0066 114B     		ldr	r3, .L38+12
ARM GAS  C:\Users\samue\AppData\Local\Temp\ccfBe3A1.s 			page 18


 608 0068 0360     		str	r3, [r0]
 259:Core/Src/stm32f4xx_hal_msp.c ****     hdma_usart2_tx.Init.Direction = DMA_MEMORY_TO_PERIPH;
 609              		.loc 1 259 5 is_stmt 1 view .LVU151
 259:Core/Src/stm32f4xx_hal_msp.c ****     hdma_usart2_tx.Init.Direction = DMA_MEMORY_TO_PERIPH;
 610              		.loc 1 259 33 is_stmt 0 view .LVU152
 611 006a 4FF00063 		mov	r3, #134217728
 612 006e 4360     		str	r3, [r0, #4]
 260:Core/Src/stm32f4xx_hal_msp.c ****     hdma_usart2_tx.Init.PeriphInc = DMA_PINC_DISABLE;
 613              		.loc 1 260 5 is_stmt 1 view .LVU153
 260:Core/Src/stm32f4xx_hal_msp.c ****     hdma_usart2_tx.Init.PeriphInc = DMA_PINC_DISABLE;
 614              		.loc 1 260 35 is_stmt 0 view .LVU154
 615 0070 4023     		movs	r3, #64
 616 0072 8360     		str	r3, [r0, #8]
 261:Core/Src/stm32f4xx_hal_msp.c ****     hdma_usart2_tx.Init.MemInc = DMA_MINC_ENABLE;
 617              		.loc 1 261 5 is_stmt 1 view .LVU155
 261:Core/Src/stm32f4xx_hal_msp.c ****     hdma_usart2_tx.Init.MemInc = DMA_MINC_ENABLE;
 618              		.loc 1 261 35 is_stmt 0 view .LVU156
 619 0074 C560     		str	r5, [r0, #12]
 262:Core/Src/stm32f4xx_hal_msp.c ****     hdma_usart2_tx.Init.PeriphDataAlignment = DMA_PDATAALIGN_BYTE;
 620              		.loc 1 262 5 is_stmt 1 view .LVU157
 262:Core/Src/stm32f4xx_hal_msp.c ****     hdma_usart2_tx.Init.PeriphDataAlignment = DMA_PDATAALIGN_BYTE;
 621              		.loc 1 262 32 is_stmt 0 view .LVU158
 622 0076 4FF48063 		mov	r3, #1024
 623 007a 0361     		str	r3, [r0, #16]
 263:Core/Src/stm32f4xx_hal_msp.c ****     hdma_usart2_tx.Init.MemDataAlignment = DMA_MDATAALIGN_BYTE;
 624              		.loc 1 263 5 is_stmt 1 view .LVU159
 263:Core/Src/stm32f4xx_hal_msp.c ****     hdma_usart2_tx.Init.MemDataAlignment = DMA_MDATAALIGN_BYTE;
 625              		.loc 1 263 45 is_stmt 0 view .LVU160
 626 007c 4561     		str	r5, [r0, #20]
 264:Core/Src/stm32f4xx_hal_msp.c ****     hdma_usart2_tx.Init.Mode = DMA_CIRCULAR;
 627              		.loc 1 264 5 is_stmt 1 view .LVU161
 264:Core/Src/stm32f4xx_hal_msp.c ****     hdma_usart2_tx.Init.Mode = DMA_CIRCULAR;
 628              		.loc 1 264 42 is_stmt 0 view .LVU162
 629 007e 8561     		str	r5, [r0, #24]
 265:Core/Src/stm32f4xx_hal_msp.c ****     hdma_usart2_tx.Init.Priority = DMA_PRIORITY_LOW;
 630              		.loc 1 265 5 is_stmt 1 view .LVU163
 265:Core/Src/stm32f4xx_hal_msp.c ****     hdma_usart2_tx.Init.Priority = DMA_PRIORITY_LOW;
 631              		.loc 1 265 30 is_stmt 0 view .LVU164
 632 0080 4FF48073 		mov	r3, #256
 633 0084 C361     		str	r3, [r0, #28]
 266:Core/Src/stm32f4xx_hal_msp.c ****     hdma_usart2_tx.Init.FIFOMode = DMA_FIFOMODE_DISABLE;
 634              		.loc 1 266 5 is_stmt 1 view .LVU165
 266:Core/Src/stm32f4xx_hal_msp.c ****     hdma_usart2_tx.Init.FIFOMode = DMA_FIFOMODE_DISABLE;
 635              		.loc 1 266 34 is_stmt 0 view .LVU166
 636 0086 0562     		str	r5, [r0, #32]
 267:Core/Src/stm32f4xx_hal_msp.c ****     if (HAL_DMA_Init(&hdma_usart2_tx) != HAL_OK)
 637              		.loc 1 267 5 is_stmt 1 view .LVU167
 267:Core/Src/stm32f4xx_hal_msp.c ****     if (HAL_DMA_Init(&hdma_usart2_tx) != HAL_OK)
 638              		.loc 1 267 34 is_stmt 0 view .LVU168
 639 0088 4562     		str	r5, [r0, #36]
 268:Core/Src/stm32f4xx_hal_msp.c ****     {
 640              		.loc 1 268 5 is_stmt 1 view .LVU169
 268:Core/Src/stm32f4xx_hal_msp.c ****     {
 641              		.loc 1 268 9 is_stmt 0 view .LVU170
 642 008a FFF7FEFF 		bl	HAL_DMA_Init
 643              	.LVL27:
 268:Core/Src/stm32f4xx_hal_msp.c ****     {
ARM GAS  C:\Users\samue\AppData\Local\Temp\ccfBe3A1.s 			page 19


 644              		.loc 1 268 8 view .LVU171
 645 008e 18B9     		cbnz	r0, .L37
 646              	.L34:
 273:Core/Src/stm32f4xx_hal_msp.c **** 
 647              		.loc 1 273 5 is_stmt 1 view .LVU172
 273:Core/Src/stm32f4xx_hal_msp.c **** 
 648              		.loc 1 273 5 view .LVU173
 649 0090 054B     		ldr	r3, .L38+8
 650 0092 6363     		str	r3, [r4, #52]
 273:Core/Src/stm32f4xx_hal_msp.c **** 
 651              		.loc 1 273 5 view .LVU174
 652 0094 9C63     		str	r4, [r3, #56]
 273:Core/Src/stm32f4xx_hal_msp.c **** 
 653              		.loc 1 273 5 view .LVU175
 654              		.loc 1 280 1 is_stmt 0 view .LVU176
 655 0096 BFE7     		b	.L32
 656              	.L37:
 270:Core/Src/stm32f4xx_hal_msp.c ****     }
 657              		.loc 1 270 7 is_stmt 1 view .LVU177
 658 0098 FFF7FEFF 		bl	Error_Handler
 659              	.LVL28:
 660 009c F8E7     		b	.L34
 661              	.L39:
 662 009e 00BF     		.align	2
 663              	.L38:
 664 00a0 00440040 		.word	1073759232
 665 00a4 00000240 		.word	1073872896
 666 00a8 00000000 		.word	hdma_usart2_tx
 667 00ac A0600240 		.word	1073897632
 668              		.cfi_endproc
 669              	.LFE135:
 671              		.section	.text.HAL_UART_MspDeInit,"ax",%progbits
 672              		.align	1
 673              		.global	HAL_UART_MspDeInit
 674              		.syntax unified
 675              		.thumb
 676              		.thumb_func
 678              	HAL_UART_MspDeInit:
 679              	.LVL29:
 680              	.LFB136:
 281:Core/Src/stm32f4xx_hal_msp.c **** 
 282:Core/Src/stm32f4xx_hal_msp.c **** /**
 283:Core/Src/stm32f4xx_hal_msp.c **** * @brief UART MSP De-Initialization
 284:Core/Src/stm32f4xx_hal_msp.c **** * This function freeze the hardware resources used in this example
 285:Core/Src/stm32f4xx_hal_msp.c **** * @param huart: UART handle pointer
 286:Core/Src/stm32f4xx_hal_msp.c **** * @retval None
 287:Core/Src/stm32f4xx_hal_msp.c **** */
 288:Core/Src/stm32f4xx_hal_msp.c **** void HAL_UART_MspDeInit(UART_HandleTypeDef* huart)
 289:Core/Src/stm32f4xx_hal_msp.c **** {
 681              		.loc 1 289 1 view -0
 682              		.cfi_startproc
 683              		@ args = 0, pretend = 0, frame = 0
 684              		@ frame_needed = 0, uses_anonymous_args = 0
 290:Core/Src/stm32f4xx_hal_msp.c ****   if(huart->Instance==USART2)
 685              		.loc 1 290 3 view .LVU179
 686              		.loc 1 290 11 is_stmt 0 view .LVU180
 687 0000 0268     		ldr	r2, [r0]
ARM GAS  C:\Users\samue\AppData\Local\Temp\ccfBe3A1.s 			page 20


 688              		.loc 1 290 5 view .LVU181
 689 0002 094B     		ldr	r3, .L47
 690 0004 9A42     		cmp	r2, r3
 691 0006 00D0     		beq	.L46
 692 0008 7047     		bx	lr
 693              	.L46:
 289:Core/Src/stm32f4xx_hal_msp.c ****   if(huart->Instance==USART2)
 694              		.loc 1 289 1 view .LVU182
 695 000a 10B5     		push	{r4, lr}
 696              	.LCFI17:
 697              		.cfi_def_cfa_offset 8
 698              		.cfi_offset 4, -8
 699              		.cfi_offset 14, -4
 700 000c 0446     		mov	r4, r0
 291:Core/Src/stm32f4xx_hal_msp.c ****   {
 292:Core/Src/stm32f4xx_hal_msp.c ****   /* USER CODE BEGIN USART2_MspDeInit 0 */
 293:Core/Src/stm32f4xx_hal_msp.c **** 
 294:Core/Src/stm32f4xx_hal_msp.c ****   /* USER CODE END USART2_MspDeInit 0 */
 295:Core/Src/stm32f4xx_hal_msp.c ****     /* Peripheral clock disable */
 296:Core/Src/stm32f4xx_hal_msp.c ****     __HAL_RCC_USART2_CLK_DISABLE();
 701              		.loc 1 296 5 is_stmt 1 view .LVU183
 702 000e 074A     		ldr	r2, .L47+4
 703 0010 136C     		ldr	r3, [r2, #64]
 704 0012 23F40033 		bic	r3, r3, #131072
 705 0016 1364     		str	r3, [r2, #64]
 297:Core/Src/stm32f4xx_hal_msp.c **** 
 298:Core/Src/stm32f4xx_hal_msp.c ****     /**USART2 GPIO Configuration
 299:Core/Src/stm32f4xx_hal_msp.c ****     PA2     ------> USART2_TX
 300:Core/Src/stm32f4xx_hal_msp.c ****     PA3     ------> USART2_RX
 301:Core/Src/stm32f4xx_hal_msp.c ****     */
 302:Core/Src/stm32f4xx_hal_msp.c ****     HAL_GPIO_DeInit(GPIOA, USART_TX_Pin|USART_RX_Pin);
 706              		.loc 1 302 5 view .LVU184
 707 0018 0C21     		movs	r1, #12
 708 001a 0548     		ldr	r0, .L47+8
 709              	.LVL30:
 710              		.loc 1 302 5 is_stmt 0 view .LVU185
 711 001c FFF7FEFF 		bl	HAL_GPIO_DeInit
 712              	.LVL31:
 303:Core/Src/stm32f4xx_hal_msp.c **** 
 304:Core/Src/stm32f4xx_hal_msp.c ****     /* USART2 DMA DeInit */
 305:Core/Src/stm32f4xx_hal_msp.c ****     HAL_DMA_DeInit(huart->hdmatx);
 713              		.loc 1 305 5 is_stmt 1 view .LVU186
 714 0020 606B     		ldr	r0, [r4, #52]
 715 0022 FFF7FEFF 		bl	HAL_DMA_DeInit
 716              	.LVL32:
 306:Core/Src/stm32f4xx_hal_msp.c ****   /* USER CODE BEGIN USART2_MspDeInit 1 */
 307:Core/Src/stm32f4xx_hal_msp.c **** 
 308:Core/Src/stm32f4xx_hal_msp.c ****   /* USER CODE END USART2_MspDeInit 1 */
 309:Core/Src/stm32f4xx_hal_msp.c ****   }
 310:Core/Src/stm32f4xx_hal_msp.c **** 
 311:Core/Src/stm32f4xx_hal_msp.c **** }
 717              		.loc 1 311 1 is_stmt 0 view .LVU187
 718 0026 10BD     		pop	{r4, pc}
 719              	.LVL33:
 720              	.L48:
 721              		.loc 1 311 1 view .LVU188
 722              		.align	2
ARM GAS  C:\Users\samue\AppData\Local\Temp\ccfBe3A1.s 			page 21


 723              	.L47:
 724 0028 00440040 		.word	1073759232
 725 002c 00380240 		.word	1073887232
 726 0030 00000240 		.word	1073872896
 727              		.cfi_endproc
 728              	.LFE136:
 730              		.text
 731              	.Letext0:
 732              		.file 2 "c:\\dev_tools\\gcc-arm-none-eabi-10.3-2021.10-win32\\gcc-arm-none-eabi-10.3-2021.10\\arm-
 733              		.file 3 "c:\\dev_tools\\gcc-arm-none-eabi-10.3-2021.10-win32\\gcc-arm-none-eabi-10.3-2021.10\\arm-
 734              		.file 4 "Drivers/CMSIS/Device/ST/STM32F4xx/Include/stm32f411xe.h"
 735              		.file 5 "Drivers/STM32F4xx_HAL_Driver/Inc/stm32f4xx_hal_def.h"
 736              		.file 6 "Drivers/STM32F4xx_HAL_Driver/Inc/stm32f4xx_hal_gpio.h"
 737              		.file 7 "Drivers/STM32F4xx_HAL_Driver/Inc/stm32f4xx_hal_dma.h"
 738              		.file 8 "Drivers/STM32F4xx_HAL_Driver/Inc/stm32f4xx_hal_i2c.h"
 739              		.file 9 "Drivers/STM32F4xx_HAL_Driver/Inc/stm32f4xx_hal_spi.h"
 740              		.file 10 "Drivers/STM32F4xx_HAL_Driver/Inc/stm32f4xx_hal_uart.h"
 741              		.file 11 "Core/Inc/main.h"
 742              		.file 12 "Drivers/STM32F4xx_HAL_Driver/Inc/stm32f4xx_hal_cortex.h"
ARM GAS  C:\Users\samue\AppData\Local\Temp\ccfBe3A1.s 			page 22

